ARM GAS  C:\Users\LY\AppData\Local\Temp\cc36mcgd.s 			page 1


   1              		.cpu cortex-m4
   2              		.eabi_attribute 27, 1
   3              		.eabi_attribute 28, 1
   4              		.eabi_attribute 20, 1
   5              		.eabi_attribute 21, 1
   6              		.eabi_attribute 23, 3
   7              		.eabi_attribute 24, 1
   8              		.eabi_attribute 25, 1
   9              		.eabi_attribute 26, 1
  10              		.eabi_attribute 30, 1
  11              		.eabi_attribute 34, 1
  12              		.eabi_attribute 18, 4
  13              		.file	"iot.c"
  14              		.text
  15              	.Ltext0:
  16              		.cfi_sections	.debug_frame
  17              		.section	.rodata.test.str1.4,"aMS",%progbits,1
  18              		.align	2
  19              	.LC0:
  20 0000 41542B48 		.ascii	"AT+HTTPSEND=\000"
  20      54545053 
  20      454E443D 
  20      00
  21 000d 000000   		.align	2
  22              	.LC1:
  23 0010 25732563 		.ascii	"%s%c,0,%s%s%s%s%s\"\015\000"
  23      2C302C25 
  23      73257325 
  23      73257325 
  23      73220D00 
  24              		.align	2
  25              	.LC2:
  26 0024 2642533D 		.ascii	"&BS=\000"
  26      00
  27 0029 000000   		.align	2
  28              	.LC3:
  29 002c 2C222F62 		.ascii	",\"/btserver/bt/?PW=zhilai&TC=1104&SI=\000"
  29      74736572 
  29      7665722F 
  29      62742F3F 
  29      50573D7A 
  30 0052 0000     		.align	2
  31              	.LC4:
  32 0054 73747269 		.ascii	"string : %s\015\012\000"
  32      6E67203A 
  32      2025730D 
  32      0A00
  33 0062 0000     		.align	2
  34              	.LC5:
  35 0064 64617461 		.ascii	"data_len : %d\015\012\000"
  35      5F6C656E 
  35      203A2025 
  35      640D0A00 
  36              		.section	.text.test,"ax",%progbits
  37              		.align	1
  38              		.global	test
  39              		.arch armv7e-m
ARM GAS  C:\Users\LY\AppData\Local\Temp\cc36mcgd.s 			page 2


  40              		.syntax unified
  41              		.thumb
  42              		.thumb_func
  43              		.fpu fpv4-sp-d16
  45              	test:
  46              	.LFB316:
  47              		.file 1 "Src/iot.c"
   1:Src/iot.c     **** /*
   2:Src/iot.c     ****     Copyright 2019 SHENZHEN ZHILAI SCI AND TECH CO., LTD,
   3:Src/iot.c     ****     15th floor, C3 building, Nanshan ipark,Xueyuan road 1001,
   4:Src/iot.c     **** 	Nanshan District, Shenzhen 518052, China.
   5:Src/iot.c     ****     All rights are reserved. Reproduction in whole or in part is prohibited
   6:Src/iot.c     ****     without the prior written consent of the copyright owner.
   7:Src/iot.c     **** 
   8:Src/iot.c     ****     COMPANY CONFIDENTIAL
   9:Src/iot.c     **** 
  10:Src/iot.c     **** Filename  :  iot.c
  11:Src/iot.c     **** 
  12:Src/iot.c     **** 
  13:Src/iot.c     **** Rev     Date    Author  Comments
  14:Src/iot.c     **** -------------------------------------------------------------------------------
  15:Src/iot.c     **** 001  2021.3.27   zjs
  16:Src/iot.c     **** 002
  17:Src/iot.c     **** 003
  18:Src/iot.c     **** 004
  19:Src/iot.c     **** -------------------------------------------------------------------------------
  20:Src/iot.c     **** 
  21:Src/iot.c     **** @Begin
  22:Src/iot.c     **** @module
  23:Src/iot.c     ****         Module name
  24:Src/iot.c     ****         Module description (Driving iot module ma510)
  25:Src/iot.c     **** @end
  26:Src/iot.c     **** */
  27:Src/iot.c     **** 
  28:Src/iot.c     **** /* Includes ------------------------------------------------------------------*/
  29:Src/iot.c     **** #include "iot.h"
  30:Src/iot.c     **** #include "stm32l4xx_it.h"
  31:Src/iot.c     **** #include "user_gpio.h"
  32:Src/iot.c     **** #include "ble_e95.h"
  33:Src/iot.c     **** #include "adc.h"
  34:Src/iot.c     **** #include "tim.h"
  35:Src/iot.c     **** extern UART_HandleTypeDef huart5;
  36:Src/iot.c     **** /*uart4 Êé•Êî∂„ÄÅÂ§ÑÁêÜÊï∞ÊçÆÂÆö‰ΩçÊåáÈíà*/
  37:Src/iot.c     **** Uart_pos g_uart_tmp5 = {I_ZERO};
  38:Src/iot.c     **** /*uart5Êî∂ÂèëÊï∞ÊçÆÂ≠òÂÇ®ÔºåÊúÄÂ§ßÊé•Êî∂Â≠óËäÇ255*/
  39:Src/iot.c     **** uint8_t ar_usart5_tx_buffer[IOT_MAX_RECV_DATA] = {I_ZERO};
  40:Src/iot.c     **** uint8_t ar_usart5_rx_buffer[IOT_MAX_RECV_DATA] = {I_ZERO};
  41:Src/iot.c     **** uint8_t g_usart5_tx_len = I_ZERO;
  42:Src/iot.c     **** 
  43:Src/iot.c     **** /*Êé•Êî∂ÂÆåÊàêÊ†áÂøó‰Ωç*/
  44:Src/iot.c     **** uint8_t g_usart5_rx_finish = I_ZERO;
  45:Src/iot.c     **** /*ÊµãËØïiot‰∏≤Âè£ÈÄöÊñ≠*/
  46:Src/iot.c     **** const uint8_t ar_nb_uart_connect[] = "AT\r";     /*AT OK*/
  47:Src/iot.c     **** 
  48:Src/iot.c     **** /*Êü•ËØ¢iotÊòØÂê¶ÊèíÂç°*/
  49:Src/iot.c     **** const uint8_t ar_nb_cpin[] = "AT+CPIN?\r";     /*+CPINÔºöREADY  OK*/
  50:Src/iot.c     **** /*Êü•ËØ¢‰ø°Âè∑Âº∫Â∫¶*/
ARM GAS  C:\Users\LY\AppData\Local\Temp\cc36mcgd.s 			page 3


  51:Src/iot.c     **** const uint8_t ar_nb_csq[] = "AT+CSQ\r";    /*+COPS: 0 OK  +CSQ: 30,99  OK*, RSSI:0-31,99/
  52:Src/iot.c     **** /*Êü•ËØ¢ÂèØÁî®ÁΩëÁªú*/
  53:Src/iot.c     **** const uint8_t ar_nb_cops[] = "AT+COPS?\r";    /*+COPS: 0 OK,Ê≤°ÊúâÂèØÁî®ÁΩëÁªúÔºå+COPS: 0,0,"CHINA 
  54:Src/iot.c     **** /*ËøûÊé•‰∏≠ÂõΩÁßªÂä®ÁΩë*/
  55:Src/iot.c     **** uint8_t ar_nb_connnect_china_mobile[70] = "0";     /*AT+MIPCALL=1,"CHINA MOBILE" OK +MIPCALL: 100.1
  56:Src/iot.c     **** /*ÂºÄÂêØiotÂç°ÁöÑÂÖ®ÂäüËÉΩ*/
  57:Src/iot.c     **** const uint8_t ar_nb_cfun[] = "AT+CFUN=1\r";     /*ÂõûÂ§çOK*/
  58:Src/iot.c     **** /*Êü•ËØ¢ÁΩëÁªúÈôÑÁùÄÁä∂ÊÄÅ*/
  59:Src/iot.c     **** const uint8_t ar_nb_cereg[] = "AT+CEREG?\r";    /*+CEREG: 2,1,"3B00","08A29A69",9 OK  Á¨¨‰∫å‰∏™ÂèÇÊ
  60:Src/iot.c     **** /*ÂàõÂª∫httpÂÆ¢Êà∑Á´Ø*/
  61:Src/iot.c     **** const uint8_t ar_creat_http_client[] = "AT+HTTPCREATE=0,\"http://118.31.125.61:8167\"\r";     /*Âõû
  62:Src/iot.c     **** /*ÂàõÂª∫httpsocket*/
  63:Src/iot.c     ****  uint8_t ar_creat_http_socket[15] = "AT+HTTPCON=0\r";
  64:Src/iot.c     **** /*ËØ∑Ê±ÇÊúçÂä°Âô®*/
  65:Src/iot.c     **** uint8_t ar_get_http_server[150] = "AT+HTTPSEND=0,0,74,\"/btserver/bt/?PW=zhilai&TC=1104&SI=222-0000
  66:Src/iot.c     **** const uint8_t ar_start_http_service[] = "AT+HTTPACT=0\r";
  67:Src/iot.c     **** uint8_t ar_http_server_len[] = "00";
  68:Src/iot.c     **** uint8_t ar_goods_status[] = "111111111110000100000000";
  69:Src/iot.c     **** uint8_t ar_voltage_status[] = "low voltage: ";
  70:Src/iot.c     **** //uint8_t ar_goods_status[] = "1111111111100001";
  71:Src/iot.c     **** 
  72:Src/iot.c     **** /*ÂõûÂ§ç+HTTPRESPH: 0,200,111,Content-Type: application/json;charset=UTF-8
  73:Src/iot.c     **** Transfer-Encoding: chunked
  74:Src/iot.c     **** Date: Thu, 13 May 2021 02:20:21 GMT
  75:Src/iot.c     **** 
  76:Src/iot.c     **** +HTTPRESPC: 0,0,4,4,0000*/
  77:Src/iot.c     **** /*http ÈªòËÆ§client id = 0*/
  78:Src/iot.c     **** char g_httpclient_id = '0';
  79:Src/iot.c     **** /*‰∏≤Âè£5Â≠óËäÇ‰∏≠Êñ≠Êé•Êî∂Êï∞ÊçÆÔºåÂ≠óËäÇË∂ÖÊó∂Êó∂Èó¥‰∏∫40ms*/
  80:Src/iot.c     **** uint8_t g_uart5_tick = V_ZERO;
  81:Src/iot.c     **** uint8_t g_uart5_receive_finish = V_ZERO;
  82:Src/iot.c     **** /*iotÊìç‰ΩúÊ≠•È™§*/
  83:Src/iot.c     **** uint8_t g_nb_ctrl_step = V_ZERO;
  84:Src/iot.c     **** uint8_t g_nb_curren_step = V_ZERO;
  85:Src/iot.c     **** uint8_t g_nb_send_cmd_cnt = V_ZERO;
  86:Src/iot.c     **** uint16_t g_nb_send_cmd_overtime = V_ZERO;
  87:Src/iot.c     **** uint8_t g_nb_send_cmd_star_time = V_ZERO;
  88:Src/iot.c     **** /*nbÊ®°ÂùóÊé•Êî∂Êï∞ÊçÆ*/
  89:Src/iot.c     **** uint8_t g_nb_receive_step = V_ZERO;
  90:Src/iot.c     **** /*ÊêúÁ¥¢Âà∞ÁΩëÁªúÂêçÁß∞ÈïøÂ∫¶*/
  91:Src/iot.c     **** uint8_t g_network_len = V_ZERO;
  92:Src/iot.c     **** /*Â≠òÂÇ®ÁΩëÁªúÂêç*/
  93:Src/iot.c     **** uint8_t ar_network[50] = "0";
  94:Src/iot.c     **** 
  95:Src/iot.c     **** void test(void)
  96:Src/iot.c     **** {
  48              		.loc 1 96 1 view -0
  49              		.cfi_startproc
  50              		@ args = 0, pretend = 0, frame = 0
  51              		@ frame_needed = 0, uses_anonymous_args = 0
  52 0000 30B5     		push	{r4, r5, lr}
  53              	.LCFI0:
  54              		.cfi_def_cfa_offset 12
  55              		.cfi_offset 4, -12
  56              		.cfi_offset 5, -8
  57              		.cfi_offset 14, -4
  58 0002 87B0     		sub	sp, sp, #28
ARM GAS  C:\Users\LY\AppData\Local\Temp\cc36mcgd.s 			page 4


  59              	.LCFI1:
  60              		.cfi_def_cfa_offset 40
  97:Src/iot.c     ****     sprintf(ar_get_http_server, 
  61              		.loc 1 97 5 view .LVU1
  62 0004 1B4D     		ldr	r5, .L3
  63 0006 1C4B     		ldr	r3, .L3+4
  64 0008 0493     		str	r3, [sp, #16]
  65 000a 1C4B     		ldr	r3, .L3+8
  66 000c 0393     		str	r3, [sp, #12]
  67 000e 1C4B     		ldr	r3, .L3+12
  68 0010 0293     		str	r3, [sp, #8]
  69 0012 1C4B     		ldr	r3, .L3+16
  70 0014 0193     		str	r3, [sp, #4]
  71 0016 1C4B     		ldr	r3, .L3+20
  72 0018 0093     		str	r3, [sp]
  73 001a 1C4B     		ldr	r3, .L3+24
  74 001c 1B78     		ldrb	r3, [r3]	@ zero_extendqisi2
  75 001e 1C4A     		ldr	r2, .L3+28
  76 0020 1C49     		ldr	r1, .L3+32
  77 0022 2846     		mov	r0, r5
  78 0024 FFF7FEFF 		bl	sprintf
  79              	.LVL0:
  98:Src/iot.c     ****             "%s%c,0,%s%s%s%s%s\"\r",
  99:Src/iot.c     ****             (char *)"AT+HTTPSEND=",
 100:Src/iot.c     ****             g_httpclient_id,
 101:Src/iot.c     ****             ar_http_server_len,
 102:Src/iot.c     ****             (char *)",\"/btserver/bt/?PW=zhilai&TC=1104&SI=",
 103:Src/iot.c     ****             ar_sn_num,
 104:Src/iot.c     ****             (char *)"&BS=",
 105:Src/iot.c     ****             ar_goods_status);
 106:Src/iot.c     ****     ar_get_http_server[16] = ((strlen(ar_get_http_server) - 22)/10) + 0x30;
  80              		.loc 1 106 5 view .LVU2
  81              		.loc 1 106 32 is_stmt 0 view .LVU3
  82 0028 2846     		mov	r0, r5
  83 002a FFF7FEFF 		bl	strlen
  84              	.LVL1:
  85              		.loc 1 106 59 view .LVU4
  86 002e A0F11603 		sub	r3, r0, #22
  87              		.loc 1 106 64 view .LVU5
  88 0032 194C     		ldr	r4, .L3+36
  89 0034 A4FB0323 		umull	r2, r3, r4, r3
  90 0038 DB08     		lsrs	r3, r3, #3
  91              		.loc 1 106 69 view .LVU6
  92 003a 3033     		adds	r3, r3, #48
  93              		.loc 1 106 28 view .LVU7
  94 003c 2B74     		strb	r3, [r5, #16]
 107:Src/iot.c     ****     ar_get_http_server[17] = ((strlen(ar_get_http_server) - 22)%10) + 0x30;
  95              		.loc 1 107 5 is_stmt 1 view .LVU8
  96              		.loc 1 107 32 is_stmt 0 view .LVU9
  97 003e 2846     		mov	r0, r5
  98 0040 FFF7FEFF 		bl	strlen
  99              	.LVL2:
 100              		.loc 1 107 59 view .LVU10
 101 0044 1638     		subs	r0, r0, #22
 102              		.loc 1 107 64 view .LVU11
 103 0046 A4FB0023 		umull	r2, r3, r4, r0
 104 004a DB08     		lsrs	r3, r3, #3
ARM GAS  C:\Users\LY\AppData\Local\Temp\cc36mcgd.s 			page 5


 105 004c 03EB8303 		add	r3, r3, r3, lsl #2
 106 0050 A0EB4303 		sub	r3, r0, r3, lsl #1
 107              		.loc 1 107 69 view .LVU12
 108 0054 3033     		adds	r3, r3, #48
 109              		.loc 1 107 28 view .LVU13
 110 0056 6B74     		strb	r3, [r5, #17]
 108:Src/iot.c     ****     printf("string : %s\r\n", ar_get_http_server);
 111              		.loc 1 108 5 is_stmt 1 view .LVU14
 112 0058 2946     		mov	r1, r5
 113 005a 1048     		ldr	r0, .L3+40
 114 005c FFF7FEFF 		bl	printf
 115              	.LVL3:
 109:Src/iot.c     ****     printf("data_len : %d\r\n", strlen(ar_get_http_server));
 116              		.loc 1 109 5 view .LVU15
 117 0060 2846     		mov	r0, r5
 118 0062 FFF7FEFF 		bl	strlen
 119              	.LVL4:
 120 0066 0146     		mov	r1, r0
 121 0068 0D48     		ldr	r0, .L3+44
 122 006a FFF7FEFF 		bl	printf
 123              	.LVL5:
 110:Src/iot.c     **** }
 124              		.loc 1 110 1 is_stmt 0 view .LVU16
 125 006e 07B0     		add	sp, sp, #28
 126              	.LCFI2:
 127              		.cfi_def_cfa_offset 12
 128              		@ sp needed
 129 0070 30BD     		pop	{r4, r5, pc}
 130              	.L4:
 131 0072 00BF     		.align	2
 132              	.L3:
 133 0074 00000000 		.word	.LANCHOR1
 134 0078 00000000 		.word	.LANCHOR2
 135 007c 24000000 		.word	.LC2
 136 0080 00000000 		.word	ar_sn_num
 137 0084 2C000000 		.word	.LC3
 138 0088 00000000 		.word	.LANCHOR3
 139 008c 00000000 		.word	.LANCHOR0
 140 0090 00000000 		.word	.LC0
 141 0094 10000000 		.word	.LC1
 142 0098 CDCCCCCC 		.word	-858993459
 143 009c 54000000 		.word	.LC4
 144 00a0 64000000 		.word	.LC5
 145              		.cfi_endproc
 146              	.LFE316:
 148              		.section	.text.HAL_UART_RxCpltCallback,"ax",%progbits
 149              		.align	1
 150              		.global	HAL_UART_RxCpltCallback
 151              		.syntax unified
 152              		.thumb
 153              		.thumb_func
 154              		.fpu fpv4-sp-d16
 156              	HAL_UART_RxCpltCallback:
 157              	.LVL6:
 158              	.LFB317:
 111:Src/iot.c     **** 
 112:Src/iot.c     **** void HAL_UART_RxCpltCallback(UART_HandleTypeDef *huart)
ARM GAS  C:\Users\LY\AppData\Local\Temp\cc36mcgd.s 			page 6


 113:Src/iot.c     **** {
 159              		.loc 1 113 1 is_stmt 1 view -0
 160              		.cfi_startproc
 161              		@ args = 0, pretend = 0, frame = 0
 162              		@ frame_needed = 0, uses_anonymous_args = 0
 163              		.loc 1 113 1 is_stmt 0 view .LVU18
 164 0000 08B5     		push	{r3, lr}
 165              	.LCFI3:
 166              		.cfi_def_cfa_offset 8
 167              		.cfi_offset 3, -8
 168              		.cfi_offset 14, -4
 114:Src/iot.c     ****     if((huart == &huart5) && (HAL_UART_STATE_READY == HAL_UART_GetState(&huart5)))
 169              		.loc 1 114 5 is_stmt 1 view .LVU19
 170              		.loc 1 114 7 is_stmt 0 view .LVU20
 171 0002 0D4B     		ldr	r3, .L9
 172 0004 8342     		cmp	r3, r0
 173 0006 00D0     		beq	.L8
 174              	.LVL7:
 175              	.L5:
 115:Src/iot.c     ****     {
 116:Src/iot.c     ****         g_uart_tmp5.writepos++;
 117:Src/iot.c     ****         HAL_UART_Receive_IT(&huart5, &ar_usart5_rx_buffer[g_uart_tmp5.writepos], L_ONE);
 118:Src/iot.c     ****         g_uart5_tick = UART_RECV_DATA_TIMEOUT;
 119:Src/iot.c     ****         g_uart5_receive_finish = V_ONE;
 120:Src/iot.c     ****     }
 121:Src/iot.c     **** }
 176              		.loc 1 121 1 view .LVU21
 177 0008 08BD     		pop	{r3, pc}
 178              	.LVL8:
 179              	.L8:
 114:Src/iot.c     ****     if((huart == &huart5) && (HAL_UART_STATE_READY == HAL_UART_GetState(&huart5)))
 180              		.loc 1 114 55 discriminator 1 view .LVU22
 181 000a 1846     		mov	r0, r3
 182              	.LVL9:
 114:Src/iot.c     ****     if((huart == &huart5) && (HAL_UART_STATE_READY == HAL_UART_GetState(&huart5)))
 183              		.loc 1 114 55 discriminator 1 view .LVU23
 184 000c FFF7FEFF 		bl	HAL_UART_GetState
 185              	.LVL10:
 114:Src/iot.c     ****     if((huart == &huart5) && (HAL_UART_STATE_READY == HAL_UART_GetState(&huart5)))
 186              		.loc 1 114 27 discriminator 1 view .LVU24
 187 0010 2028     		cmp	r0, #32
 188 0012 F9D1     		bne	.L5
 116:Src/iot.c     ****         HAL_UART_Receive_IT(&huart5, &ar_usart5_rx_buffer[g_uart_tmp5.writepos], L_ONE);
 189              		.loc 1 116 9 is_stmt 1 view .LVU25
 116:Src/iot.c     ****         HAL_UART_Receive_IT(&huart5, &ar_usart5_rx_buffer[g_uart_tmp5.writepos], L_ONE);
 190              		.loc 1 116 20 is_stmt 0 view .LVU26
 191 0014 094A     		ldr	r2, .L9+4
 192 0016 1378     		ldrb	r3, [r2]	@ zero_extendqisi2
 116:Src/iot.c     ****         HAL_UART_Receive_IT(&huart5, &ar_usart5_rx_buffer[g_uart_tmp5.writepos], L_ONE);
 193              		.loc 1 116 29 view .LVU27
 194 0018 0133     		adds	r3, r3, #1
 195 001a DBB2     		uxtb	r3, r3
 196 001c 1370     		strb	r3, [r2]
 117:Src/iot.c     ****         g_uart5_tick = UART_RECV_DATA_TIMEOUT;
 197              		.loc 1 117 9 is_stmt 1 view .LVU28
 198 001e 0122     		movs	r2, #1
 199 0020 0749     		ldr	r1, .L9+8
ARM GAS  C:\Users\LY\AppData\Local\Temp\cc36mcgd.s 			page 7


 200 0022 1944     		add	r1, r1, r3
 201 0024 0448     		ldr	r0, .L9
 202 0026 FFF7FEFF 		bl	HAL_UART_Receive_IT
 203              	.LVL11:
 118:Src/iot.c     ****         g_uart5_receive_finish = V_ONE;
 204              		.loc 1 118 9 view .LVU29
 118:Src/iot.c     ****         g_uart5_receive_finish = V_ONE;
 205              		.loc 1 118 22 is_stmt 0 view .LVU30
 206 002a 064B     		ldr	r3, .L9+12
 207 002c 0822     		movs	r2, #8
 208 002e 1A70     		strb	r2, [r3]
 119:Src/iot.c     ****     }
 209              		.loc 1 119 9 is_stmt 1 view .LVU31
 119:Src/iot.c     ****     }
 210              		.loc 1 119 32 is_stmt 0 view .LVU32
 211 0030 054B     		ldr	r3, .L9+16
 212 0032 0122     		movs	r2, #1
 213 0034 1A70     		strb	r2, [r3]
 214              		.loc 1 121 1 view .LVU33
 215 0036 E7E7     		b	.L5
 216              	.L10:
 217              		.align	2
 218              	.L9:
 219 0038 00000000 		.word	huart5
 220 003c 00000000 		.word	.LANCHOR4
 221 0040 00000000 		.word	.LANCHOR5
 222 0044 00000000 		.word	.LANCHOR6
 223 0048 00000000 		.word	.LANCHOR7
 224              		.cfi_endproc
 225              	.LFE317:
 227              		.section	.text.uart5_recv_data_fun,"ax",%progbits
 228              		.align	1
 229              		.global	uart5_recv_data_fun
 230              		.syntax unified
 231              		.thumb
 232              		.thumb_func
 233              		.fpu fpv4-sp-d16
 235              	uart5_recv_data_fun:
 236              	.LFB318:
 122:Src/iot.c     **** 
 123:Src/iot.c     **** void uart5_recv_data_fun(void)
 124:Src/iot.c     **** {
 237              		.loc 1 124 1 is_stmt 1 view -0
 238              		.cfi_startproc
 239              		@ args = 0, pretend = 0, frame = 0
 240              		@ frame_needed = 0, uses_anonymous_args = 0
 241 0000 70B5     		push	{r4, r5, r6, lr}
 242              	.LCFI4:
 243              		.cfi_def_cfa_offset 16
 244              		.cfi_offset 4, -16
 245              		.cfi_offset 5, -12
 246              		.cfi_offset 6, -8
 247              		.cfi_offset 14, -4
 125:Src/iot.c     ****     /*Âà§Êñ≠Êé•Êî∂„ÄÅÂ§ÑÁêÜÊï∞ÊçÆÁöÑÊåáÈíàÊòØÂê¶‰∏ÄËá¥ÔºåÂπ∂Â∞ÜÊé•Êî∂Âà∞ÁöÑÊï∞ÊçÆ‰øùÂ≠òÂà∞tmpÊï∞ÁªÑ
 126:Src/iot.c     ****     if(g_uart_tmp5.readpos <= g_uart_tmp5.writepos)
 248              		.loc 1 126 5 view .LVU35
 249              		.loc 1 126 19 is_stmt 0 view .LVU36
ARM GAS  C:\Users\LY\AppData\Local\Temp\cc36mcgd.s 			page 8


 250 0002 104B     		ldr	r3, .L15
 251 0004 5978     		ldrb	r1, [r3, #1]	@ zero_extendqisi2
 252              		.loc 1 126 42 view .LVU37
 253 0006 1C78     		ldrb	r4, [r3]	@ zero_extendqisi2
 254              		.loc 1 126 7 view .LVU38
 255 0008 A142     		cmp	r1, r4
 256 000a 09D8     		bhi	.L12
 127:Src/iot.c     ****     {
 128:Src/iot.c     ****         g_usart5_tx_len = g_uart_tmp5.writepos - g_uart_tmp5.readpos;
 257              		.loc 1 128 9 is_stmt 1 view .LVU39
 258              		.loc 1 128 48 is_stmt 0 view .LVU40
 259 000c 621A     		subs	r2, r4, r1
 260 000e D2B2     		uxtb	r2, r2
 261              		.loc 1 128 25 view .LVU41
 262 0010 0D4B     		ldr	r3, .L15+4
 263 0012 1A70     		strb	r2, [r3]
 129:Src/iot.c     ****         memcpy(ar_usart5_tx_buffer, &ar_usart5_rx_buffer[g_uart_tmp5.readpos], g_usart5_tx_len);
 264              		.loc 1 129 9 is_stmt 1 view .LVU42
 265 0014 0D4B     		ldr	r3, .L15+8
 266 0016 1944     		add	r1, r1, r3
 267 0018 0D48     		ldr	r0, .L15+12
 268 001a FFF7FEFF 		bl	memcpy
 269              	.LVL12:
 270              	.L11:
 130:Src/iot.c     ****     }
 131:Src/iot.c     ****     else
 132:Src/iot.c     ****     {
 133:Src/iot.c     ****         g_usart5_tx_len = g_uart_tmp5.writepos + IOT_MAX_RECV_DATA - g_uart_tmp5.readpos;
 134:Src/iot.c     ****         memcpy(ar_usart5_tx_buffer, &ar_usart5_tx_buffer[g_uart_tmp5.readpos], IOT_MAX_RECV_DATA - 
 135:Src/iot.c     ****         memcpy(&ar_usart5_tx_buffer[IOT_MAX_RECV_DATA - g_uart_tmp5.readpos], ar_usart5_rx_buffer, 
 136:Src/iot.c     ****     }
 137:Src/iot.c     **** }
 271              		.loc 1 137 1 is_stmt 0 view .LVU43
 272 001e 70BD     		pop	{r4, r5, r6, pc}
 273              	.L12:
 133:Src/iot.c     ****         memcpy(ar_usart5_tx_buffer, &ar_usart5_tx_buffer[g_uart_tmp5.readpos], IOT_MAX_RECV_DATA - 
 274              		.loc 1 133 9 is_stmt 1 view .LVU44
 133:Src/iot.c     ****         memcpy(ar_usart5_tx_buffer, &ar_usart5_tx_buffer[g_uart_tmp5.readpos], IOT_MAX_RECV_DATA - 
 275              		.loc 1 133 68 is_stmt 0 view .LVU45
 276 0020 621A     		subs	r2, r4, r1
 133:Src/iot.c     ****         memcpy(ar_usart5_tx_buffer, &ar_usart5_tx_buffer[g_uart_tmp5.readpos], IOT_MAX_RECV_DATA - 
 277              		.loc 1 133 25 view .LVU46
 278 0022 094B     		ldr	r3, .L15+4
 279 0024 1A70     		strb	r2, [r3]
 134:Src/iot.c     ****         memcpy(&ar_usart5_tx_buffer[IOT_MAX_RECV_DATA - g_uart_tmp5.readpos], ar_usart5_rx_buffer, 
 280              		.loc 1 134 9 is_stmt 1 view .LVU47
 134:Src/iot.c     ****         memcpy(&ar_usart5_tx_buffer[IOT_MAX_RECV_DATA - g_uart_tmp5.readpos], ar_usart5_rx_buffer, 
 281              		.loc 1 134 37 is_stmt 0 view .LVU48
 282 0026 0A4D     		ldr	r5, .L15+12
 134:Src/iot.c     ****         memcpy(&ar_usart5_tx_buffer[IOT_MAX_RECV_DATA - g_uart_tmp5.readpos], ar_usart5_rx_buffer, 
 283              		.loc 1 134 98 view .LVU49
 284 0028 C1F58076 		rsb	r6, r1, #256
 134:Src/iot.c     ****         memcpy(&ar_usart5_tx_buffer[IOT_MAX_RECV_DATA - g_uart_tmp5.readpos], ar_usart5_rx_buffer, 
 285              		.loc 1 134 9 view .LVU50
 286 002c 3246     		mov	r2, r6
 287 002e 2944     		add	r1, r1, r5
 288 0030 2846     		mov	r0, r5
ARM GAS  C:\Users\LY\AppData\Local\Temp\cc36mcgd.s 			page 9


 289 0032 FFF7FEFF 		bl	memcpy
 290              	.LVL13:
 135:Src/iot.c     ****     }
 291              		.loc 1 135 9 is_stmt 1 view .LVU51
 292 0036 2246     		mov	r2, r4
 293 0038 0449     		ldr	r1, .L15+8
 294 003a A819     		adds	r0, r5, r6
 295 003c FFF7FEFF 		bl	memcpy
 296              	.LVL14:
 297              		.loc 1 137 1 is_stmt 0 view .LVU52
 298 0040 EDE7     		b	.L11
 299              	.L16:
 300 0042 00BF     		.align	2
 301              	.L15:
 302 0044 00000000 		.word	.LANCHOR4
 303 0048 00000000 		.word	.LANCHOR8
 304 004c 00000000 		.word	.LANCHOR5
 305 0050 00000000 		.word	.LANCHOR9
 306              		.cfi_endproc
 307              	.LFE318:
 309              		.section	.text.iot_power_on_ctrl,"ax",%progbits
 310              		.align	1
 311              		.global	iot_power_on_ctrl
 312              		.syntax unified
 313              		.thumb
 314              		.thumb_func
 315              		.fpu fpv4-sp-d16
 317              	iot_power_on_ctrl:
 318              	.LFB319:
 138:Src/iot.c     **** 
 139:Src/iot.c     **** void iot_power_on_ctrl(void)
 140:Src/iot.c     **** {
 319              		.loc 1 140 1 is_stmt 1 view -0
 320              		.cfi_startproc
 321              		@ args = 0, pretend = 0, frame = 0
 322              		@ frame_needed = 0, uses_anonymous_args = 0
 323 0000 10B5     		push	{r4, lr}
 324              	.LCFI5:
 325              		.cfi_def_cfa_offset 8
 326              		.cfi_offset 4, -8
 327              		.cfi_offset 14, -4
 141:Src/iot.c     ****     IOT_POWER_EN;     /*ÁîµÊ∫ê‰ΩøËÉΩ*/
 328              		.loc 1 141 5 view .LVU54
 329 0002 0C4C     		ldr	r4, .L19
 330 0004 0022     		movs	r2, #0
 331 0006 4021     		movs	r1, #64
 332 0008 2046     		mov	r0, r4
 333 000a FFF7FEFF 		bl	HAL_GPIO_WritePin
 334              	.LVL15:
 142:Src/iot.c     ****     HAL_Delay(100);
 335              		.loc 1 142 5 view .LVU55
 336 000e 6420     		movs	r0, #100
 337 0010 FFF7FEFF 		bl	HAL_Delay
 338              	.LVL16:
 143:Src/iot.c     ****     IOT_ON_OFF_EN;     /*ÂºÄÊú∫*/
 339              		.loc 1 143 5 view .LVU56
 340 0014 0122     		movs	r2, #1
ARM GAS  C:\Users\LY\AppData\Local\Temp\cc36mcgd.s 			page 10


 341 0016 2021     		movs	r1, #32
 342 0018 2046     		mov	r0, r4
 343 001a FFF7FEFF 		bl	HAL_GPIO_WritePin
 344              	.LVL17:
 144:Src/iot.c     ****     HAL_Delay(1000);    /*on-offÁªô500ms-1.7sÈ´òÁîµÂπ≥ÔºåiotÂºÄÊú∫*/
 345              		.loc 1 144 5 view .LVU57
 346 001e 4FF47A70 		mov	r0, #1000
 347 0022 FFF7FEFF 		bl	HAL_Delay
 348              	.LVL18:
 145:Src/iot.c     ****     IOT_ON_OFF_DIS;
 349              		.loc 1 145 5 view .LVU58
 350 0026 0022     		movs	r2, #0
 351 0028 2021     		movs	r1, #32
 352 002a 2046     		mov	r0, r4
 353 002c FFF7FEFF 		bl	HAL_GPIO_WritePin
 354              	.LVL19:
 146:Src/iot.c     ****     //IOT_RESET_H;
 147:Src/iot.c     ****     //HAL_Delay(2);
 148:Src/iot.c     ****     //IOT_RESET_L;
 149:Src/iot.c     **** }
 355              		.loc 1 149 1 is_stmt 0 view .LVU59
 356 0030 10BD     		pop	{r4, pc}
 357              	.L20:
 358 0032 00BF     		.align	2
 359              	.L19:
 360 0034 00100048 		.word	1207963648
 361              		.cfi_endproc
 362              	.LFE319:
 364              		.section	.text.iot_power_off_ctrl,"ax",%progbits
 365              		.align	1
 366              		.global	iot_power_off_ctrl
 367              		.syntax unified
 368              		.thumb
 369              		.thumb_func
 370              		.fpu fpv4-sp-d16
 372              	iot_power_off_ctrl:
 373              	.LFB320:
 150:Src/iot.c     **** 
 151:Src/iot.c     **** void iot_power_off_ctrl(void)
 152:Src/iot.c     **** {
 374              		.loc 1 152 1 is_stmt 1 view -0
 375              		.cfi_startproc
 376              		@ args = 0, pretend = 0, frame = 0
 377              		@ frame_needed = 0, uses_anonymous_args = 0
 378 0000 10B5     		push	{r4, lr}
 379              	.LCFI6:
 380              		.cfi_def_cfa_offset 8
 381              		.cfi_offset 4, -8
 382              		.cfi_offset 14, -4
 153:Src/iot.c     **** 
 154:Src/iot.c     ****     IOT_ON_OFF_EN;     /*ÂºÄÊú∫*/
 383              		.loc 1 154 5 view .LVU61
 384 0002 0A4C     		ldr	r4, .L23
 385 0004 0122     		movs	r2, #1
 386 0006 2021     		movs	r1, #32
 387 0008 2046     		mov	r0, r4
 388 000a FFF7FEFF 		bl	HAL_GPIO_WritePin
ARM GAS  C:\Users\LY\AppData\Local\Temp\cc36mcgd.s 			page 11


 389              	.LVL20:
 155:Src/iot.c     ****     HAL_Delay(5000);
 390              		.loc 1 155 5 view .LVU62
 391 000e 41F28830 		movw	r0, #5000
 392 0012 FFF7FEFF 		bl	HAL_Delay
 393              	.LVL21:
 156:Src/iot.c     ****     IOT_ON_OFF_DIS;
 394              		.loc 1 156 5 view .LVU63
 395 0016 0022     		movs	r2, #0
 396 0018 2021     		movs	r1, #32
 397 001a 2046     		mov	r0, r4
 398 001c FFF7FEFF 		bl	HAL_GPIO_WritePin
 399              	.LVL22:
 157:Src/iot.c     ****     //IOT_RESET_H;
 158:Src/iot.c     ****     IOT_POWER_DIS;     /*ÁîµÊ∫ê‰ΩøËÉΩ*/
 400              		.loc 1 158 5 view .LVU64
 401 0020 0122     		movs	r2, #1
 402 0022 4021     		movs	r1, #64
 403 0024 2046     		mov	r0, r4
 404 0026 FFF7FEFF 		bl	HAL_GPIO_WritePin
 405              	.LVL23:
 159:Src/iot.c     **** }
 406              		.loc 1 159 1 is_stmt 0 view .LVU65
 407 002a 10BD     		pop	{r4, pc}
 408              	.L24:
 409              		.align	2
 410              	.L23:
 411 002c 00100048 		.word	1207963648
 412              		.cfi_endproc
 413              	.LFE320:
 415              		.section	.rodata.nb_http_set_param.str1.4,"aMS",%progbits,1
 416              		.align	2
 417              	.LC6:
 418 0000 73656E64 		.ascii	"send at cmd!\015\000"
 418      20617420 
 418      636D6421 
 418      0D00
 419 000e 0000     		.align	2
 420              	.LC7:
 421 0010 696F7420 		.ascii	"iot uart error!\015\000"
 421      75617274 
 421      20657272 
 421      6F72210D 
 421      00
 422 0021 000000   		.align	2
 423              	.LC8:
 424 0024 696F7420 		.ascii	"iot no sim card!\015\000"
 424      6E6F2073 
 424      696D2063 
 424      61726421 
 424      0D00
 425 0036 0000     		.align	2
 426              	.LC9:
 427 0038 696F7420 		.ascii	"iot not attached!\015\000"
 427      6E6F7420 
 427      61747461 
 427      63686564 
ARM GAS  C:\Users\LY\AppData\Local\Temp\cc36mcgd.s 			page 12


 427      210D00
 428 004b 00       		.align	2
 429              	.LC10:
 430 004c 41542B4D 		.ascii	"AT+MIPCALL=1,\"%s\"\015\000"
 430      49504341 
 430      4C4C3D31 
 430      2C222573 
 430      220D00
 431 005f 00       		.align	2
 432              	.LC11:
 433 0060 41542B4D 		.ascii	"AT+MIPCALL=1\015\000"
 433      49504341 
 433      4C4C3D31 
 433      0D00
 434 006e 0000     		.align	2
 435              	.LC12:
 436 0070 494F5420 		.ascii	"IOT SET CREAT CLIENT FAILED!\015\000"
 436      53455420 
 436      43524541 
 436      5420434C 
 436      49454E54 
 437 008e 0000     		.align	2
 438              	.LC13:
 439 0090 25732564 		.ascii	"%s%d\000"
 439      00
 440 0095 000000   		.align	2
 441              	.LC14:
 442 0098 41542B48 		.ascii	"AT+HTTPSET=\"URL\",\"http://118.31.125.61:8167/btse"
 442      54545053 
 442      45543D22 
 442      55524C22 
 442      2C226874 
 443 00c8 72766572 		.ascii	"rver/bt/?PW=zhilai&TC=1104&SI=\000"
 443      2F62742F 
 443      3F50573D 
 443      7A68696C 
 443      61692654 
 444 00e7 00       		.align	2
 445              	.LC15:
 446 00e8 25732573 		.ascii	"%s%s%s%s\"\015\000"
 446      25732573 
 446      220D00
 447 00f3 00       		.align	2
 448              	.LC16:
 449 00f4 25730D0A 		.ascii	"%s\015\012\000"
 449      00
 450 00f9 000000   		.align	2
 451              	.LC17:
 452 00fc 494F5420 		.ascii	"IOT HTTPCLIENT GET FAILED!\015\000"
 452      48545450 
 452      434C4945 
 452      4E542047 
 452      45542046 
 453              		.align	2
 454              	.LC18:
 455 0118 41542B48 		.ascii	"AT+HTTPREAD\015\000"
 455      54545052 
ARM GAS  C:\Users\LY\AppData\Local\Temp\cc36mcgd.s 			page 13


 455      4541440D 
 455      00
 456              		.section	.text.nb_http_set_param,"ax",%progbits
 457              		.align	1
 458              		.global	nb_http_set_param
 459              		.syntax unified
 460              		.thumb
 461              		.thumb_func
 462              		.fpu fpv4-sp-d16
 464              	nb_http_set_param:
 465              	.LFB321:
 160:Src/iot.c     **** 
 161:Src/iot.c     **** /**/
 162:Src/iot.c     **** 
 163:Src/iot.c     **** void nb_http_set_param(void)
 164:Src/iot.c     **** {
 466              		.loc 1 164 1 is_stmt 1 view -0
 467              		.cfi_startproc
 468              		@ args = 0, pretend = 0, frame = 56
 469              		@ frame_needed = 0, uses_anonymous_args = 0
 470 0000 30B5     		push	{r4, r5, lr}
 471              	.LCFI7:
 472              		.cfi_def_cfa_offset 12
 473              		.cfi_offset 4, -12
 474              		.cfi_offset 5, -8
 475              		.cfi_offset 14, -4
 476 0002 91B0     		sub	sp, sp, #68
 477              	.LCFI8:
 478              		.cfi_def_cfa_offset 80
 165:Src/iot.c     ****     switch(g_nb_ctrl_step)
 479              		.loc 1 165 5 view .LVU67
 480 0004 AB4B     		ldr	r3, .L48
 481 0006 1B78     		ldrb	r3, [r3]	@ zero_extendqisi2
 482 0008 013B     		subs	r3, r3, #1
 483 000a 0E2B     		cmp	r3, #14
 484 000c 00F24D81 		bhi	.L25
 485 0010 DFE813F0 		tbh	[pc, r3, lsl #1]
 486              	.L28:
 487 0014 0F00     		.2byte	(.L34-.L28)/2
 488 0016 4700     		.2byte	(.L33-.L28)/2
 489 0018 7900     		.2byte	(.L32-.L28)/2
 490 001a 7900     		.2byte	(.L32-.L28)/2
 491 001c AF00     		.2byte	(.L31-.L28)/2
 492 001e 4B01     		.2byte	(.L25-.L28)/2
 493 0020 4B01     		.2byte	(.L25-.L28)/2
 494 0022 4B01     		.2byte	(.L25-.L28)/2
 495 0024 4B01     		.2byte	(.L25-.L28)/2
 496 0026 4B01     		.2byte	(.L25-.L28)/2
 497 0028 4B01     		.2byte	(.L25-.L28)/2
 498 002a 4B01     		.2byte	(.L25-.L28)/2
 499 002c F700     		.2byte	(.L30-.L28)/2
 500 002e B601     		.2byte	(.L29-.L28)/2
 501 0030 F001     		.2byte	(.L27-.L28)/2
 502              		.p2align 1
 503              	.L34:
 166:Src/iot.c     ****     {
 167:Src/iot.c     ****         case IOT_TEST_UART:
ARM GAS  C:\Users\LY\AppData\Local\Temp\cc36mcgd.s 			page 14


 168:Src/iot.c     ****         {
 169:Src/iot.c     ****             g_nb_send_cmd_cnt++;
 504              		.loc 1 169 13 view .LVU68
 505              		.loc 1 169 30 is_stmt 0 view .LVU69
 506 0032 A14A     		ldr	r2, .L48+4
 507 0034 1378     		ldrb	r3, [r2]	@ zero_extendqisi2
 508 0036 0133     		adds	r3, r3, #1
 509 0038 DBB2     		uxtb	r3, r3
 510 003a 1370     		strb	r3, [r2]
 170:Src/iot.c     ****             if(g_nb_send_cmd_cnt <= IOT_SEND_CMD_TIME)     /*ÈáçÂ§çÂèë5Ê¨°ÔºåÊØèÊ¨°Èó¥Èöî5SÈÉΩÊ≤°Êî
 511              		.loc 1 170 13 is_stmt 1 view .LVU70
 512              		.loc 1 170 15 is_stmt 0 view .LVU71
 513 003c 052B     		cmp	r3, #5
 514 003e 18D8     		bhi	.L35
 171:Src/iot.c     ****             {
 172:Src/iot.c     ****                 HAL_UART_Transmit(&huart5, ar_nb_uart_connect, strlen(ar_nb_uart_connect), 1000);
 515              		.loc 1 172 17 is_stmt 1 view .LVU72
 516 0040 4FF47A73 		mov	r3, #1000
 517 0044 0322     		movs	r2, #3
 518 0046 9D49     		ldr	r1, .L48+8
 519 0048 9D48     		ldr	r0, .L48+12
 520 004a FFF7FEFF 		bl	HAL_UART_Transmit
 521              	.LVL24:
 173:Src/iot.c     ****                 HAL_Delay(1000);
 522              		.loc 1 173 17 view .LVU73
 523 004e 4FF47A70 		mov	r0, #1000
 524 0052 FFF7FEFF 		bl	HAL_Delay
 525              	.LVL25:
 174:Src/iot.c     ****                 #if 0
 175:Src/iot.c     ****                 HAL_UART_Transmit(&huart5, ar_nb_cpin, strlen(ar_nb_cpin), 1000);
 176:Src/iot.c     ****                 HAL_Delay(1000);
 177:Src/iot.c     ****                 HAL_UART_Transmit(&huart5, "AT+CGREG?\r", strlen("AT+CGREG?\r"), 1000);
 178:Src/iot.c     ****                 HAL_Delay(1000);
 179:Src/iot.c     ****                 HAL_UART_Transmit(&huart5, "AT+CEREG?\r", strlen("AT+CEREG?\r"), 1000);
 180:Src/iot.c     ****                 HAL_Delay(1000);
 181:Src/iot.c     ****                 HAL_UART_Transmit(&huart5, "AT+COPS?\r", strlen("AT+COPS?\r"), 1000);
 182:Src/iot.c     ****                 HAL_Delay(1000);
 183:Src/iot.c     ****                 HAL_UART_Transmit(&huart5, "AT+CESQ\r", strlen("AT+CESQ\r"), 1000);
 184:Src/iot.c     ****                 HAL_Delay(1000);
 185:Src/iot.c     ****                 HAL_UART_Transmit(&huart5, "AT+CREG?\r", strlen("AT+CREG?\r"), 1000);
 186:Src/iot.c     ****                 HAL_Delay(1000);
 187:Src/iot.c     ****                 #endif
 188:Src/iot.c     ****                 g_nb_ctrl_step = V_ZERO;
 526              		.loc 1 188 17 view .LVU74
 527              		.loc 1 188 32 is_stmt 0 view .LVU75
 528 0056 0023     		movs	r3, #0
 529 0058 964A     		ldr	r2, .L48
 530 005a 1370     		strb	r3, [r2]
 189:Src/iot.c     ****                 g_nb_send_cmd_star_time = V_ONE;
 531              		.loc 1 189 17 is_stmt 1 view .LVU76
 532              		.loc 1 189 41 is_stmt 0 view .LVU77
 533 005c 0122     		movs	r2, #1
 534 005e 9949     		ldr	r1, .L48+16
 535 0060 0A70     		strb	r2, [r1]
 190:Src/iot.c     ****                 //g_nb_send_cmd_cnt = V_ZERO;
 191:Src/iot.c     ****                 g_nb_curren_step = IOT_TEST_UART;
 536              		.loc 1 191 17 is_stmt 1 view .LVU78
ARM GAS  C:\Users\LY\AppData\Local\Temp\cc36mcgd.s 			page 15


 537              		.loc 1 191 34 is_stmt 0 view .LVU79
 538 0062 9949     		ldr	r1, .L48+20
 539 0064 0A70     		strb	r2, [r1]
 192:Src/iot.c     ****                 g_nb_send_cmd_overtime = V_ZERO;//IOT_SEND_CMD_OVERTIME;/*Ë∂ÖÊó∂5s*/
 540              		.loc 1 192 17 is_stmt 1 view .LVU80
 541              		.loc 1 192 40 is_stmt 0 view .LVU81
 542 0066 994A     		ldr	r2, .L48+24
 543 0068 1380     		strh	r3, [r2]	@ movhi
 193:Src/iot.c     ****                 printf("send at cmd!\r\n");
 544              		.loc 1 193 17 is_stmt 1 view .LVU82
 545 006a 9948     		ldr	r0, .L48+28
 546 006c FFF7FEFF 		bl	puts
 547              	.LVL26:
 548 0070 1BE1     		b	.L25
 549              	.L35:
 194:Src/iot.c     ****             }
 195:Src/iot.c     ****             else
 196:Src/iot.c     ****             {
 197:Src/iot.c     ****                 g_start_http_flag = V_ONE;
 550              		.loc 1 197 17 view .LVU83
 551              		.loc 1 197 35 is_stmt 0 view .LVU84
 552 0072 984B     		ldr	r3, .L48+32
 553 0074 0122     		movs	r2, #1
 554 0076 1A70     		strb	r2, [r3]
 198:Src/iot.c     ****                 g_iot_power_on_cnt++;
 555              		.loc 1 198 17 is_stmt 1 view .LVU85
 556              		.loc 1 198 35 is_stmt 0 view .LVU86
 557 0078 974A     		ldr	r2, .L48+36
 558 007a 1378     		ldrb	r3, [r2]	@ zero_extendqisi2
 559 007c 0133     		adds	r3, r3, #1
 560 007e 1370     		strb	r3, [r2]
 199:Src/iot.c     ****                 g_nb_ctrl_step = V_ZERO;
 561              		.loc 1 199 17 is_stmt 1 view .LVU87
 562              		.loc 1 199 32 is_stmt 0 view .LVU88
 563 0080 0023     		movs	r3, #0
 564 0082 8C4A     		ldr	r2, .L48
 565 0084 1370     		strb	r3, [r2]
 200:Src/iot.c     ****                 g_nb_send_cmd_star_time = V_ZERO;
 566              		.loc 1 200 17 is_stmt 1 view .LVU89
 567              		.loc 1 200 41 is_stmt 0 view .LVU90
 568 0086 8F4A     		ldr	r2, .L48+16
 569 0088 1370     		strb	r3, [r2]
 201:Src/iot.c     ****                 g_nb_send_cmd_cnt = V_ZERO;
 570              		.loc 1 201 17 is_stmt 1 view .LVU91
 571              		.loc 1 201 35 is_stmt 0 view .LVU92
 572 008a 8B4A     		ldr	r2, .L48+4
 573 008c 1370     		strb	r3, [r2]
 202:Src/iot.c     ****                 g_nb_curren_step = V_ZERO;
 574              		.loc 1 202 17 is_stmt 1 view .LVU93
 575              		.loc 1 202 34 is_stmt 0 view .LVU94
 576 008e 8E4A     		ldr	r2, .L48+20
 577 0090 1370     		strb	r3, [r2]
 203:Src/iot.c     ****                 g_nb_send_cmd_overtime = V_ZERO;
 578              		.loc 1 203 17 is_stmt 1 view .LVU95
 579              		.loc 1 203 40 is_stmt 0 view .LVU96
 580 0092 8E4A     		ldr	r2, .L48+24
 581 0094 1380     		strh	r3, [r2]	@ movhi
ARM GAS  C:\Users\LY\AppData\Local\Temp\cc36mcgd.s 			page 16


 204:Src/iot.c     ****                 iot_power_off_ctrl();
 582              		.loc 1 204 17 is_stmt 1 view .LVU97
 583 0096 FFF7FEFF 		bl	iot_power_off_ctrl
 584              	.LVL27:
 205:Src/iot.c     ****                 printf("iot uart error!\r\n");
 585              		.loc 1 205 17 view .LVU98
 586 009a 9048     		ldr	r0, .L48+40
 587 009c FFF7FEFF 		bl	puts
 588              	.LVL28:
 589 00a0 03E1     		b	.L25
 590              	.L33:
 206:Src/iot.c     ****             }
 207:Src/iot.c     **** 
 208:Src/iot.c     ****             break;
 209:Src/iot.c     ****         }
 210:Src/iot.c     ****         case IOT_TEST_SIM:
 211:Src/iot.c     ****         {
 212:Src/iot.c     ****             g_nb_send_cmd_cnt++;
 591              		.loc 1 212 13 view .LVU99
 592              		.loc 1 212 30 is_stmt 0 view .LVU100
 593 00a2 854A     		ldr	r2, .L48+4
 594 00a4 1378     		ldrb	r3, [r2]	@ zero_extendqisi2
 595 00a6 0133     		adds	r3, r3, #1
 596 00a8 DBB2     		uxtb	r3, r3
 597 00aa 1370     		strb	r3, [r2]
 213:Src/iot.c     ****             if(g_nb_send_cmd_cnt <= IOT_SEND_CMD_TIME)     /*ÈáçÂ§çÂèë10Ê¨°ÔºåÊØèÊ¨°Èó¥Èöî5SÈÉΩÊ≤°Ê
 598              		.loc 1 213 13 is_stmt 1 view .LVU101
 599              		.loc 1 213 15 is_stmt 0 view .LVU102
 600 00ac 052B     		cmp	r3, #5
 601 00ae 12D8     		bhi	.L36
 214:Src/iot.c     ****             {
 215:Src/iot.c     ****                 HAL_UART_Transmit(&huart5, ar_nb_cpin, strlen(ar_nb_cpin), 1000);
 602              		.loc 1 215 17 is_stmt 1 view .LVU103
 603 00b0 4FF47A73 		mov	r3, #1000
 604 00b4 0922     		movs	r2, #9
 605 00b6 8A49     		ldr	r1, .L48+44
 606 00b8 8148     		ldr	r0, .L48+12
 607 00ba FFF7FEFF 		bl	HAL_UART_Transmit
 608              	.LVL29:
 216:Src/iot.c     ****                 g_nb_ctrl_step = V_ZERO;
 609              		.loc 1 216 17 view .LVU104
 610              		.loc 1 216 32 is_stmt 0 view .LVU105
 611 00be 0023     		movs	r3, #0
 612 00c0 7C4A     		ldr	r2, .L48
 613 00c2 1370     		strb	r3, [r2]
 217:Src/iot.c     ****                 g_nb_send_cmd_star_time = V_ONE;
 614              		.loc 1 217 17 is_stmt 1 view .LVU106
 615              		.loc 1 217 41 is_stmt 0 view .LVU107
 616 00c4 7F4A     		ldr	r2, .L48+16
 617 00c6 0121     		movs	r1, #1
 618 00c8 1170     		strb	r1, [r2]
 218:Src/iot.c     ****                 //g_nb_send_cmd_cnt = V_ZERO;
 219:Src/iot.c     ****                 g_nb_curren_step = IOT_TEST_SIM;
 619              		.loc 1 219 17 is_stmt 1 view .LVU108
 620              		.loc 1 219 34 is_stmt 0 view .LVU109
 621 00ca 7F4A     		ldr	r2, .L48+20
 622 00cc 0221     		movs	r1, #2
ARM GAS  C:\Users\LY\AppData\Local\Temp\cc36mcgd.s 			page 17


 623 00ce 1170     		strb	r1, [r2]
 220:Src/iot.c     ****                 g_nb_send_cmd_overtime = V_ZERO;//IOT_SEND_CMD_OVERTIME;/*Ë∂ÖÊó∂5s*/
 624              		.loc 1 220 17 is_stmt 1 view .LVU110
 625              		.loc 1 220 40 is_stmt 0 view .LVU111
 626 00d0 7E4A     		ldr	r2, .L48+24
 627 00d2 1380     		strh	r3, [r2]	@ movhi
 628 00d4 E9E0     		b	.L25
 629              	.L36:
 221:Src/iot.c     ****             }
 222:Src/iot.c     ****             else
 223:Src/iot.c     ****             {
 224:Src/iot.c     ****                 g_start_http_flag = V_ONE;
 630              		.loc 1 224 17 is_stmt 1 view .LVU112
 631              		.loc 1 224 35 is_stmt 0 view .LVU113
 632 00d6 7F4B     		ldr	r3, .L48+32
 633 00d8 0122     		movs	r2, #1
 634 00da 1A70     		strb	r2, [r3]
 225:Src/iot.c     ****                 g_iot_power_on_cnt++;
 635              		.loc 1 225 17 is_stmt 1 view .LVU114
 636              		.loc 1 225 35 is_stmt 0 view .LVU115
 637 00dc 7E4A     		ldr	r2, .L48+36
 638 00de 1378     		ldrb	r3, [r2]	@ zero_extendqisi2
 639 00e0 0133     		adds	r3, r3, #1
 640 00e2 1370     		strb	r3, [r2]
 226:Src/iot.c     ****                 g_nb_ctrl_step = V_ZERO;
 641              		.loc 1 226 17 is_stmt 1 view .LVU116
 642              		.loc 1 226 32 is_stmt 0 view .LVU117
 643 00e4 0023     		movs	r3, #0
 644 00e6 734A     		ldr	r2, .L48
 645 00e8 1370     		strb	r3, [r2]
 227:Src/iot.c     ****                 g_nb_send_cmd_star_time = V_ZERO;
 646              		.loc 1 227 17 is_stmt 1 view .LVU118
 647              		.loc 1 227 41 is_stmt 0 view .LVU119
 648 00ea 764A     		ldr	r2, .L48+16
 649 00ec 1370     		strb	r3, [r2]
 228:Src/iot.c     ****                 g_nb_send_cmd_cnt = V_ZERO;
 650              		.loc 1 228 17 is_stmt 1 view .LVU120
 651              		.loc 1 228 35 is_stmt 0 view .LVU121
 652 00ee 724A     		ldr	r2, .L48+4
 653 00f0 1370     		strb	r3, [r2]
 229:Src/iot.c     ****                 g_nb_curren_step = V_ZERO;
 654              		.loc 1 229 17 is_stmt 1 view .LVU122
 655              		.loc 1 229 34 is_stmt 0 view .LVU123
 656 00f2 754A     		ldr	r2, .L48+20
 657 00f4 1370     		strb	r3, [r2]
 230:Src/iot.c     ****                 g_nb_send_cmd_overtime = V_ZERO;
 658              		.loc 1 230 17 is_stmt 1 view .LVU124
 659              		.loc 1 230 40 is_stmt 0 view .LVU125
 660 00f6 754A     		ldr	r2, .L48+24
 661 00f8 1380     		strh	r3, [r2]	@ movhi
 231:Src/iot.c     ****                 iot_power_off_ctrl();
 662              		.loc 1 231 17 is_stmt 1 view .LVU126
 663 00fa FFF7FEFF 		bl	iot_power_off_ctrl
 664              	.LVL30:
 232:Src/iot.c     ****                 printf("iot no sim card!\r\n");
 665              		.loc 1 232 17 view .LVU127
 666 00fe 7948     		ldr	r0, .L48+48
ARM GAS  C:\Users\LY\AppData\Local\Temp\cc36mcgd.s 			page 18


 667 0100 FFF7FEFF 		bl	puts
 668              	.LVL31:
 669 0104 D1E0     		b	.L25
 670              	.L32:
 233:Src/iot.c     ****             }
 234:Src/iot.c     ****             break;
 235:Src/iot.c     ****         }
 236:Src/iot.c     ****         case IOT_QUERY_RSSI:
 237:Src/iot.c     ****         {
 238:Src/iot.c     ****             /*Âπ≤ÊéâÔºåÁõ¥Êé•Êü•ËØ¢ÂèØÁî®ÁΩëÁªú*/
 239:Src/iot.c     ****             // g_nb_send_cmd_cnt++;
 240:Src/iot.c     ****             // if(g_nb_send_cmd_cnt <= IOT_SEND_QUERY_NET_TIME)     /*ÈáçÂ§çÂèë10Ê¨°ÔºåÊØèÊ¨°Èó¥Èöî
 241:Src/iot.c     ****             // {
 242:Src/iot.c     ****             //     HAL_UART_Transmit(&huart5, ar_nb_csq, strlen(ar_nb_csq), 1000);
 243:Src/iot.c     ****             //     HAL_Delay(1000);
 244:Src/iot.c     ****             //     g_nb_ctrl_step = V_ZERO;
 245:Src/iot.c     ****             //     g_nb_send_cmd_star_time = V_ONE;
 246:Src/iot.c     ****             //     //g_nb_send_cmd_cnt = V_ZERO;
 247:Src/iot.c     ****             //     g_nb_curren_step = IOT_QUERY_RSSI;
 248:Src/iot.c     ****             //     g_nb_send_cmd_overtime = V_ZERO;//IOT_SEND_CMD_OVERTIME;/*Ë∂ÖÊó∂5s*/
 249:Src/iot.c     ****             // }
 250:Src/iot.c     ****             // else
 251:Src/iot.c     ****             // {
 252:Src/iot.c     ****             //     g_start_http_flag = V_ONE;
 253:Src/iot.c     ****             //     g_iot_power_on_cnt++;
 254:Src/iot.c     ****             //     g_nb_ctrl_step = V_ZERO;
 255:Src/iot.c     ****             //     g_nb_send_cmd_star_time = V_ZERO;
 256:Src/iot.c     ****             //     g_nb_send_cmd_cnt = V_ZERO;
 257:Src/iot.c     ****             //     g_nb_curren_step = V_ZERO;
 258:Src/iot.c     ****             //     g_nb_send_cmd_overtime = V_ZERO;
 259:Src/iot.c     ****             //     iot_power_off_ctrl();
 260:Src/iot.c     ****             //     printf("iot no rssi!\r\n");
 261:Src/iot.c     ****             // }
 262:Src/iot.c     ****             // break;
 263:Src/iot.c     ****         }
 671              		.loc 1 263 9 view .LVU128
 264:Src/iot.c     ****         case IOT_QUERY_NET:
 265:Src/iot.c     ****         {
 266:Src/iot.c     ****             g_nb_send_cmd_cnt++;
 672              		.loc 1 266 13 view .LVU129
 673              		.loc 1 266 30 is_stmt 0 view .LVU130
 674 0106 6C4A     		ldr	r2, .L48+4
 675 0108 1378     		ldrb	r3, [r2]	@ zero_extendqisi2
 676 010a 0133     		adds	r3, r3, #1
 677 010c DBB2     		uxtb	r3, r3
 678 010e 1370     		strb	r3, [r2]
 267:Src/iot.c     ****             if(g_nb_send_cmd_cnt <= IOT_SEND_QUERY_NET_TIME)     /*ÈáçÂ§çÂèë10Ê¨°ÔºåÊØèÊ¨°Èó¥Èöî5SÈ
 679              		.loc 1 267 13 is_stmt 1 view .LVU131
 680              		.loc 1 267 15 is_stmt 0 view .LVU132
 681 0110 0A2B     		cmp	r3, #10
 682 0112 16D8     		bhi	.L37
 268:Src/iot.c     ****             {
 269:Src/iot.c     ****                 HAL_UART_Transmit(&huart5, ar_nb_cops, strlen(ar_nb_cops), 1000);
 683              		.loc 1 269 17 is_stmt 1 view .LVU133
 684 0114 4FF47A73 		mov	r3, #1000
 685 0118 0922     		movs	r2, #9
 686 011a 7349     		ldr	r1, .L48+52
ARM GAS  C:\Users\LY\AppData\Local\Temp\cc36mcgd.s 			page 19


 687 011c 6848     		ldr	r0, .L48+12
 688 011e FFF7FEFF 		bl	HAL_UART_Transmit
 689              	.LVL32:
 270:Src/iot.c     ****                 g_nb_ctrl_step = V_ZERO;
 690              		.loc 1 270 17 view .LVU134
 691              		.loc 1 270 32 is_stmt 0 view .LVU135
 692 0122 0023     		movs	r3, #0
 693 0124 634A     		ldr	r2, .L48
 694 0126 1370     		strb	r3, [r2]
 271:Src/iot.c     ****                 g_nb_send_cmd_star_time = V_ONE;
 695              		.loc 1 271 17 is_stmt 1 view .LVU136
 696              		.loc 1 271 41 is_stmt 0 view .LVU137
 697 0128 664A     		ldr	r2, .L48+16
 698 012a 0121     		movs	r1, #1
 699 012c 1170     		strb	r1, [r2]
 272:Src/iot.c     ****                 //g_nb_send_cmd_cnt = V_ZERO;
 273:Src/iot.c     ****                 g_nb_curren_step = IOT_QUERY_NET;
 700              		.loc 1 273 17 is_stmt 1 view .LVU138
 701              		.loc 1 273 34 is_stmt 0 view .LVU139
 702 012e 664A     		ldr	r2, .L48+20
 703 0130 0421     		movs	r1, #4
 704 0132 1170     		strb	r1, [r2]
 274:Src/iot.c     ****                 g_nb_send_cmd_overtime = V_ZERO;//IOT_SEND_CMD_OVERTIME;/*Ë∂ÖÊó∂5s*/
 705              		.loc 1 274 17 is_stmt 1 view .LVU140
 706              		.loc 1 274 40 is_stmt 0 view .LVU141
 707 0134 654A     		ldr	r2, .L48+24
 708 0136 1380     		strh	r3, [r2]	@ movhi
 275:Src/iot.c     ****                 HAL_Delay(5000);
 709              		.loc 1 275 17 is_stmt 1 view .LVU142
 710 0138 41F28830 		movw	r0, #5000
 711 013c FFF7FEFF 		bl	HAL_Delay
 712              	.LVL33:
 713 0140 B3E0     		b	.L25
 714              	.L37:
 276:Src/iot.c     ****             }
 277:Src/iot.c     ****             else
 278:Src/iot.c     ****             {
 279:Src/iot.c     ****                 g_start_http_flag = V_ONE;
 715              		.loc 1 279 17 view .LVU143
 716              		.loc 1 279 35 is_stmt 0 view .LVU144
 717 0142 644B     		ldr	r3, .L48+32
 718 0144 0122     		movs	r2, #1
 719 0146 1A70     		strb	r2, [r3]
 280:Src/iot.c     ****                 g_iot_power_on_cnt++;
 720              		.loc 1 280 17 is_stmt 1 view .LVU145
 721              		.loc 1 280 35 is_stmt 0 view .LVU146
 722 0148 634A     		ldr	r2, .L48+36
 723 014a 1378     		ldrb	r3, [r2]	@ zero_extendqisi2
 724 014c 0133     		adds	r3, r3, #1
 725 014e 1370     		strb	r3, [r2]
 281:Src/iot.c     ****                 g_nb_ctrl_step = V_ZERO;
 726              		.loc 1 281 17 is_stmt 1 view .LVU147
 727              		.loc 1 281 32 is_stmt 0 view .LVU148
 728 0150 0023     		movs	r3, #0
 729 0152 584A     		ldr	r2, .L48
 730 0154 1370     		strb	r3, [r2]
 282:Src/iot.c     ****                 g_nb_send_cmd_star_time = V_ZERO;
ARM GAS  C:\Users\LY\AppData\Local\Temp\cc36mcgd.s 			page 20


 731              		.loc 1 282 17 is_stmt 1 view .LVU149
 732              		.loc 1 282 41 is_stmt 0 view .LVU150
 733 0156 5B4A     		ldr	r2, .L48+16
 734 0158 1370     		strb	r3, [r2]
 283:Src/iot.c     ****                 g_nb_send_cmd_cnt = V_ZERO;
 735              		.loc 1 283 17 is_stmt 1 view .LVU151
 736              		.loc 1 283 35 is_stmt 0 view .LVU152
 737 015a 574A     		ldr	r2, .L48+4
 738 015c 1370     		strb	r3, [r2]
 284:Src/iot.c     ****                 g_nb_curren_step = V_ZERO;
 739              		.loc 1 284 17 is_stmt 1 view .LVU153
 740              		.loc 1 284 34 is_stmt 0 view .LVU154
 741 015e 5A4A     		ldr	r2, .L48+20
 742 0160 1370     		strb	r3, [r2]
 285:Src/iot.c     ****                 g_nb_send_cmd_overtime = V_ZERO;
 743              		.loc 1 285 17 is_stmt 1 view .LVU155
 744              		.loc 1 285 40 is_stmt 0 view .LVU156
 745 0162 5A4A     		ldr	r2, .L48+24
 746 0164 1380     		strh	r3, [r2]	@ movhi
 286:Src/iot.c     ****                 iot_power_off_ctrl();
 747              		.loc 1 286 17 is_stmt 1 view .LVU157
 748 0166 FFF7FEFF 		bl	iot_power_off_ctrl
 749              	.LVL34:
 287:Src/iot.c     ****                 printf("iot not attached!\r\n");
 750              		.loc 1 287 17 view .LVU158
 751 016a 6048     		ldr	r0, .L48+56
 752 016c FFF7FEFF 		bl	puts
 753              	.LVL35:
 754 0170 9BE0     		b	.L25
 755              	.L31:
 288:Src/iot.c     ****             }
 289:Src/iot.c     ****             break;
 290:Src/iot.c     ****         }
 291:Src/iot.c     ****         case IOT_CONNETC_NET:
 292:Src/iot.c     ****         {
 293:Src/iot.c     ****             g_nb_send_cmd_cnt++;
 756              		.loc 1 293 13 view .LVU159
 757              		.loc 1 293 30 is_stmt 0 view .LVU160
 758 0172 514A     		ldr	r2, .L48+4
 759 0174 1378     		ldrb	r3, [r2]	@ zero_extendqisi2
 760 0176 0133     		adds	r3, r3, #1
 761 0178 DBB2     		uxtb	r3, r3
 762 017a 1370     		strb	r3, [r2]
 294:Src/iot.c     ****             if(g_nb_send_cmd_cnt <= IOT_SEND_CMD_TIME)     /*ÈáçÂ§çÂèë10Ê¨°ÔºåÊØèÊ¨°Èó¥Èöî5SÈÉΩÊ≤°Ê
 763              		.loc 1 294 13 is_stmt 1 view .LVU161
 764              		.loc 1 294 15 is_stmt 0 view .LVU162
 765 017c 052B     		cmp	r3, #5
 766 017e 28D8     		bhi	.L38
 767              	.LBB2:
 295:Src/iot.c     ****             {
 296:Src/iot.c     ****                 uint8_t ar_network_buf[50] = "0";
 768              		.loc 1 296 17 is_stmt 1 view .LVU163
 769              		.loc 1 296 25 is_stmt 0 view .LVU164
 770 0180 3023     		movs	r3, #48
 771 0182 0393     		str	r3, [sp, #12]
 772 0184 2E22     		movs	r2, #46
 773 0186 0021     		movs	r1, #0
ARM GAS  C:\Users\LY\AppData\Local\Temp\cc36mcgd.s 			page 21


 774 0188 04A8     		add	r0, sp, #16
 775 018a FFF7FEFF 		bl	memset
 776              	.LVL36:
 297:Src/iot.c     ****                 memcpy(ar_network_buf, ar_network, g_network_len);
 777              		.loc 1 297 17 is_stmt 1 view .LVU165
 778 018e 584B     		ldr	r3, .L48+60
 779 0190 1A78     		ldrb	r2, [r3]	@ zero_extendqisi2
 780 0192 5849     		ldr	r1, .L48+64
 781 0194 03A8     		add	r0, sp, #12
 782 0196 FFF7FEFF 		bl	memcpy
 783              	.LVL37:
 298:Src/iot.c     ****                 // printf("ar_network_buf:");
 299:Src/iot.c     ****                 // for (int i = 0; i < g_network_len; i++)
 300:Src/iot.c     ****                 // {
 301:Src/iot.c     ****                 //     printf("%c",ar_network_buf[i]);
 302:Src/iot.c     ****                 // }
 303:Src/iot.c     ****                 // printf("\n");
 304:Src/iot.c     ****                 
 305:Src/iot.c     ****                 sprintf(ar_nb_connnect_china_mobile, "AT+MIPCALL=1,\"%s\"\r", ar_network_buf);
 784              		.loc 1 305 17 view .LVU166
 785 019a 03AA     		add	r2, sp, #12
 786 019c 5649     		ldr	r1, .L48+68
 787 019e 5748     		ldr	r0, .L48+72
 788 01a0 FFF7FEFF 		bl	sprintf
 789              	.LVL38:
 306:Src/iot.c     ****                 // printf("ar_nb_connnect_china_mobile:");
 307:Src/iot.c     ****                 // for (int i = 0; i < strlen(ar_nb_connnect_china_mobile); i++)
 308:Src/iot.c     ****                 // {
 309:Src/iot.c     ****                 //     printf("%c",ar_nb_connnect_china_mobile[i]);
 310:Src/iot.c     ****                 // }
 311:Src/iot.c     ****                 // printf("\n");
 312:Src/iot.c     ****                 
 313:Src/iot.c     ****                 //HAL_UART_Transmit(&huart5, ar_nb_connnect_china_mobile, strlen(ar_nb_connnect_chi
 314:Src/iot.c     ****                 HAL_UART_Transmit(&huart5, "AT+MIPCALL=1\r", strlen("AT+MIPCALL=1\r"), 1000);
 790              		.loc 1 314 17 view .LVU167
 791 01a4 4FF47A73 		mov	r3, #1000
 792 01a8 0D22     		movs	r2, #13
 793 01aa 5549     		ldr	r1, .L48+76
 794 01ac 4448     		ldr	r0, .L48+12
 795 01ae FFF7FEFF 		bl	HAL_UART_Transmit
 796              	.LVL39:
 315:Src/iot.c     ****                 g_nb_ctrl_step = V_ZERO;
 797              		.loc 1 315 17 view .LVU168
 798              		.loc 1 315 32 is_stmt 0 view .LVU169
 799 01b2 0023     		movs	r3, #0
 800 01b4 3F4A     		ldr	r2, .L48
 801 01b6 1370     		strb	r3, [r2]
 316:Src/iot.c     ****                 g_nb_send_cmd_star_time = V_ONE;
 802              		.loc 1 316 17 is_stmt 1 view .LVU170
 803              		.loc 1 316 41 is_stmt 0 view .LVU171
 804 01b8 424A     		ldr	r2, .L48+16
 805 01ba 0121     		movs	r1, #1
 806 01bc 1170     		strb	r1, [r2]
 317:Src/iot.c     ****                 //g_nb_send_cmd_cnt = V_ZERO;
 318:Src/iot.c     ****                 g_nb_curren_step = IOT_CONNETC_NET;
 807              		.loc 1 318 17 is_stmt 1 view .LVU172
 808              		.loc 1 318 34 is_stmt 0 view .LVU173
ARM GAS  C:\Users\LY\AppData\Local\Temp\cc36mcgd.s 			page 22


 809 01be 424A     		ldr	r2, .L48+20
 810 01c0 0521     		movs	r1, #5
 811 01c2 1170     		strb	r1, [r2]
 319:Src/iot.c     ****                 g_nb_send_cmd_overtime = V_ZERO;//IOT_SEND_CMD_OVERTIME;/*Ë∂ÖÊó∂5s*/
 812              		.loc 1 319 17 is_stmt 1 view .LVU174
 813              		.loc 1 319 40 is_stmt 0 view .LVU175
 814 01c4 414A     		ldr	r2, .L48+24
 815 01c6 1380     		strh	r3, [r2]	@ movhi
 320:Src/iot.c     ****                 HAL_Delay(3000);
 816              		.loc 1 320 17 is_stmt 1 view .LVU176
 817 01c8 40F6B830 		movw	r0, #3000
 818 01cc FFF7FEFF 		bl	HAL_Delay
 819              	.LVL40:
 820              	.LBE2:
 821 01d0 6BE0     		b	.L25
 822              	.L38:
 321:Src/iot.c     ****             }
 322:Src/iot.c     ****             else
 323:Src/iot.c     ****             {
 324:Src/iot.c     ****                 g_start_http_flag = V_ONE;
 823              		.loc 1 324 17 view .LVU177
 824              		.loc 1 324 35 is_stmt 0 view .LVU178
 825 01d2 404B     		ldr	r3, .L48+32
 826 01d4 0122     		movs	r2, #1
 827 01d6 1A70     		strb	r2, [r3]
 325:Src/iot.c     ****                 g_iot_power_on_cnt++;
 828              		.loc 1 325 17 is_stmt 1 view .LVU179
 829              		.loc 1 325 35 is_stmt 0 view .LVU180
 830 01d8 3F4A     		ldr	r2, .L48+36
 831 01da 1378     		ldrb	r3, [r2]	@ zero_extendqisi2
 832 01dc 0133     		adds	r3, r3, #1
 833 01de 1370     		strb	r3, [r2]
 326:Src/iot.c     ****                 g_nb_ctrl_step = V_ZERO;
 834              		.loc 1 326 17 is_stmt 1 view .LVU181
 835              		.loc 1 326 32 is_stmt 0 view .LVU182
 836 01e0 0023     		movs	r3, #0
 837 01e2 344A     		ldr	r2, .L48
 838 01e4 1370     		strb	r3, [r2]
 327:Src/iot.c     ****                 g_nb_send_cmd_star_time = V_ZERO;
 839              		.loc 1 327 17 is_stmt 1 view .LVU183
 840              		.loc 1 327 41 is_stmt 0 view .LVU184
 841 01e6 374A     		ldr	r2, .L48+16
 842 01e8 1370     		strb	r3, [r2]
 328:Src/iot.c     ****                 g_nb_send_cmd_cnt = V_ZERO;
 843              		.loc 1 328 17 is_stmt 1 view .LVU185
 844              		.loc 1 328 35 is_stmt 0 view .LVU186
 845 01ea 334A     		ldr	r2, .L48+4
 846 01ec 1370     		strb	r3, [r2]
 329:Src/iot.c     ****                 g_nb_curren_step = V_ZERO;
 847              		.loc 1 329 17 is_stmt 1 view .LVU187
 848              		.loc 1 329 34 is_stmt 0 view .LVU188
 849 01ee 364A     		ldr	r2, .L48+20
 850 01f0 1370     		strb	r3, [r2]
 330:Src/iot.c     ****                 g_nb_send_cmd_overtime = V_ZERO;
 851              		.loc 1 330 17 is_stmt 1 view .LVU189
 852              		.loc 1 330 40 is_stmt 0 view .LVU190
 853 01f2 364A     		ldr	r2, .L48+24
ARM GAS  C:\Users\LY\AppData\Local\Temp\cc36mcgd.s 			page 23


 854 01f4 1380     		strh	r3, [r2]	@ movhi
 331:Src/iot.c     ****                 iot_power_off_ctrl();
 855              		.loc 1 331 17 is_stmt 1 view .LVU191
 856 01f6 FFF7FEFF 		bl	iot_power_off_ctrl
 857              	.LVL41:
 332:Src/iot.c     ****                 printf("IOT SET CREAT CLIENT FAILED!\r\n");
 858              		.loc 1 332 17 view .LVU192
 859 01fa 4248     		ldr	r0, .L48+80
 860 01fc FFF7FEFF 		bl	puts
 861              	.LVL42:
 862 0200 53E0     		b	.L25
 863              	.L30:
 864              	.LBB3:
 333:Src/iot.c     ****             }
 334:Src/iot.c     ****             break;
 335:Src/iot.c     ****         }
 336:Src/iot.c     ****         case IOT_SET_HTTP_PARA:
 337:Src/iot.c     ****         {
 338:Src/iot.c     ****             uint8_t ar_sn_test_buf[SN_DATA_LEN] = "0";
 865              		.loc 1 338 13 view .LVU193
 866              		.loc 1 338 21 is_stmt 0 view .LVU194
 867 0202 3023     		movs	r3, #48
 868 0204 0393     		str	r3, [sp, #12]
 869 0206 2022     		movs	r2, #32
 870 0208 0021     		movs	r1, #0
 871 020a 04A8     		add	r0, sp, #16
 872 020c FFF7FEFF 		bl	memset
 873              	.LVL43:
 339:Src/iot.c     ****             HAL_Delay(1000);
 874              		.loc 1 339 13 is_stmt 1 view .LVU195
 875 0210 4FF47A70 		mov	r0, #1000
 876 0214 FFF7FEFF 		bl	HAL_Delay
 877              	.LVL44:
 340:Src/iot.c     ****             if(g_min_voltage_flag)    /*ÁîµÊ±†ÁîµÈáè‰∏çË∂≥‰∏äÊä•ÁîµÈáè‰ø°ÊÅØ*/
 878              		.loc 1 340 13 view .LVU196
 879              		.loc 1 340 16 is_stmt 0 view .LVU197
 880 0218 3B4B     		ldr	r3, .L48+84
 881 021a 1C78     		ldrb	r4, [r3]	@ zero_extendqisi2
 882              		.loc 1 340 15 view .LVU198
 883 021c 002C     		cmp	r4, #0
 884 021e 46D0     		beq	.L39
 341:Src/iot.c     ****             {
 342:Src/iot.c     ****                 g_min_voltage_flag = V_ZERO;
 885              		.loc 1 342 17 is_stmt 1 view .LVU199
 886              		.loc 1 342 36 is_stmt 0 view .LVU200
 887 0220 0022     		movs	r2, #0
 888 0222 1A70     		strb	r2, [r3]
 343:Src/iot.c     ****                 ar_get_voltage_value[V_ZERO] += DEVICE_VOLTAGE_DROP;
 889              		.loc 1 343 17 is_stmt 1 view .LVU201
 890              		.loc 1 343 46 is_stmt 0 view .LVU202
 891 0224 394A     		ldr	r2, .L48+88
 892 0226 1388     		ldrh	r3, [r2]
 893 0228 4A33     		adds	r3, r3, #74
 894 022a 9BB2     		uxth	r3, r3
 895 022c 1380     		strh	r3, [r2]	@ movhi
 344:Src/iot.c     ****                 sprintf(ar_goods_status, "%s%d", ar_voltage_status, ar_get_voltage_value[V_ZERO]);
 896              		.loc 1 344 17 is_stmt 1 view .LVU203
ARM GAS  C:\Users\LY\AppData\Local\Temp\cc36mcgd.s 			page 24


 897 022e 384C     		ldr	r4, .L48+92
 898 0230 384A     		ldr	r2, .L48+96
 899 0232 3949     		ldr	r1, .L48+100
 900 0234 2046     		mov	r0, r4
 901 0236 FFF7FEFF 		bl	sprintf
 902              	.LVL45:
 345:Src/iot.c     ****                 printf("%s\n",ar_goods_status);
 903              		.loc 1 345 17 view .LVU204
 904 023a 2046     		mov	r0, r4
 905 023c FFF7FEFF 		bl	puts
 906              	.LVL46:
 907              	.L40:
 346:Src/iot.c     ****             }
 347:Src/iot.c     ****             else    /*‰∏äÊä•Ê†ºÂè£Áä∂ÊÄÅ*/
 348:Src/iot.c     ****             {
 349:Src/iot.c     ****                 get_all_goods_state_fun();
 350:Src/iot.c     ****                 for(uint8_t i = V_ZERO; i < MAX_DOOR_NUM; i++)
 351:Src/iot.c     ****                 {
 352:Src/iot.c     ****                     g_item_stat[i] += 0x30;
 353:Src/iot.c     ****                     ar_goods_status[i] = g_item_stat[i];
 354:Src/iot.c     ****                 }
 355:Src/iot.c     ****             }            
 356:Src/iot.c     ****             memcpy(ar_sn_test_buf, ar_sn_num, g_sn_data_len);
 908              		.loc 1 356 13 view .LVU205
 909 0240 364B     		ldr	r3, .L48+104
 910 0242 1A78     		ldrb	r2, [r3]	@ zero_extendqisi2
 911 0244 3649     		ldr	r1, .L48+108
 912 0246 03A8     		add	r0, sp, #12
 913 0248 FFF7FEFF 		bl	memcpy
 914              	.LVL47:
 357:Src/iot.c     ****             sprintf(ar_get_http_server, 
 915              		.loc 1 357 13 view .LVU206
 916 024c 354D     		ldr	r5, .L48+112
 917 024e 304B     		ldr	r3, .L48+92
 918 0250 0193     		str	r3, [sp, #4]
 919 0252 354B     		ldr	r3, .L48+116
 920 0254 0093     		str	r3, [sp]
 921 0256 03AB     		add	r3, sp, #12
 922 0258 344A     		ldr	r2, .L48+120
 923 025a 3549     		ldr	r1, .L48+124
 924 025c 2846     		mov	r0, r5
 925 025e FFF7FEFF 		bl	sprintf
 926              	.LVL48:
 358:Src/iot.c     ****                     "%s%s%s%s\"\r",
 359:Src/iot.c     ****                     (char *)"AT+HTTPSET=\"URL\",\"http://118.31.125.61:8167/btserver/bt/?PW=zhilai&
 360:Src/iot.c     ****                     ar_sn_test_buf,
 361:Src/iot.c     ****                     (char *)"&BS=",
 362:Src/iot.c     ****                     ar_goods_status);
 363:Src/iot.c     ****             g_nb_send_cmd_cnt++;
 927              		.loc 1 363 13 view .LVU207
 928              		.loc 1 363 30 is_stmt 0 view .LVU208
 929 0262 154C     		ldr	r4, .L48+4
 930 0264 2378     		ldrb	r3, [r4]	@ zero_extendqisi2
 931 0266 0133     		adds	r3, r3, #1
 932 0268 2370     		strb	r3, [r4]
 364:Src/iot.c     ****             printf("%s\r\n", ar_get_http_server);
 933              		.loc 1 364 13 is_stmt 1 view .LVU209
ARM GAS  C:\Users\LY\AppData\Local\Temp\cc36mcgd.s 			page 25


 934 026a 2946     		mov	r1, r5
 935 026c 3148     		ldr	r0, .L48+128
 936 026e FFF7FEFF 		bl	printf
 937              	.LVL49:
 365:Src/iot.c     ****             
 366:Src/iot.c     ****             if(g_nb_send_cmd_cnt <= IOT_SEND_CMD_TIME)     /*ÈáçÂ§çÂèë10Ê¨°ÔºåÊØèÊ¨°Èó¥Èöî5SÈÉΩÊ≤°Ê
 938              		.loc 1 366 13 view .LVU210
 939              		.loc 1 366 34 is_stmt 0 view .LVU211
 940 0272 2378     		ldrb	r3, [r4]	@ zero_extendqisi2
 941              		.loc 1 366 15 view .LVU212
 942 0274 052B     		cmp	r3, #5
 943 0276 6BD8     		bhi	.L43
 367:Src/iot.c     ****             {
 368:Src/iot.c     ****                 HAL_UART_Transmit(&huart5, ar_get_http_server, strlen(ar_get_http_server), 1000);
 944              		.loc 1 368 17 is_stmt 1 view .LVU213
 945              		.loc 1 368 64 is_stmt 0 view .LVU214
 946 0278 2846     		mov	r0, r5
 947 027a FFF7FEFF 		bl	strlen
 948              	.LVL50:
 949              		.loc 1 368 17 view .LVU215
 950 027e 4FF47A73 		mov	r3, #1000
 951 0282 82B2     		uxth	r2, r0
 952 0284 2946     		mov	r1, r5
 953 0286 0E48     		ldr	r0, .L48+12
 954 0288 FFF7FEFF 		bl	HAL_UART_Transmit
 955              	.LVL51:
 369:Src/iot.c     ****                 
 370:Src/iot.c     ****                 HAL_Delay(300);
 956              		.loc 1 370 17 is_stmt 1 view .LVU216
 957 028c 4FF49670 		mov	r0, #300
 958 0290 FFF7FEFF 		bl	HAL_Delay
 959              	.LVL52:
 371:Src/iot.c     ****                 g_nb_ctrl_step = V_ZERO;
 960              		.loc 1 371 17 view .LVU217
 961              		.loc 1 371 32 is_stmt 0 view .LVU218
 962 0294 0023     		movs	r3, #0
 963 0296 074A     		ldr	r2, .L48
 964 0298 1370     		strb	r3, [r2]
 372:Src/iot.c     ****                 g_nb_send_cmd_star_time = V_ONE;
 965              		.loc 1 372 17 is_stmt 1 view .LVU219
 966              		.loc 1 372 41 is_stmt 0 view .LVU220
 967 029a 0A4A     		ldr	r2, .L48+16
 968 029c 0121     		movs	r1, #1
 969 029e 1170     		strb	r1, [r2]
 373:Src/iot.c     ****                 //g_nb_send_cmd_cnt = V_ZERO;
 374:Src/iot.c     ****                 g_nb_curren_step = IOT_SET_HTTP_PARA;
 970              		.loc 1 374 17 is_stmt 1 view .LVU221
 971              		.loc 1 374 34 is_stmt 0 view .LVU222
 972 02a0 094A     		ldr	r2, .L48+20
 973 02a2 0D21     		movs	r1, #13
 974 02a4 1170     		strb	r1, [r2]
 375:Src/iot.c     ****                 g_nb_send_cmd_overtime = V_ZERO;//IOT_SEND_CMD_OVERTIME;/*Ë∂ÖÊó∂5s*/
 975              		.loc 1 375 17 is_stmt 1 view .LVU223
 976              		.loc 1 375 40 is_stmt 0 view .LVU224
 977 02a6 094A     		ldr	r2, .L48+24
 978 02a8 1380     		strh	r3, [r2]	@ movhi
 979              	.L25:
ARM GAS  C:\Users\LY\AppData\Local\Temp\cc36mcgd.s 			page 26


 980              	.LBE3:
 376:Src/iot.c     ****             }
 377:Src/iot.c     ****             else
 378:Src/iot.c     ****             {
 379:Src/iot.c     ****                 g_start_http_flag = V_ONE;
 380:Src/iot.c     ****                 g_iot_power_on_cnt++;
 381:Src/iot.c     ****                 g_nb_ctrl_step = V_ZERO;
 382:Src/iot.c     ****                 g_nb_send_cmd_star_time = V_ZERO;
 383:Src/iot.c     ****                 g_nb_send_cmd_cnt = V_ZERO;
 384:Src/iot.c     ****                 g_nb_curren_step = V_ZERO;
 385:Src/iot.c     ****                 g_nb_send_cmd_overtime = V_ZERO;
 386:Src/iot.c     ****                 iot_power_off_ctrl();
 387:Src/iot.c     ****                 printf("IOT SET CREAT CLIENT FAILED!\r\n");
 388:Src/iot.c     ****             }
 389:Src/iot.c     ****             break;
 390:Src/iot.c     ****         }
 391:Src/iot.c     ****         case IOT_START_HTTP_SERVICE:
 392:Src/iot.c     ****         {
 393:Src/iot.c     ****             g_nb_send_cmd_cnt++;
 394:Src/iot.c     ****             if(g_nb_send_cmd_cnt <= IOT_SEND_CMD_TIME)     /*ÈáçÂ§çÂèë10Ê¨°ÔºåÊØèÊ¨°Èó¥Èöî5SÈÉΩÊ≤°Ê
 395:Src/iot.c     ****             {
 396:Src/iot.c     ****                 HAL_UART_Transmit(&huart5, ar_start_http_service, strlen(ar_start_http_service), 10
 397:Src/iot.c     ****                 //HAL_UART_Transmit(&huart5, "AT+MIPCALL=1\r", strlen("AT+MIPCALL=1\r"), 1000);
 398:Src/iot.c     ****                 HAL_Delay(2000);
 399:Src/iot.c     ****                 g_nb_ctrl_step = V_ZERO;
 400:Src/iot.c     ****                 g_nb_send_cmd_star_time = V_ONE;
 401:Src/iot.c     ****                 //g_nb_send_cmd_cnt = V_ZERO;
 402:Src/iot.c     ****                 g_nb_curren_step = IOT_START_HTTP_SERVICE;
 403:Src/iot.c     ****                 g_nb_send_cmd_overtime = V_ZERO;
 404:Src/iot.c     ****                 HAL_Delay(8000);
 405:Src/iot.c     ****             }
 406:Src/iot.c     ****             else
 407:Src/iot.c     ****             {
 408:Src/iot.c     ****                 g_start_http_flag = V_ONE;
 409:Src/iot.c     ****                 g_iot_power_on_cnt++;
 410:Src/iot.c     ****                 g_nb_ctrl_step = V_ZERO;
 411:Src/iot.c     ****                 g_nb_send_cmd_star_time = V_ZERO;
 412:Src/iot.c     ****                 g_nb_send_cmd_cnt = V_ZERO;
 413:Src/iot.c     ****                 g_nb_curren_step = V_ZERO;
 414:Src/iot.c     ****                 g_nb_send_cmd_overtime = V_ZERO;
 415:Src/iot.c     ****                 iot_power_off_ctrl();
 416:Src/iot.c     ****                 printf("IOT HTTPCLIENT GET FAILED!\r\n");
 417:Src/iot.c     ****             }
 418:Src/iot.c     ****             break;
 419:Src/iot.c     ****         }
 420:Src/iot.c     ****         case IOT_READ_HTTP_DATA:
 421:Src/iot.c     ****         {
 422:Src/iot.c     ****             g_nb_send_cmd_cnt++;
 423:Src/iot.c     ****             if(g_nb_send_cmd_cnt <= IOT_SEND_CMD_TIME)     /*ÈáçÂ§çÂèë10Ê¨°ÔºåÊØèÊ¨°Èó¥Èöî5SÈÉΩÊ≤°Ê
 424:Src/iot.c     ****             {
 425:Src/iot.c     ****                 //HAL_UART_Transmit(&huart5, ar_start_http_service, strlen(ar_start_http_service), 
 426:Src/iot.c     ****                 HAL_UART_Transmit(&huart5, "AT+HTTPREAD\r", strlen("AT+HTTPREAD\r"), 1000);
 427:Src/iot.c     ****                 g_nb_ctrl_step = V_ZERO;
 428:Src/iot.c     ****                 g_nb_send_cmd_star_time = V_ONE;
 429:Src/iot.c     ****                 //g_nb_send_cmd_cnt = V_ZERO;
 430:Src/iot.c     ****                 g_nb_curren_step = IOT_READ_HTTP_DATA;
 431:Src/iot.c     ****                 g_nb_send_cmd_overtime = V_ZERO;
ARM GAS  C:\Users\LY\AppData\Local\Temp\cc36mcgd.s 			page 27


 432:Src/iot.c     ****                 HAL_Delay(8000);
 433:Src/iot.c     ****             }
 434:Src/iot.c     ****             else
 435:Src/iot.c     ****             {
 436:Src/iot.c     ****                 g_start_http_flag = V_ONE;
 437:Src/iot.c     ****                 g_iot_power_on_cnt++;
 438:Src/iot.c     ****                 g_nb_ctrl_step = V_ZERO;
 439:Src/iot.c     ****                 g_nb_send_cmd_star_time = V_ZERO;
 440:Src/iot.c     ****                 g_nb_send_cmd_cnt = V_ZERO;
 441:Src/iot.c     ****                 g_nb_curren_step = V_ZERO;
 442:Src/iot.c     ****                 g_nb_send_cmd_overtime = V_ZERO;
 443:Src/iot.c     ****                 iot_power_off_ctrl();
 444:Src/iot.c     ****                 printf("IOT HTTPCLIENT GET FAILED!\r\n");
 445:Src/iot.c     ****             }
 446:Src/iot.c     ****             break;
 447:Src/iot.c     ****         }
 448:Src/iot.c     ****     }
 449:Src/iot.c     **** }
 981              		.loc 1 449 1 view .LVU225
 982 02aa 11B0     		add	sp, sp, #68
 983              	.LCFI9:
 984              		.cfi_remember_state
 985              		.cfi_def_cfa_offset 12
 986              		@ sp needed
 987 02ac 30BD     		pop	{r4, r5, pc}
 988              	.L39:
 989              	.LCFI10:
 990              		.cfi_restore_state
 991              	.LBB5:
 349:Src/iot.c     ****                 for(uint8_t i = V_ZERO; i < MAX_DOOR_NUM; i++)
 992              		.loc 1 349 17 is_stmt 1 view .LVU226
 993 02ae FFF7FEFF 		bl	get_all_goods_state_fun
 994              	.LVL53:
 350:Src/iot.c     ****                 {
 995              		.loc 1 350 17 view .LVU227
 996              	.LBB4:
 350:Src/iot.c     ****                 {
 997              		.loc 1 350 21 view .LVU228
 350:Src/iot.c     ****                 {
 998              		.loc 1 350 17 is_stmt 0 view .LVU229
 999 02b2 4AE0     		b	.L41
 1000              	.L49:
 1001              		.align	2
 1002              	.L48:
 1003 02b4 00000000 		.word	.LANCHOR10
 1004 02b8 00000000 		.word	.LANCHOR11
 1005 02bc 00000000 		.word	.LANCHOR12
 1006 02c0 00000000 		.word	huart5
 1007 02c4 00000000 		.word	.LANCHOR13
 1008 02c8 00000000 		.word	.LANCHOR14
 1009 02cc 00000000 		.word	.LANCHOR15
 1010 02d0 00000000 		.word	.LC6
 1011 02d4 00000000 		.word	g_start_http_flag
 1012 02d8 00000000 		.word	g_iot_power_on_cnt
 1013 02dc 10000000 		.word	.LC7
 1014 02e0 00000000 		.word	.LANCHOR16
 1015 02e4 24000000 		.word	.LC8
ARM GAS  C:\Users\LY\AppData\Local\Temp\cc36mcgd.s 			page 28


 1016 02e8 00000000 		.word	.LANCHOR17
 1017 02ec 38000000 		.word	.LC9
 1018 02f0 00000000 		.word	.LANCHOR18
 1019 02f4 00000000 		.word	.LANCHOR19
 1020 02f8 4C000000 		.word	.LC10
 1021 02fc 00000000 		.word	.LANCHOR20
 1022 0300 60000000 		.word	.LC11
 1023 0304 70000000 		.word	.LC12
 1024 0308 00000000 		.word	g_min_voltage_flag
 1025 030c 00000000 		.word	ar_get_voltage_value
 1026 0310 00000000 		.word	.LANCHOR2
 1027 0314 00000000 		.word	.LANCHOR21
 1028 0318 90000000 		.word	.LC13
 1029 031c 00000000 		.word	g_sn_data_len
 1030 0320 00000000 		.word	ar_sn_num
 1031 0324 00000000 		.word	.LANCHOR1
 1032 0328 24000000 		.word	.LC2
 1033 032c 98000000 		.word	.LC14
 1034 0330 E8000000 		.word	.LC15
 1035 0334 F4000000 		.word	.LC16
 1036              	.LVL54:
 1037              	.L42:
 352:Src/iot.c     ****                     ar_goods_status[i] = g_item_stat[i];
 1038              		.loc 1 352 21 is_stmt 1 discriminator 3 view .LVU230
 352:Src/iot.c     ****                     ar_goods_status[i] = g_item_stat[i];
 1039              		.loc 1 352 36 is_stmt 0 discriminator 3 view .LVU231
 1040 0338 494A     		ldr	r2, .L50
 1041 033a 135D     		ldrb	r3, [r2, r4]	@ zero_extendqisi2
 1042 033c 3033     		adds	r3, r3, #48
 1043 033e DBB2     		uxtb	r3, r3
 1044 0340 1355     		strb	r3, [r2, r4]
 353:Src/iot.c     ****                 }
 1045              		.loc 1 353 21 is_stmt 1 discriminator 3 view .LVU232
 353:Src/iot.c     ****                 }
 1046              		.loc 1 353 40 is_stmt 0 discriminator 3 view .LVU233
 1047 0342 484A     		ldr	r2, .L50+4
 1048 0344 1355     		strb	r3, [r2, r4]
 350:Src/iot.c     ****                 {
 1049              		.loc 1 350 59 is_stmt 1 discriminator 3 view .LVU234
 350:Src/iot.c     ****                 {
 1050              		.loc 1 350 60 is_stmt 0 discriminator 3 view .LVU235
 1051 0346 0134     		adds	r4, r4, #1
 1052              	.LVL55:
 350:Src/iot.c     ****                 {
 1053              		.loc 1 350 60 discriminator 3 view .LVU236
 1054 0348 E4B2     		uxtb	r4, r4
 1055              	.LVL56:
 1056              	.L41:
 350:Src/iot.c     ****                 {
 1057              		.loc 1 350 41 is_stmt 1 discriminator 1 view .LVU237
 350:Src/iot.c     ****                 {
 1058              		.loc 1 350 17 is_stmt 0 discriminator 1 view .LVU238
 1059 034a 172C     		cmp	r4, #23
 1060 034c F4D9     		bls	.L42
 1061 034e 77E7     		b	.L40
 1062              	.LVL57:
 1063              	.L43:
ARM GAS  C:\Users\LY\AppData\Local\Temp\cc36mcgd.s 			page 29


 350:Src/iot.c     ****                 {
 1064              		.loc 1 350 17 discriminator 1 view .LVU239
 1065              	.LBE4:
 379:Src/iot.c     ****                 g_iot_power_on_cnt++;
 1066              		.loc 1 379 17 is_stmt 1 view .LVU240
 379:Src/iot.c     ****                 g_iot_power_on_cnt++;
 1067              		.loc 1 379 35 is_stmt 0 view .LVU241
 1068 0350 454B     		ldr	r3, .L50+8
 1069 0352 0122     		movs	r2, #1
 1070 0354 1A70     		strb	r2, [r3]
 380:Src/iot.c     ****                 g_nb_ctrl_step = V_ZERO;
 1071              		.loc 1 380 17 is_stmt 1 view .LVU242
 380:Src/iot.c     ****                 g_nb_ctrl_step = V_ZERO;
 1072              		.loc 1 380 35 is_stmt 0 view .LVU243
 1073 0356 454A     		ldr	r2, .L50+12
 1074 0358 1378     		ldrb	r3, [r2]	@ zero_extendqisi2
 1075 035a 0133     		adds	r3, r3, #1
 1076 035c 1370     		strb	r3, [r2]
 381:Src/iot.c     ****                 g_nb_send_cmd_star_time = V_ZERO;
 1077              		.loc 1 381 17 is_stmt 1 view .LVU244
 381:Src/iot.c     ****                 g_nb_send_cmd_star_time = V_ZERO;
 1078              		.loc 1 381 32 is_stmt 0 view .LVU245
 1079 035e 0023     		movs	r3, #0
 1080 0360 434A     		ldr	r2, .L50+16
 1081 0362 1370     		strb	r3, [r2]
 382:Src/iot.c     ****                 g_nb_send_cmd_cnt = V_ZERO;
 1082              		.loc 1 382 17 is_stmt 1 view .LVU246
 382:Src/iot.c     ****                 g_nb_send_cmd_cnt = V_ZERO;
 1083              		.loc 1 382 41 is_stmt 0 view .LVU247
 1084 0364 434A     		ldr	r2, .L50+20
 1085 0366 1370     		strb	r3, [r2]
 383:Src/iot.c     ****                 g_nb_curren_step = V_ZERO;
 1086              		.loc 1 383 17 is_stmt 1 view .LVU248
 383:Src/iot.c     ****                 g_nb_curren_step = V_ZERO;
 1087              		.loc 1 383 35 is_stmt 0 view .LVU249
 1088 0368 434A     		ldr	r2, .L50+24
 1089 036a 1370     		strb	r3, [r2]
 384:Src/iot.c     ****                 g_nb_send_cmd_overtime = V_ZERO;
 1090              		.loc 1 384 17 is_stmt 1 view .LVU250
 384:Src/iot.c     ****                 g_nb_send_cmd_overtime = V_ZERO;
 1091              		.loc 1 384 34 is_stmt 0 view .LVU251
 1092 036c 434A     		ldr	r2, .L50+28
 1093 036e 1370     		strb	r3, [r2]
 385:Src/iot.c     ****                 iot_power_off_ctrl();
 1094              		.loc 1 385 17 is_stmt 1 view .LVU252
 385:Src/iot.c     ****                 iot_power_off_ctrl();
 1095              		.loc 1 385 40 is_stmt 0 view .LVU253
 1096 0370 434A     		ldr	r2, .L50+32
 1097 0372 1380     		strh	r3, [r2]	@ movhi
 386:Src/iot.c     ****                 printf("IOT SET CREAT CLIENT FAILED!\r\n");
 1098              		.loc 1 386 17 is_stmt 1 view .LVU254
 1099 0374 FFF7FEFF 		bl	iot_power_off_ctrl
 1100              	.LVL58:
 387:Src/iot.c     ****             }
 1101              		.loc 1 387 17 view .LVU255
 1102 0378 4248     		ldr	r0, .L50+36
 1103 037a FFF7FEFF 		bl	puts
ARM GAS  C:\Users\LY\AppData\Local\Temp\cc36mcgd.s 			page 30


 1104              	.LVL59:
 389:Src/iot.c     ****         }
 1105              		.loc 1 389 13 view .LVU256
 1106 037e 94E7     		b	.L25
 1107              	.L29:
 1108              	.LBE5:
 393:Src/iot.c     ****             if(g_nb_send_cmd_cnt <= IOT_SEND_CMD_TIME)     /*ÈáçÂ§çÂèë10Ê¨°ÔºåÊØèÊ¨°Èó¥Èöî5SÈÉΩÊ≤°Ê
 1109              		.loc 1 393 13 view .LVU257
 393:Src/iot.c     ****             if(g_nb_send_cmd_cnt <= IOT_SEND_CMD_TIME)     /*ÈáçÂ§çÂèë10Ê¨°ÔºåÊØèÊ¨°Èó¥Èöî5SÈÉΩÊ≤°Ê
 1110              		.loc 1 393 30 is_stmt 0 view .LVU258
 1111 0380 3D4A     		ldr	r2, .L50+24
 1112 0382 1378     		ldrb	r3, [r2]	@ zero_extendqisi2
 1113 0384 0133     		adds	r3, r3, #1
 1114 0386 DBB2     		uxtb	r3, r3
 1115 0388 1370     		strb	r3, [r2]
 394:Src/iot.c     ****             {
 1116              		.loc 1 394 13 is_stmt 1 view .LVU259
 394:Src/iot.c     ****             {
 1117              		.loc 1 394 15 is_stmt 0 view .LVU260
 1118 038a 052B     		cmp	r3, #5
 1119 038c 1AD8     		bhi	.L45
 396:Src/iot.c     ****                 //HAL_UART_Transmit(&huart5, "AT+MIPCALL=1\r", strlen("AT+MIPCALL=1\r"), 1000);
 1120              		.loc 1 396 17 is_stmt 1 view .LVU261
 1121 038e 4FF47A73 		mov	r3, #1000
 1122 0392 0D22     		movs	r2, #13
 1123 0394 3C49     		ldr	r1, .L50+40
 1124 0396 3D48     		ldr	r0, .L50+44
 1125 0398 FFF7FEFF 		bl	HAL_UART_Transmit
 1126              	.LVL60:
 398:Src/iot.c     ****                 g_nb_ctrl_step = V_ZERO;
 1127              		.loc 1 398 17 view .LVU262
 1128 039c 4FF4FA60 		mov	r0, #2000
 1129 03a0 FFF7FEFF 		bl	HAL_Delay
 1130              	.LVL61:
 399:Src/iot.c     ****                 g_nb_send_cmd_star_time = V_ONE;
 1131              		.loc 1 399 17 view .LVU263
 399:Src/iot.c     ****                 g_nb_send_cmd_star_time = V_ONE;
 1132              		.loc 1 399 32 is_stmt 0 view .LVU264
 1133 03a4 0023     		movs	r3, #0
 1134 03a6 324A     		ldr	r2, .L50+16
 1135 03a8 1370     		strb	r3, [r2]
 400:Src/iot.c     ****                 //g_nb_send_cmd_cnt = V_ZERO;
 1136              		.loc 1 400 17 is_stmt 1 view .LVU265
 400:Src/iot.c     ****                 //g_nb_send_cmd_cnt = V_ZERO;
 1137              		.loc 1 400 41 is_stmt 0 view .LVU266
 1138 03aa 324A     		ldr	r2, .L50+20
 1139 03ac 0121     		movs	r1, #1
 1140 03ae 1170     		strb	r1, [r2]
 402:Src/iot.c     ****                 g_nb_send_cmd_overtime = V_ZERO;
 1141              		.loc 1 402 17 is_stmt 1 view .LVU267
 402:Src/iot.c     ****                 g_nb_send_cmd_overtime = V_ZERO;
 1142              		.loc 1 402 34 is_stmt 0 view .LVU268
 1143 03b0 324A     		ldr	r2, .L50+28
 1144 03b2 0E21     		movs	r1, #14
 1145 03b4 1170     		strb	r1, [r2]
 403:Src/iot.c     ****                 HAL_Delay(8000);
 1146              		.loc 1 403 17 is_stmt 1 view .LVU269
ARM GAS  C:\Users\LY\AppData\Local\Temp\cc36mcgd.s 			page 31


 403:Src/iot.c     ****                 HAL_Delay(8000);
 1147              		.loc 1 403 40 is_stmt 0 view .LVU270
 1148 03b6 324A     		ldr	r2, .L50+32
 1149 03b8 1380     		strh	r3, [r2]	@ movhi
 404:Src/iot.c     ****             }
 1150              		.loc 1 404 17 is_stmt 1 view .LVU271
 1151 03ba 4FF4FA50 		mov	r0, #8000
 1152 03be FFF7FEFF 		bl	HAL_Delay
 1153              	.LVL62:
 1154 03c2 72E7     		b	.L25
 1155              	.L45:
 408:Src/iot.c     ****                 g_iot_power_on_cnt++;
 1156              		.loc 1 408 17 view .LVU272
 408:Src/iot.c     ****                 g_iot_power_on_cnt++;
 1157              		.loc 1 408 35 is_stmt 0 view .LVU273
 1158 03c4 284B     		ldr	r3, .L50+8
 1159 03c6 0122     		movs	r2, #1
 1160 03c8 1A70     		strb	r2, [r3]
 409:Src/iot.c     ****                 g_nb_ctrl_step = V_ZERO;
 1161              		.loc 1 409 17 is_stmt 1 view .LVU274
 409:Src/iot.c     ****                 g_nb_ctrl_step = V_ZERO;
 1162              		.loc 1 409 35 is_stmt 0 view .LVU275
 1163 03ca 284A     		ldr	r2, .L50+12
 1164 03cc 1378     		ldrb	r3, [r2]	@ zero_extendqisi2
 1165 03ce 0133     		adds	r3, r3, #1
 1166 03d0 1370     		strb	r3, [r2]
 410:Src/iot.c     ****                 g_nb_send_cmd_star_time = V_ZERO;
 1167              		.loc 1 410 17 is_stmt 1 view .LVU276
 410:Src/iot.c     ****                 g_nb_send_cmd_star_time = V_ZERO;
 1168              		.loc 1 410 32 is_stmt 0 view .LVU277
 1169 03d2 0023     		movs	r3, #0
 1170 03d4 264A     		ldr	r2, .L50+16
 1171 03d6 1370     		strb	r3, [r2]
 411:Src/iot.c     ****                 g_nb_send_cmd_cnt = V_ZERO;
 1172              		.loc 1 411 17 is_stmt 1 view .LVU278
 411:Src/iot.c     ****                 g_nb_send_cmd_cnt = V_ZERO;
 1173              		.loc 1 411 41 is_stmt 0 view .LVU279
 1174 03d8 264A     		ldr	r2, .L50+20
 1175 03da 1370     		strb	r3, [r2]
 412:Src/iot.c     ****                 g_nb_curren_step = V_ZERO;
 1176              		.loc 1 412 17 is_stmt 1 view .LVU280
 412:Src/iot.c     ****                 g_nb_curren_step = V_ZERO;
 1177              		.loc 1 412 35 is_stmt 0 view .LVU281
 1178 03dc 264A     		ldr	r2, .L50+24
 1179 03de 1370     		strb	r3, [r2]
 413:Src/iot.c     ****                 g_nb_send_cmd_overtime = V_ZERO;
 1180              		.loc 1 413 17 is_stmt 1 view .LVU282
 413:Src/iot.c     ****                 g_nb_send_cmd_overtime = V_ZERO;
 1181              		.loc 1 413 34 is_stmt 0 view .LVU283
 1182 03e0 264A     		ldr	r2, .L50+28
 1183 03e2 1370     		strb	r3, [r2]
 414:Src/iot.c     ****                 iot_power_off_ctrl();
 1184              		.loc 1 414 17 is_stmt 1 view .LVU284
 414:Src/iot.c     ****                 iot_power_off_ctrl();
 1185              		.loc 1 414 40 is_stmt 0 view .LVU285
 1186 03e4 264A     		ldr	r2, .L50+32
 1187 03e6 1380     		strh	r3, [r2]	@ movhi
ARM GAS  C:\Users\LY\AppData\Local\Temp\cc36mcgd.s 			page 32


 415:Src/iot.c     ****                 printf("IOT HTTPCLIENT GET FAILED!\r\n");
 1188              		.loc 1 415 17 is_stmt 1 view .LVU286
 1189 03e8 FFF7FEFF 		bl	iot_power_off_ctrl
 1190              	.LVL63:
 416:Src/iot.c     ****             }
 1191              		.loc 1 416 17 view .LVU287
 1192 03ec 2848     		ldr	r0, .L50+48
 1193 03ee FFF7FEFF 		bl	puts
 1194              	.LVL64:
 1195 03f2 5AE7     		b	.L25
 1196              	.L27:
 422:Src/iot.c     ****             if(g_nb_send_cmd_cnt <= IOT_SEND_CMD_TIME)     /*ÈáçÂ§çÂèë10Ê¨°ÔºåÊØèÊ¨°Èó¥Èöî5SÈÉΩÊ≤°Ê
 1197              		.loc 1 422 13 view .LVU288
 422:Src/iot.c     ****             if(g_nb_send_cmd_cnt <= IOT_SEND_CMD_TIME)     /*ÈáçÂ§çÂèë10Ê¨°ÔºåÊØèÊ¨°Èó¥Èöî5SÈÉΩÊ≤°Ê
 1198              		.loc 1 422 30 is_stmt 0 view .LVU289
 1199 03f4 204A     		ldr	r2, .L50+24
 1200 03f6 1378     		ldrb	r3, [r2]	@ zero_extendqisi2
 1201 03f8 0133     		adds	r3, r3, #1
 1202 03fa DBB2     		uxtb	r3, r3
 1203 03fc 1370     		strb	r3, [r2]
 423:Src/iot.c     ****             {
 1204              		.loc 1 423 13 is_stmt 1 view .LVU290
 423:Src/iot.c     ****             {
 1205              		.loc 1 423 15 is_stmt 0 view .LVU291
 1206 03fe 052B     		cmp	r3, #5
 1207 0400 16D8     		bhi	.L46
 426:Src/iot.c     ****                 g_nb_ctrl_step = V_ZERO;
 1208              		.loc 1 426 17 is_stmt 1 view .LVU292
 1209 0402 4FF47A73 		mov	r3, #1000
 1210 0406 0C22     		movs	r2, #12
 1211 0408 2249     		ldr	r1, .L50+52
 1212 040a 2048     		ldr	r0, .L50+44
 1213 040c FFF7FEFF 		bl	HAL_UART_Transmit
 1214              	.LVL65:
 427:Src/iot.c     ****                 g_nb_send_cmd_star_time = V_ONE;
 1215              		.loc 1 427 17 view .LVU293
 427:Src/iot.c     ****                 g_nb_send_cmd_star_time = V_ONE;
 1216              		.loc 1 427 32 is_stmt 0 view .LVU294
 1217 0410 0023     		movs	r3, #0
 1218 0412 174A     		ldr	r2, .L50+16
 1219 0414 1370     		strb	r3, [r2]
 428:Src/iot.c     ****                 //g_nb_send_cmd_cnt = V_ZERO;
 1220              		.loc 1 428 17 is_stmt 1 view .LVU295
 428:Src/iot.c     ****                 //g_nb_send_cmd_cnt = V_ZERO;
 1221              		.loc 1 428 41 is_stmt 0 view .LVU296
 1222 0416 174A     		ldr	r2, .L50+20
 1223 0418 0121     		movs	r1, #1
 1224 041a 1170     		strb	r1, [r2]
 430:Src/iot.c     ****                 g_nb_send_cmd_overtime = V_ZERO;
 1225              		.loc 1 430 17 is_stmt 1 view .LVU297
 430:Src/iot.c     ****                 g_nb_send_cmd_overtime = V_ZERO;
 1226              		.loc 1 430 34 is_stmt 0 view .LVU298
 1227 041c 174A     		ldr	r2, .L50+28
 1228 041e 0F21     		movs	r1, #15
 1229 0420 1170     		strb	r1, [r2]
 431:Src/iot.c     ****                 HAL_Delay(8000);
 1230              		.loc 1 431 17 is_stmt 1 view .LVU299
ARM GAS  C:\Users\LY\AppData\Local\Temp\cc36mcgd.s 			page 33


 431:Src/iot.c     ****                 HAL_Delay(8000);
 1231              		.loc 1 431 40 is_stmt 0 view .LVU300
 1232 0422 174A     		ldr	r2, .L50+32
 1233 0424 1380     		strh	r3, [r2]	@ movhi
 432:Src/iot.c     ****             }
 1234              		.loc 1 432 17 is_stmt 1 view .LVU301
 1235 0426 4FF4FA50 		mov	r0, #8000
 1236 042a FFF7FEFF 		bl	HAL_Delay
 1237              	.LVL66:
 1238 042e 3CE7     		b	.L25
 1239              	.L46:
 436:Src/iot.c     ****                 g_iot_power_on_cnt++;
 1240              		.loc 1 436 17 view .LVU302
 436:Src/iot.c     ****                 g_iot_power_on_cnt++;
 1241              		.loc 1 436 35 is_stmt 0 view .LVU303
 1242 0430 0D4B     		ldr	r3, .L50+8
 1243 0432 0122     		movs	r2, #1
 1244 0434 1A70     		strb	r2, [r3]
 437:Src/iot.c     ****                 g_nb_ctrl_step = V_ZERO;
 1245              		.loc 1 437 17 is_stmt 1 view .LVU304
 437:Src/iot.c     ****                 g_nb_ctrl_step = V_ZERO;
 1246              		.loc 1 437 35 is_stmt 0 view .LVU305
 1247 0436 0D4A     		ldr	r2, .L50+12
 1248 0438 1378     		ldrb	r3, [r2]	@ zero_extendqisi2
 1249 043a 0133     		adds	r3, r3, #1
 1250 043c 1370     		strb	r3, [r2]
 438:Src/iot.c     ****                 g_nb_send_cmd_star_time = V_ZERO;
 1251              		.loc 1 438 17 is_stmt 1 view .LVU306
 438:Src/iot.c     ****                 g_nb_send_cmd_star_time = V_ZERO;
 1252              		.loc 1 438 32 is_stmt 0 view .LVU307
 1253 043e 0023     		movs	r3, #0
 1254 0440 0B4A     		ldr	r2, .L50+16
 1255 0442 1370     		strb	r3, [r2]
 439:Src/iot.c     ****                 g_nb_send_cmd_cnt = V_ZERO;
 1256              		.loc 1 439 17 is_stmt 1 view .LVU308
 439:Src/iot.c     ****                 g_nb_send_cmd_cnt = V_ZERO;
 1257              		.loc 1 439 41 is_stmt 0 view .LVU309
 1258 0444 0B4A     		ldr	r2, .L50+20
 1259 0446 1370     		strb	r3, [r2]
 440:Src/iot.c     ****                 g_nb_curren_step = V_ZERO;
 1260              		.loc 1 440 17 is_stmt 1 view .LVU310
 440:Src/iot.c     ****                 g_nb_curren_step = V_ZERO;
 1261              		.loc 1 440 35 is_stmt 0 view .LVU311
 1262 0448 0B4A     		ldr	r2, .L50+24
 1263 044a 1370     		strb	r3, [r2]
 441:Src/iot.c     ****                 g_nb_send_cmd_overtime = V_ZERO;
 1264              		.loc 1 441 17 is_stmt 1 view .LVU312
 441:Src/iot.c     ****                 g_nb_send_cmd_overtime = V_ZERO;
 1265              		.loc 1 441 34 is_stmt 0 view .LVU313
 1266 044c 0B4A     		ldr	r2, .L50+28
 1267 044e 1370     		strb	r3, [r2]
 442:Src/iot.c     ****                 iot_power_off_ctrl();
 1268              		.loc 1 442 17 is_stmt 1 view .LVU314
 442:Src/iot.c     ****                 iot_power_off_ctrl();
 1269              		.loc 1 442 40 is_stmt 0 view .LVU315
 1270 0450 0B4A     		ldr	r2, .L50+32
 1271 0452 1380     		strh	r3, [r2]	@ movhi
ARM GAS  C:\Users\LY\AppData\Local\Temp\cc36mcgd.s 			page 34


 443:Src/iot.c     ****                 printf("IOT HTTPCLIENT GET FAILED!\r\n");
 1272              		.loc 1 443 17 is_stmt 1 view .LVU316
 1273 0454 FFF7FEFF 		bl	iot_power_off_ctrl
 1274              	.LVL67:
 444:Src/iot.c     ****             }
 1275              		.loc 1 444 17 view .LVU317
 1276 0458 0D48     		ldr	r0, .L50+48
 1277 045a FFF7FEFF 		bl	puts
 1278              	.LVL68:
 1279              		.loc 1 449 1 is_stmt 0 view .LVU318
 1280 045e 24E7     		b	.L25
 1281              	.L51:
 1282              		.align	2
 1283              	.L50:
 1284 0460 00000000 		.word	g_item_stat
 1285 0464 00000000 		.word	.LANCHOR2
 1286 0468 00000000 		.word	g_start_http_flag
 1287 046c 00000000 		.word	g_iot_power_on_cnt
 1288 0470 00000000 		.word	.LANCHOR10
 1289 0474 00000000 		.word	.LANCHOR13
 1290 0478 00000000 		.word	.LANCHOR11
 1291 047c 00000000 		.word	.LANCHOR14
 1292 0480 00000000 		.word	.LANCHOR15
 1293 0484 70000000 		.word	.LC12
 1294 0488 00000000 		.word	.LANCHOR22
 1295 048c 00000000 		.word	huart5
 1296 0490 FC000000 		.word	.LC17
 1297 0494 18010000 		.word	.LC18
 1298              		.cfi_endproc
 1299              	.LFE321:
 1301              		.section	.rodata.receive_nb_data_handle.str1.4,"aMS",%progbits,1
 1302              		.align	2
 1303              	.LC19:
 1304 0000 696F7420 		.ascii	"iot recv data len %d\015\012\000"
 1304      72656376 
 1304      20646174 
 1304      61206C65 
 1304      6E202564 
 1305 0017 00       		.align	2
 1306              	.LC20:
 1307 0018 696F7420 		.ascii	"iot recv data:\000"
 1307      72656376 
 1307      20646174 
 1307      613A00
 1308 0027 00       		.align	2
 1309              	.LC21:
 1310 0028 4F4B00   		.ascii	"OK\000"
 1311 002b 00       		.align	2
 1312              	.LC22:
 1313 002c 494F5420 		.ascii	"IOT UART OK!\015\000"
 1313      55415254 
 1313      204F4B21 
 1313      0D00
 1314 003a 0000     		.align	2
 1315              	.LC23:
 1316 003c 72656365 		.ascii	"receive iot uart data err!\015\000"
 1316      69766520 
ARM GAS  C:\Users\LY\AppData\Local\Temp\cc36mcgd.s 			page 35


 1316      696F7420 
 1316      75617274 
 1316      20646174 
 1317              		.align	2
 1318              	.LC24:
 1319 0058 52454144 		.ascii	"READ\000"
 1319      00
 1320 005d 000000   		.align	2
 1321              	.LC25:
 1322 0060 494F5420 		.ascii	"IOT SIM CARD OK!\015\000"
 1322      53494D20 
 1322      43415244 
 1322      204F4B21 
 1322      0D00
 1323 0072 0000     		.align	2
 1324              	.LC26:
 1325 0074 72656365 		.ascii	"receive iot sim card err!\015\000"
 1325      69766520 
 1325      696F7420 
 1325      73696D20 
 1325      63617264 
 1326 008f 00       		.align	2
 1327              	.LC27:
 1328 0090 72737369 		.ascii	"rssi = %c%c\015\012\000"
 1328      203D2025 
 1328      6325630D 
 1328      0A00
 1329 009e 0000     		.align	2
 1330              	.LC28:
 1331 00a0 494F5420 		.ascii	"IOT RSSI OK!\015\000"
 1331      52535349 
 1331      204F4B21 
 1331      0D00
 1332 00ae 0000     		.align	2
 1333              	.LC29:
 1334 00b0 72737369 		.ascii	"rssi query err!\015\000"
 1334      20717565 
 1334      72792065 
 1334      7272210D 
 1334      00
 1335 00c1 000000   		.align	2
 1336              	.LC30:
 1337 00c4 72737369 		.ascii	"rssi query err err!\015\000"
 1337      20717565 
 1337      72792065 
 1337      72722065 
 1337      7272210D 
 1338 00d9 000000   		.align	2
 1339              	.LC31:
 1340 00dc 6E6F206E 		.ascii	"no network to connect!\015\000"
 1340      6574776F 
 1340      726B2074 
 1340      6F20636F 
 1340      6E6E6563 
 1341              		.align	2
 1342              	.LC32:
 1343 00f4 53656172 		.ascii	"Search the Internet:\000"
ARM GAS  C:\Users\LY\AppData\Local\Temp\cc36mcgd.s 			page 36


 1343      63682074 
 1343      68652049 
 1343      6E746572 
 1343      6E65743A 
 1344 0109 000000   		.align	2
 1345              	.LC33:
 1346 010c 73656172 		.ascii	"search the Internet successfully!\015\000"
 1346      63682074 
 1346      68652049 
 1346      6E746572 
 1346      6E657420 
 1347 012f 00       		.align	2
 1348              	.LC34:
 1349 0130 6E657477 		.ascii	"networrk name length err!\015\000"
 1349      6F72726B 
 1349      206E616D 
 1349      65206C65 
 1349      6E677468 
 1350 014b 00       		.align	2
 1351              	.LC35:
 1352 014c 72656365 		.ascii	"receive iot query networrk err!\015\000"
 1352      69766520 
 1352      696F7420 
 1352      71756572 
 1352      79206E65 
 1353 016d 000000   		.align	2
 1354              	.LC36:
 1355 0170 72656365 		.ascii	"receive ok\000"
 1355      69766520 
 1355      6F6B00
 1356 017b 00       		.align	2
 1357              	.LC37:
 1358 017c 4D495043 		.ascii	"MIPCALL:\000"
 1358      414C4C3A 
 1358      00
 1359 0185 000000   		.align	2
 1360              	.LC38:
 1361 0188 494F5420 		.ascii	"IOT MIPCALL SUCCESS!\015\000"
 1361      4D495043 
 1361      414C4C20 
 1361      53554343 
 1361      45535321 
 1362 019e 0000     		.align	2
 1363              	.LC39:
 1364 01a0 494F5420 		.ascii	"IOT MIPCALL FAILED 1!\015\000"
 1364      4D495043 
 1364      414C4C20 
 1364      4641494C 
 1364      45442031 
 1365 01b7 00       		.align	2
 1366              	.LC40:
 1367 01b8 494F5420 		.ascii	"IOT MIPCALL FAILED 2!\015\000"
 1367      4D495043 
 1367      414C4C20 
 1367      4641494C 
 1367      45442032 
 1368 01cf 00       		.align	2
ARM GAS  C:\Users\LY\AppData\Local\Temp\cc36mcgd.s 			page 37


 1369              	.LC41:
 1370 01d0 494F5420 		.ascii	"IOT MIPCALL FAILED!\015\000"
 1370      4D495043 
 1370      414C4C20 
 1370      4641494C 
 1370      4544210D 
 1371 01e5 000000   		.align	2
 1372              	.LC42:
 1373 01e8 494F5420 		.ascii	"IOT SET HTTP PARA OK!\015\000"
 1373      53455420 
 1373      48545450 
 1373      20504152 
 1373      41204F4B 
 1374 01ff 00       		.align	2
 1375              	.LC43:
 1376 0200 72656365 		.ascii	"receive set http param err!\015\000"
 1376      69766520 
 1376      73657420 
 1376      68747470 
 1376      20706172 
 1377 021d 000000   		.align	2
 1378              	.LC44:
 1379 0220 48545450 		.ascii	"HTTP:\000"
 1379      3A00
 1380 0226 0000     		.align	2
 1381              	.LC45:
 1382 0228 494F5420 		.ascii	"IOT HTTP CONNECT SUCCESS OK!\015\000"
 1382      48545450 
 1382      20434F4E 
 1382      4E454354 
 1382      20535543 
 1383 0246 0000     		.align	2
 1384              	.LC46:
 1385 0248 494F5420 		.ascii	"IOT START HTTP SERVICE ERR!\015\000"
 1385      53544152 
 1385      54204854 
 1385      54502053 
 1385      45525649 
 1386 0265 000000   		.align	2
 1387              	.LC47:
 1388 0268 30303030 		.ascii	"0000\000"
 1388      00
 1389 026d 000000   		.align	2
 1390              	.LC48:
 1391 0270 494F5420 		.ascii	"IOT HTTP GET SUCCESS!\015\000"
 1391      48545450 
 1391      20474554 
 1391      20535543 
 1391      43455353 
 1392 0287 00       		.align	2
 1393              	.LC49:
 1394 0288 494F5420 		.ascii	"IOT TEST SUCCESSED!\015\000"
 1394      54455354 
 1394      20535543 
 1394      43455353 
 1394      4544210D 
 1395 029d 000000   		.align	2
ARM GAS  C:\Users\LY\AppData\Local\Temp\cc36mcgd.s 			page 38


 1396              	.LC50:
 1397 02a0 48545450 		.ascii	"HTTP GET ERR!\015\000"
 1397      20474554 
 1397      20455252 
 1397      210D00
 1398              		.section	.text.receive_nb_data_handle,"ax",%progbits
 1399              		.align	1
 1400              		.global	receive_nb_data_handle
 1401              		.syntax unified
 1402              		.thumb
 1403              		.thumb_func
 1404              		.fpu fpv4-sp-d16
 1406              	receive_nb_data_handle:
 1407              	.LFB322:
 450:Src/iot.c     **** 
 451:Src/iot.c     **** 
 452:Src/iot.c     **** void receive_nb_data_handle(void)
 453:Src/iot.c     **** {
 1408              		.loc 1 453 1 is_stmt 1 view -0
 1409              		.cfi_startproc
 1410              		@ args = 0, pretend = 0, frame = 0
 1411              		@ frame_needed = 0, uses_anonymous_args = 0
 1412 0000 F8B5     		push	{r3, r4, r5, r6, r7, lr}
 1413              	.LCFI11:
 1414              		.cfi_def_cfa_offset 24
 1415              		.cfi_offset 3, -24
 1416              		.cfi_offset 4, -20
 1417              		.cfi_offset 5, -16
 1418              		.cfi_offset 6, -12
 1419              		.cfi_offset 7, -8
 1420              		.cfi_offset 14, -4
 454:Src/iot.c     ****     //if(g_usart5_rx_finish)
 455:Src/iot.c     ****     {
 456:Src/iot.c     ****         printf("iot recv data len %d\r\n", g_usart5_tx_len);
 1421              		.loc 1 456 9 view .LVU320
 1422 0002 A24B     		ldr	r3, .L136
 1423 0004 1978     		ldrb	r1, [r3]	@ zero_extendqisi2
 1424 0006 A248     		ldr	r0, .L136+4
 1425 0008 FFF7FEFF 		bl	printf
 1426              	.LVL69:
 457:Src/iot.c     ****         printf("iot recv data:");
 1427              		.loc 1 457 9 view .LVU321
 1428 000c A148     		ldr	r0, .L136+8
 1429 000e FFF7FEFF 		bl	printf
 1430              	.LVL70:
 458:Src/iot.c     ****         for(uint8_t i = V_ZERO; i < g_usart5_tx_len; i++)
 1431              		.loc 1 458 9 view .LVU322
 1432              	.LBB6:
 1433              		.loc 1 458 13 view .LVU323
 1434              		.loc 1 458 21 is_stmt 0 view .LVU324
 1435 0012 0024     		movs	r4, #0
 1436              	.LVL71:
 1437              	.L53:
 1438              		.loc 1 458 33 is_stmt 1 discriminator 1 view .LVU325
 1439              		.loc 1 458 35 is_stmt 0 discriminator 1 view .LVU326
 1440 0014 9D4B     		ldr	r3, .L136
 1441 0016 1D78     		ldrb	r5, [r3]	@ zero_extendqisi2
ARM GAS  C:\Users\LY\AppData\Local\Temp\cc36mcgd.s 			page 39


 1442              		.loc 1 458 9 discriminator 1 view .LVU327
 1443 0018 A542     		cmp	r5, r4
 1444 001a 06D9     		bls	.L118
 459:Src/iot.c     ****         {
 460:Src/iot.c     ****             printf("%c", ar_usart5_tx_buffer[i]);
 1445              		.loc 1 460 13 is_stmt 1 discriminator 3 view .LVU328
 1446 001c 9E4B     		ldr	r3, .L136+12
 1447 001e 185D     		ldrb	r0, [r3, r4]	@ zero_extendqisi2
 1448 0020 FFF7FEFF 		bl	putchar
 1449              	.LVL72:
 458:Src/iot.c     ****         for(uint8_t i = V_ZERO; i < g_usart5_tx_len; i++)
 1450              		.loc 1 458 54 discriminator 3 view .LVU329
 458:Src/iot.c     ****         for(uint8_t i = V_ZERO; i < g_usart5_tx_len; i++)
 1451              		.loc 1 458 55 is_stmt 0 discriminator 3 view .LVU330
 1452 0024 0134     		adds	r4, r4, #1
 1453              	.LVL73:
 458:Src/iot.c     ****         for(uint8_t i = V_ZERO; i < g_usart5_tx_len; i++)
 1454              		.loc 1 458 55 discriminator 3 view .LVU331
 1455 0026 E4B2     		uxtb	r4, r4
 1456              	.LVL74:
 458:Src/iot.c     ****         for(uint8_t i = V_ZERO; i < g_usart5_tx_len; i++)
 1457              		.loc 1 458 55 discriminator 3 view .LVU332
 1458 0028 F4E7     		b	.L53
 1459              	.L118:
 458:Src/iot.c     ****         for(uint8_t i = V_ZERO; i < g_usart5_tx_len; i++)
 1460              		.loc 1 458 55 discriminator 3 view .LVU333
 1461              	.LBE6:
 461:Src/iot.c     ****         }
 462:Src/iot.c     ****         //memset(&ar_usart5_tx_buffer[g_usart5_tx_len], V_ZERO, IOT_MAX_RECV_DATA-g_usart5_tx_len);
 463:Src/iot.c     ****         switch(g_nb_curren_step)
 1462              		.loc 1 463 9 is_stmt 1 view .LVU334
 1463 002a 9C4B     		ldr	r3, .L136+16
 1464 002c 1E78     		ldrb	r6, [r3]	@ zero_extendqisi2
 1465 002e 731E     		subs	r3, r6, #1
 1466 0030 0E2B     		cmp	r3, #14
 1467 0032 00F23082 		bhi	.L52
 1468 0036 DFE813F0 		tbh	[pc, r3, lsl #1]
 1469              	.L57:
 1470 003a 0F00     		.2byte	(.L64-.L57)/2
 1471 003c 2D00     		.2byte	(.L63-.L57)/2
 1472 003e 4B00     		.2byte	(.L62-.L57)/2
 1473 0040 9300     		.2byte	(.L61-.L57)/2
 1474 0042 F700     		.2byte	(.L60-.L57)/2
 1475 0044 2E02     		.2byte	(.L52-.L57)/2
 1476 0046 2E02     		.2byte	(.L52-.L57)/2
 1477 0048 2E02     		.2byte	(.L52-.L57)/2
 1478 004a 2E02     		.2byte	(.L52-.L57)/2
 1479 004c 2E02     		.2byte	(.L52-.L57)/2
 1480 004e 2E02     		.2byte	(.L52-.L57)/2
 1481 0050 2E02     		.2byte	(.L52-.L57)/2
 1482 0052 9001     		.2byte	(.L59-.L57)/2
 1483 0054 CD01     		.2byte	(.L58-.L57)/2
 1484 0056 1502     		.2byte	(.L106-.L57)/2
 1485              		.p2align 1
 1486              	.L64:
 464:Src/iot.c     ****         {
 465:Src/iot.c     ****             case IOT_TEST_UART:
ARM GAS  C:\Users\LY\AppData\Local\Temp\cc36mcgd.s 			page 40


 466:Src/iot.c     ****             {
 467:Src/iot.c     ****                 if(strstr((char*)ar_usart5_tx_buffer,"OK") != NULL)
 1487              		.loc 1 467 17 view .LVU335
 1488              		.loc 1 467 20 is_stmt 0 view .LVU336
 1489 0058 9149     		ldr	r1, .L136+20
 1490 005a 8F48     		ldr	r0, .L136+12
 1491 005c FFF7FEFF 		bl	strstr
 1492              	.LVL75:
 1493              		.loc 1 467 19 view .LVU337
 1494 0060 78B1     		cbz	r0, .L65
 468:Src/iot.c     ****                 {
 469:Src/iot.c     ****                     g_nb_ctrl_step = IOT_TEST_SIM;
 1495              		.loc 1 469 21 is_stmt 1 view .LVU338
 1496              		.loc 1 469 36 is_stmt 0 view .LVU339
 1497 0062 904B     		ldr	r3, .L136+24
 1498 0064 0222     		movs	r2, #2
 1499 0066 1A70     		strb	r2, [r3]
 470:Src/iot.c     ****                     g_nb_curren_step = V_ZERO;
 1500              		.loc 1 470 21 is_stmt 1 view .LVU340
 1501              		.loc 1 470 38 is_stmt 0 view .LVU341
 1502 0068 0023     		movs	r3, #0
 1503 006a 8C4A     		ldr	r2, .L136+16
 1504 006c 1370     		strb	r3, [r2]
 471:Src/iot.c     ****                     g_nb_send_cmd_cnt = V_ZERO;
 1505              		.loc 1 471 21 is_stmt 1 view .LVU342
 1506              		.loc 1 471 39 is_stmt 0 view .LVU343
 1507 006e 8E4A     		ldr	r2, .L136+28
 1508 0070 1370     		strb	r3, [r2]
 472:Src/iot.c     ****                     //g_iot_power_on_cnt = V_ZERO;
 473:Src/iot.c     ****                     printf("IOT UART OK!\r\n");
 1509              		.loc 1 473 21 is_stmt 1 view .LVU344
 1510 0072 8E48     		ldr	r0, .L136+32
 1511 0074 FFF7FEFF 		bl	puts
 1512              	.LVL76:
 474:Src/iot.c     ****                     HAL_Delay(1000);
 1513              		.loc 1 474 21 view .LVU345
 1514 0078 4FF47A70 		mov	r0, #1000
 1515 007c FFF7FEFF 		bl	HAL_Delay
 1516              	.LVL77:
 1517 0080 09E2     		b	.L52
 1518              	.L65:
 475:Src/iot.c     ****                 }
 476:Src/iot.c     ****                 else
 477:Src/iot.c     ****                 {
 478:Src/iot.c     ****                     g_nb_ctrl_step = g_nb_curren_step;
 1519              		.loc 1 478 21 view .LVU346
 1520              		.loc 1 478 36 is_stmt 0 view .LVU347
 1521 0082 884B     		ldr	r3, .L136+24
 1522 0084 1E70     		strb	r6, [r3]
 479:Src/iot.c     ****                     //g_nb_send_cmd_cnt++;
 480:Src/iot.c     ****                     g_nb_send_cmd_overtime = V_ZERO;
 1523              		.loc 1 480 21 is_stmt 1 view .LVU348
 1524              		.loc 1 480 44 is_stmt 0 view .LVU349
 1525 0086 8A4B     		ldr	r3, .L136+36
 1526 0088 0022     		movs	r2, #0
 1527 008a 1A80     		strh	r2, [r3]	@ movhi
 481:Src/iot.c     ****                     printf("receive iot uart data err!\r\n");
ARM GAS  C:\Users\LY\AppData\Local\Temp\cc36mcgd.s 			page 41


 1528              		.loc 1 481 21 is_stmt 1 view .LVU350
 1529 008c 8948     		ldr	r0, .L136+40
 1530 008e FFF7FEFF 		bl	puts
 1531              	.LVL78:
 1532 0092 00E2     		b	.L52
 1533              	.L63:
 482:Src/iot.c     ****                 }
 483:Src/iot.c     ****                 break;
 484:Src/iot.c     ****             }
 485:Src/iot.c     ****             case IOT_TEST_SIM:
 486:Src/iot.c     ****             {
 487:Src/iot.c     ****                 if(strstr((char*)ar_usart5_tx_buffer,"READ") != NULL)
 1534              		.loc 1 487 17 view .LVU351
 1535              		.loc 1 487 20 is_stmt 0 view .LVU352
 1536 0094 8849     		ldr	r1, .L136+44
 1537 0096 8048     		ldr	r0, .L136+12
 1538 0098 FFF7FEFF 		bl	strstr
 1539              	.LVL79:
 1540              		.loc 1 487 19 view .LVU353
 1541 009c 78B1     		cbz	r0, .L66
 488:Src/iot.c     ****                 {
 489:Src/iot.c     ****                     g_nb_ctrl_step = IOT_QUERY_RSSI;
 1542              		.loc 1 489 21 is_stmt 1 view .LVU354
 1543              		.loc 1 489 36 is_stmt 0 view .LVU355
 1544 009e 814B     		ldr	r3, .L136+24
 1545 00a0 0322     		movs	r2, #3
 1546 00a2 1A70     		strb	r2, [r3]
 490:Src/iot.c     ****                     g_nb_curren_step = V_ZERO;
 1547              		.loc 1 490 21 is_stmt 1 view .LVU356
 1548              		.loc 1 490 38 is_stmt 0 view .LVU357
 1549 00a4 0023     		movs	r3, #0
 1550 00a6 7D4A     		ldr	r2, .L136+16
 1551 00a8 1370     		strb	r3, [r2]
 491:Src/iot.c     ****                     g_nb_send_cmd_cnt = V_ZERO;
 1552              		.loc 1 491 21 is_stmt 1 view .LVU358
 1553              		.loc 1 491 39 is_stmt 0 view .LVU359
 1554 00aa 7F4A     		ldr	r2, .L136+28
 1555 00ac 1370     		strb	r3, [r2]
 492:Src/iot.c     ****                     //g_iot_power_on_cnt = V_ZERO;
 493:Src/iot.c     ****                     printf("IOT SIM CARD OK!\r\n");
 1556              		.loc 1 493 21 is_stmt 1 view .LVU360
 1557 00ae 8348     		ldr	r0, .L136+48
 1558 00b0 FFF7FEFF 		bl	puts
 1559              	.LVL80:
 494:Src/iot.c     ****                     HAL_Delay(1000);
 1560              		.loc 1 494 21 view .LVU361
 1561 00b4 4FF47A70 		mov	r0, #1000
 1562 00b8 FFF7FEFF 		bl	HAL_Delay
 1563              	.LVL81:
 1564 00bc EBE1     		b	.L52
 1565              	.L66:
 495:Src/iot.c     ****                 }
 496:Src/iot.c     ****                 else
 497:Src/iot.c     ****                 {
 498:Src/iot.c     ****                     g_nb_ctrl_step = g_nb_curren_step;
 1566              		.loc 1 498 21 view .LVU362
 1567              		.loc 1 498 36 is_stmt 0 view .LVU363
ARM GAS  C:\Users\LY\AppData\Local\Temp\cc36mcgd.s 			page 42


 1568 00be 794B     		ldr	r3, .L136+24
 1569 00c0 1E70     		strb	r6, [r3]
 499:Src/iot.c     ****                     //g_nb_send_cmd_cnt++;
 500:Src/iot.c     ****                     g_nb_send_cmd_overtime = V_ZERO;
 1570              		.loc 1 500 21 is_stmt 1 view .LVU364
 1571              		.loc 1 500 44 is_stmt 0 view .LVU365
 1572 00c2 7B4B     		ldr	r3, .L136+36
 1573 00c4 0022     		movs	r2, #0
 1574 00c6 1A80     		strh	r2, [r3]	@ movhi
 501:Src/iot.c     ****                     printf("receive iot sim card err!\r\n");
 1575              		.loc 1 501 21 is_stmt 1 view .LVU366
 1576 00c8 7D48     		ldr	r0, .L136+52
 1577 00ca FFF7FEFF 		bl	puts
 1578              	.LVL82:
 1579 00ce E2E1     		b	.L52
 1580              	.L62:
 502:Src/iot.c     ****                 }
 503:Src/iot.c     ****                 break;
 504:Src/iot.c     ****             }
 505:Src/iot.c     ****             case IOT_QUERY_RSSI:
 506:Src/iot.c     ****             {
 507:Src/iot.c     ****                 if(strstr((char*)ar_usart5_tx_buffer,"OK") != NULL)
 1581              		.loc 1 507 17 view .LVU367
 1582              		.loc 1 507 20 is_stmt 0 view .LVU368
 1583 00d0 7349     		ldr	r1, .L136+20
 1584 00d2 7148     		ldr	r0, .L136+12
 1585 00d4 FFF7FEFF 		bl	strstr
 1586              	.LVL83:
 1587              		.loc 1 507 19 view .LVU369
 1588 00d8 0028     		cmp	r0, #0
 1589 00da 38D0     		beq	.L119
 1590              	.LBB7:
 1591              	.LBB8:
 508:Src/iot.c     ****                 {
 509:Src/iot.c     ****                     uint8_t j = V_ZERO;
 510:Src/iot.c     ****                     for(uint8_t i = V_ZERO; i < g_usart5_tx_len; i++)
 1592              		.loc 1 510 33 view .LVU370
 1593 00dc 0023     		movs	r3, #0
 1594              	.L67:
 1595              	.LVL84:
 1596              		.loc 1 510 45 is_stmt 1 discriminator 1 view .LVU371
 1597              		.loc 1 510 21 is_stmt 0 discriminator 1 view .LVU372
 1598 00de 9D42     		cmp	r5, r3
 1599 00e0 06D9     		bls	.L120
 511:Src/iot.c     ****                     {
 512:Src/iot.c     ****                         if(ar_usart5_tx_buffer[i] == ':')
 1600              		.loc 1 512 25 is_stmt 1 view .LVU373
 1601              		.loc 1 512 47 is_stmt 0 view .LVU374
 1602 00e2 6D4A     		ldr	r2, .L136+12
 1603 00e4 D25C     		ldrb	r2, [r2, r3]	@ zero_extendqisi2
 1604              		.loc 1 512 27 view .LVU375
 1605 00e6 3A2A     		cmp	r2, #58
 1606 00e8 03D0     		beq	.L69
 510:Src/iot.c     ****                     {
 1607              		.loc 1 510 66 is_stmt 1 discriminator 2 view .LVU376
 510:Src/iot.c     ****                     {
 1608              		.loc 1 510 67 is_stmt 0 discriminator 2 view .LVU377
ARM GAS  C:\Users\LY\AppData\Local\Temp\cc36mcgd.s 			page 43


 1609 00ea 0133     		adds	r3, r3, #1
 1610              	.LVL85:
 510:Src/iot.c     ****                     {
 1611              		.loc 1 510 67 discriminator 2 view .LVU378
 1612 00ec DBB2     		uxtb	r3, r3
 1613              	.LVL86:
 510:Src/iot.c     ****                     {
 1614              		.loc 1 510 67 discriminator 2 view .LVU379
 1615 00ee F6E7     		b	.L67
 1616              	.L120:
 510:Src/iot.c     ****                     {
 1617              		.loc 1 510 67 discriminator 2 view .LVU380
 1618              	.LBE8:
 509:Src/iot.c     ****                     for(uint8_t i = V_ZERO; i < g_usart5_tx_len; i++)
 1619              		.loc 1 509 29 view .LVU381
 1620 00f0 0023     		movs	r3, #0
 1621              	.LVL87:
 1622              	.L69:
 513:Src/iot.c     ****                         {
 514:Src/iot.c     ****                             j = i;
 515:Src/iot.c     ****                             break;
 516:Src/iot.c     ****                         }
 517:Src/iot.c     ****                     }
 518:Src/iot.c     ****                     if(j < g_usart5_tx_len)
 1623              		.loc 1 518 21 is_stmt 1 view .LVU382
 1624              		.loc 1 518 23 is_stmt 0 view .LVU383
 1625 00f2 9D42     		cmp	r5, r3
 1626 00f4 22D9     		bls	.L71
 519:Src/iot.c     ****                     {
 520:Src/iot.c     ****                         if((ar_usart5_tx_buffer[j+L_TWO] > '0') && (ar_usart5_tx_buffer[j+L_TWO] <=
 1627              		.loc 1 520 25 is_stmt 1 view .LVU384
 1628              		.loc 1 520 50 is_stmt 0 view .LVU385
 1629 00f6 9A1C     		adds	r2, r3, #2
 1630              		.loc 1 520 48 view .LVU386
 1631 00f8 6749     		ldr	r1, .L136+12
 1632 00fa 895C     		ldrb	r1, [r1, r2]	@ zero_extendqisi2
 1633              		.loc 1 520 65 view .LVU387
 1634 00fc A1F13102 		sub	r2, r1, #49
 1635 0100 D2B2     		uxtb	r2, r2
 1636              		.loc 1 520 27 view .LVU388
 1637 0102 022A     		cmp	r2, #2
 1638 0104 11D8     		bhi	.L72
 521:Src/iot.c     ****                         {
 522:Src/iot.c     ****                             printf("rssi = %c%c\r\n", ar_usart5_tx_buffer[j+L_TWO], ar_usart5_tx_bu
 1639              		.loc 1 522 29 is_stmt 1 view .LVU389
 1640              		.loc 1 522 106 is_stmt 0 view .LVU390
 1641 0106 0333     		adds	r3, r3, #3
 1642              	.LVL88:
 1643              		.loc 1 522 29 view .LVU391
 1644 0108 634A     		ldr	r2, .L136+12
 1645 010a D25C     		ldrb	r2, [r2, r3]	@ zero_extendqisi2
 1646 010c 6D48     		ldr	r0, .L136+56
 1647 010e FFF7FEFF 		bl	printf
 1648              	.LVL89:
 523:Src/iot.c     ****                             g_nb_ctrl_step = IOT_QUERY_NET;
 1649              		.loc 1 523 29 is_stmt 1 view .LVU392
 1650              		.loc 1 523 44 is_stmt 0 view .LVU393
ARM GAS  C:\Users\LY\AppData\Local\Temp\cc36mcgd.s 			page 44


 1651 0112 644B     		ldr	r3, .L136+24
 1652 0114 0422     		movs	r2, #4
 1653 0116 1A70     		strb	r2, [r3]
 524:Src/iot.c     ****                             g_nb_curren_step = V_ZERO;
 1654              		.loc 1 524 29 is_stmt 1 view .LVU394
 1655              		.loc 1 524 46 is_stmt 0 view .LVU395
 1656 0118 0023     		movs	r3, #0
 1657 011a 604A     		ldr	r2, .L136+16
 1658 011c 1370     		strb	r3, [r2]
 525:Src/iot.c     ****                             g_nb_send_cmd_cnt = V_ZERO;
 1659              		.loc 1 525 29 is_stmt 1 view .LVU396
 1660              		.loc 1 525 47 is_stmt 0 view .LVU397
 1661 011e 624A     		ldr	r2, .L136+28
 1662 0120 1370     		strb	r3, [r2]
 526:Src/iot.c     ****                             //g_iot_power_on_cnt = V_ZERO;
 527:Src/iot.c     ****                             printf("IOT RSSI OK!\r\n");
 1663              		.loc 1 527 29 is_stmt 1 view .LVU398
 1664 0122 6948     		ldr	r0, .L136+60
 1665 0124 FFF7FEFF 		bl	puts
 1666              	.LVL90:
 1667 0128 B5E1     		b	.L52
 1668              	.LVL91:
 1669              	.L72:
 528:Src/iot.c     ****                         }
 529:Src/iot.c     ****                         else
 530:Src/iot.c     ****                         {
 531:Src/iot.c     ****                             g_nb_ctrl_step = g_nb_curren_step;
 1670              		.loc 1 531 29 view .LVU399
 1671              		.loc 1 531 44 is_stmt 0 view .LVU400
 1672 012a 5E4B     		ldr	r3, .L136+24
 1673              	.LVL92:
 1674              		.loc 1 531 44 view .LVU401
 1675 012c 1E70     		strb	r6, [r3]
 532:Src/iot.c     ****                             //g_nb_send_cmd_cnt++;
 533:Src/iot.c     ****                             g_nb_send_cmd_overtime = V_ZERO;
 1676              		.loc 1 533 29 is_stmt 1 view .LVU402
 1677              		.loc 1 533 52 is_stmt 0 view .LVU403
 1678 012e 604B     		ldr	r3, .L136+36
 1679 0130 0022     		movs	r2, #0
 1680 0132 1A80     		strh	r2, [r3]	@ movhi
 534:Src/iot.c     ****                             printf("rssi query err!\r\n");
 1681              		.loc 1 534 29 is_stmt 1 view .LVU404
 1682 0134 6548     		ldr	r0, .L136+64
 1683 0136 FFF7FEFF 		bl	puts
 1684              	.LVL93:
 1685 013a ACE1     		b	.L52
 1686              	.LVL94:
 1687              	.L71:
 535:Src/iot.c     ****                         }
 536:Src/iot.c     ****                     }
 537:Src/iot.c     ****                     else
 538:Src/iot.c     ****                     {
 539:Src/iot.c     ****                         g_nb_ctrl_step = g_nb_curren_step;
 1688              		.loc 1 539 25 view .LVU405
 1689              		.loc 1 539 40 is_stmt 0 view .LVU406
 1690 013c 594B     		ldr	r3, .L136+24
 1691              	.LVL95:
ARM GAS  C:\Users\LY\AppData\Local\Temp\cc36mcgd.s 			page 45


 1692              		.loc 1 539 40 view .LVU407
 1693 013e 1E70     		strb	r6, [r3]
 540:Src/iot.c     ****                         //g_nb_send_cmd_cnt++;
 541:Src/iot.c     ****                         g_nb_send_cmd_overtime = V_ZERO;
 1694              		.loc 1 541 25 is_stmt 1 view .LVU408
 1695              		.loc 1 541 48 is_stmt 0 view .LVU409
 1696 0140 5B4B     		ldr	r3, .L136+36
 1697 0142 0022     		movs	r2, #0
 1698 0144 1A80     		strh	r2, [r3]	@ movhi
 542:Src/iot.c     ****                         printf("rssi query err err!\r\n");
 1699              		.loc 1 542 25 is_stmt 1 view .LVU410
 1700 0146 6248     		ldr	r0, .L136+68
 1701 0148 FFF7FEFF 		bl	puts
 1702              	.LVL96:
 1703 014c A3E1     		b	.L52
 1704              	.L119:
 1705              		.loc 1 542 25 is_stmt 0 view .LVU411
 1706              	.LBE7:
 543:Src/iot.c     ****                     }
 544:Src/iot.c     ****                 }
 545:Src/iot.c     ****                 else
 546:Src/iot.c     ****                 {
 547:Src/iot.c     ****                     g_nb_ctrl_step = g_nb_curren_step;
 1707              		.loc 1 547 21 is_stmt 1 view .LVU412
 1708              		.loc 1 547 36 is_stmt 0 view .LVU413
 1709 014e 554B     		ldr	r3, .L136+24
 1710 0150 1E70     		strb	r6, [r3]
 548:Src/iot.c     ****                     //g_nb_send_cmd_cnt++;
 549:Src/iot.c     ****                     g_nb_send_cmd_overtime = V_ZERO;
 1711              		.loc 1 549 21 is_stmt 1 view .LVU414
 1712              		.loc 1 549 44 is_stmt 0 view .LVU415
 1713 0152 574B     		ldr	r3, .L136+36
 1714 0154 0022     		movs	r2, #0
 1715 0156 1A80     		strh	r2, [r3]	@ movhi
 550:Src/iot.c     ****                     printf("rssi query err err!\r\n");
 1716              		.loc 1 550 21 is_stmt 1 view .LVU416
 1717 0158 5D48     		ldr	r0, .L136+68
 1718 015a FFF7FEFF 		bl	puts
 1719              	.LVL97:
 1720 015e 9AE1     		b	.L52
 1721              	.L61:
 1722              	.LBB9:
 551:Src/iot.c     ****                 }
 552:Src/iot.c     ****                 break;
 553:Src/iot.c     ****             }
 554:Src/iot.c     ****             case IOT_QUERY_NET:
 555:Src/iot.c     ****             {
 556:Src/iot.c     ****                 uint8_t j = V_ZERO;
 1723              		.loc 1 556 17 view .LVU417
 1724              	.LVL98:
 557:Src/iot.c     ****                 uint8_t i = V_ZERO;
 1725              		.loc 1 557 17 view .LVU418
 558:Src/iot.c     ****                 if(strstr((char*)ar_usart5_tx_buffer,"OK") != NULL)
 1726              		.loc 1 558 17 view .LVU419
 1727              		.loc 1 558 20 is_stmt 0 view .LVU420
 1728 0160 4F49     		ldr	r1, .L136+20
 1729 0162 4D48     		ldr	r0, .L136+12
ARM GAS  C:\Users\LY\AppData\Local\Temp\cc36mcgd.s 			page 46


 1730 0164 FFF7FEFF 		bl	strstr
 1731              	.LVL99:
 1732              		.loc 1 558 19 view .LVU421
 1733 0168 0028     		cmp	r0, #0
 1734 016a 54D0     		beq	.L121
 559:Src/iot.c     ****                 {
 560:Src/iot.c     ****                     for(i = V_SEVEN; i < g_usart5_tx_len; i++)
 1735              		.loc 1 560 27 view .LVU422
 1736 016c 0723     		movs	r3, #7
 1737              	.LVL100:
 1738              	.L73:
 1739              		.loc 1 560 38 is_stmt 1 discriminator 1 view .LVU423
 1740              		.loc 1 560 21 is_stmt 0 discriminator 1 view .LVU424
 1741 016e 9D42     		cmp	r5, r3
 1742 0170 06D9     		bls	.L122
 561:Src/iot.c     ****                     {
 562:Src/iot.c     ****                         if(ar_usart5_tx_buffer[i] == '"')
 1743              		.loc 1 562 25 is_stmt 1 view .LVU425
 1744              		.loc 1 562 47 is_stmt 0 view .LVU426
 1745 0172 494A     		ldr	r2, .L136+12
 1746 0174 D25C     		ldrb	r2, [r2, r3]	@ zero_extendqisi2
 1747              		.loc 1 562 27 view .LVU427
 1748 0176 222A     		cmp	r2, #34
 1749 0178 18D0     		beq	.L109
 560:Src/iot.c     ****                     {
 1750              		.loc 1 560 59 is_stmt 1 discriminator 2 view .LVU428
 560:Src/iot.c     ****                     {
 1751              		.loc 1 560 60 is_stmt 0 discriminator 2 view .LVU429
 1752 017a 0133     		adds	r3, r3, #1
 1753              	.LVL101:
 560:Src/iot.c     ****                     {
 1754              		.loc 1 560 60 discriminator 2 view .LVU430
 1755 017c DBB2     		uxtb	r3, r3
 1756              	.LVL102:
 560:Src/iot.c     ****                     {
 1757              		.loc 1 560 60 discriminator 2 view .LVU431
 1758 017e F6E7     		b	.L73
 1759              	.L122:
 556:Src/iot.c     ****                 uint8_t i = V_ZERO;
 1760              		.loc 1 556 25 view .LVU432
 1761 0180 0027     		movs	r7, #0
 1762              	.L75:
 1763              	.LVL103:
 563:Src/iot.c     ****                         {
 564:Src/iot.c     ****                             j = i;
 565:Src/iot.c     ****                             break;
 566:Src/iot.c     ****                         }
 567:Src/iot.c     ****                     }
 568:Src/iot.c     ****                     if(i == g_usart5_tx_len)
 1764              		.loc 1 568 21 is_stmt 1 view .LVU433
 1765              		.loc 1 568 23 is_stmt 0 view .LVU434
 1766 0182 9D42     		cmp	r5, r3
 1767 0184 14D0     		beq	.L123
 569:Src/iot.c     ****                     {
 570:Src/iot.c     ****                         g_nb_ctrl_step = g_nb_curren_step;
 571:Src/iot.c     ****                         //g_nb_send_cmd_cnt++;
 572:Src/iot.c     ****                         g_nb_send_cmd_overtime = V_ZERO;
ARM GAS  C:\Users\LY\AppData\Local\Temp\cc36mcgd.s 			page 47


 573:Src/iot.c     ****                         printf("no network to connect!\r\n");
 574:Src/iot.c     ****                     }
 575:Src/iot.c     ****                     else
 576:Src/iot.c     ****                     {
 577:Src/iot.c     ****                         printf("Search the Internet:");
 1768              		.loc 1 577 25 is_stmt 1 view .LVU435
 1769 0186 5348     		ldr	r0, .L136+72
 1770 0188 FFF7FEFF 		bl	printf
 1771              	.LVL104:
 578:Src/iot.c     ****                         for(i = j+V_ONE; i < g_usart5_tx_len; i++)
 1772              		.loc 1 578 25 view .LVU436
 1773              		.loc 1 578 31 is_stmt 0 view .LVU437
 1774 018c 7C1C     		adds	r4, r7, #1
 1775              	.LVL105:
 1776              		.loc 1 578 31 view .LVU438
 1777 018e E4B2     		uxtb	r4, r4
 1778              	.LVL106:
 1779              	.L78:
 1780              		.loc 1 578 42 is_stmt 1 discriminator 1 view .LVU439
 1781              		.loc 1 578 44 is_stmt 0 discriminator 1 view .LVU440
 1782 0190 3E4B     		ldr	r3, .L136
 1783 0192 1B78     		ldrb	r3, [r3]	@ zero_extendqisi2
 1784              		.loc 1 578 25 discriminator 1 view .LVU441
 1785 0194 A342     		cmp	r3, r4
 1786 0196 14D9     		bls	.L79
 579:Src/iot.c     ****                         {
 580:Src/iot.c     ****                             printf("%c", ar_usart5_tx_buffer[i]);
 1787              		.loc 1 580 29 is_stmt 1 view .LVU442
 1788              		.loc 1 580 61 is_stmt 0 view .LVU443
 1789 0198 3F4D     		ldr	r5, .L136+12
 1790              		.loc 1 580 29 view .LVU444
 1791 019a 285D     		ldrb	r0, [r5, r4]	@ zero_extendqisi2
 1792 019c FFF7FEFF 		bl	putchar
 1793              	.LVL107:
 581:Src/iot.c     ****                             if(ar_usart5_tx_buffer[i] == '"')
 1794              		.loc 1 581 29 is_stmt 1 view .LVU445
 1795              		.loc 1 581 51 is_stmt 0 view .LVU446
 1796 01a0 2B5D     		ldrb	r3, [r5, r4]	@ zero_extendqisi2
 1797              		.loc 1 581 31 view .LVU447
 1798 01a2 222B     		cmp	r3, #34
 1799 01a4 0DD0     		beq	.L79
 578:Src/iot.c     ****                         for(i = j+V_ONE; i < g_usart5_tx_len; i++)
 1800              		.loc 1 578 63 is_stmt 1 discriminator 2 view .LVU448
 578:Src/iot.c     ****                         for(i = j+V_ONE; i < g_usart5_tx_len; i++)
 1801              		.loc 1 578 64 is_stmt 0 discriminator 2 view .LVU449
 1802 01a6 0134     		adds	r4, r4, #1
 1803              	.LVL108:
 578:Src/iot.c     ****                         for(i = j+V_ONE; i < g_usart5_tx_len; i++)
 1804              		.loc 1 578 64 discriminator 2 view .LVU450
 1805 01a8 E4B2     		uxtb	r4, r4
 1806              	.LVL109:
 578:Src/iot.c     ****                         for(i = j+V_ONE; i < g_usart5_tx_len; i++)
 1807              		.loc 1 578 64 discriminator 2 view .LVU451
 1808 01aa F1E7     		b	.L78
 1809              	.LVL110:
 1810              	.L109:
 564:Src/iot.c     ****                             break;
ARM GAS  C:\Users\LY\AppData\Local\Temp\cc36mcgd.s 			page 48


 1811              		.loc 1 564 31 view .LVU452
 1812 01ac 1F46     		mov	r7, r3
 1813 01ae E8E7     		b	.L75
 1814              	.LVL111:
 1815              	.L123:
 570:Src/iot.c     ****                         //g_nb_send_cmd_cnt++;
 1816              		.loc 1 570 25 is_stmt 1 view .LVU453
 570:Src/iot.c     ****                         //g_nb_send_cmd_cnt++;
 1817              		.loc 1 570 40 is_stmt 0 view .LVU454
 1818 01b0 3C4B     		ldr	r3, .L136+24
 1819              	.LVL112:
 570:Src/iot.c     ****                         //g_nb_send_cmd_cnt++;
 1820              		.loc 1 570 40 view .LVU455
 1821 01b2 1E70     		strb	r6, [r3]
 572:Src/iot.c     ****                         printf("no network to connect!\r\n");
 1822              		.loc 1 572 25 is_stmt 1 view .LVU456
 572:Src/iot.c     ****                         printf("no network to connect!\r\n");
 1823              		.loc 1 572 48 is_stmt 0 view .LVU457
 1824 01b4 3E4B     		ldr	r3, .L136+36
 1825 01b6 0022     		movs	r2, #0
 1826 01b8 1A80     		strh	r2, [r3]	@ movhi
 573:Src/iot.c     ****                     }
 1827              		.loc 1 573 25 is_stmt 1 view .LVU458
 1828 01ba 4748     		ldr	r0, .L136+76
 1829 01bc FFF7FEFF 		bl	puts
 1830              	.LVL113:
 1831 01c0 69E1     		b	.L52
 1832              	.LVL114:
 1833              	.L79:
 582:Src/iot.c     ****                             {
 583:Src/iot.c     ****                                 break;
 584:Src/iot.c     ****                             }
 585:Src/iot.c     ****                         }
 586:Src/iot.c     ****                         if(i != g_usart5_tx_len)
 1834              		.loc 1 586 25 view .LVU459
 1835              		.loc 1 586 30 is_stmt 0 view .LVU460
 1836 01c2 324B     		ldr	r3, .L136
 1837 01c4 1B78     		ldrb	r3, [r3]	@ zero_extendqisi2
 1838              		.loc 1 586 27 view .LVU461
 1839 01c6 A342     		cmp	r3, r4
 1840 01c8 00F06581 		beq	.L52
 587:Src/iot.c     ****                         {
 588:Src/iot.c     ****                             g_network_len = i-j-L_ONE;
 1841              		.loc 1 588 29 is_stmt 1 view .LVU462
 1842              		.loc 1 588 46 is_stmt 0 view .LVU463
 1843 01cc E21B     		subs	r2, r4, r7
 1844 01ce D2B2     		uxtb	r2, r2
 1845              		.loc 1 588 48 view .LVU464
 1846 01d0 013A     		subs	r2, r2, #1
 1847 01d2 D2B2     		uxtb	r2, r2
 1848              		.loc 1 588 43 view .LVU465
 1849 01d4 414B     		ldr	r3, .L136+80
 1850 01d6 1A70     		strb	r2, [r3]
 589:Src/iot.c     ****                             if(g_network_len < 50)
 1851              		.loc 1 589 29 is_stmt 1 view .LVU466
 1852              		.loc 1 589 31 is_stmt 0 view .LVU467
 1853 01d8 312A     		cmp	r2, #49
ARM GAS  C:\Users\LY\AppData\Local\Temp\cc36mcgd.s 			page 49


 1854 01da 11D8     		bhi	.L81
 590:Src/iot.c     ****                             {
 591:Src/iot.c     ****                                 memcpy(ar_network, &ar_usart5_tx_buffer[j+V_ONE], g_network_len);
 1855              		.loc 1 591 33 is_stmt 1 view .LVU468
 1856              		.loc 1 591 74 is_stmt 0 view .LVU469
 1857 01dc 0137     		adds	r7, r7, #1
 1858              	.LVL115:
 1859              		.loc 1 591 33 view .LVU470
 1860 01de 2E49     		ldr	r1, .L136+12
 1861 01e0 3944     		add	r1, r1, r7
 1862 01e2 3F48     		ldr	r0, .L136+84
 1863 01e4 FFF7FEFF 		bl	memcpy
 1864              	.LVL116:
 592:Src/iot.c     ****                                 g_nb_ctrl_step = IOT_CONNETC_NET;
 1865              		.loc 1 592 33 is_stmt 1 view .LVU471
 1866              		.loc 1 592 48 is_stmt 0 view .LVU472
 1867 01e8 2E4B     		ldr	r3, .L136+24
 1868 01ea 0522     		movs	r2, #5
 1869 01ec 1A70     		strb	r2, [r3]
 593:Src/iot.c     ****                                 g_nb_curren_step = V_ZERO;
 1870              		.loc 1 593 33 is_stmt 1 view .LVU473
 1871              		.loc 1 593 50 is_stmt 0 view .LVU474
 1872 01ee 0023     		movs	r3, #0
 1873 01f0 2A4A     		ldr	r2, .L136+16
 1874 01f2 1370     		strb	r3, [r2]
 594:Src/iot.c     ****                                 g_nb_send_cmd_cnt = V_ZERO;
 1875              		.loc 1 594 33 is_stmt 1 view .LVU475
 1876              		.loc 1 594 51 is_stmt 0 view .LVU476
 1877 01f4 2C4A     		ldr	r2, .L136+28
 1878 01f6 1370     		strb	r3, [r2]
 595:Src/iot.c     ****                                 printf("search the Internet successfully!\r\n");
 1879              		.loc 1 595 33 is_stmt 1 view .LVU477
 1880 01f8 3A48     		ldr	r0, .L136+88
 1881 01fa FFF7FEFF 		bl	puts
 1882              	.LVL117:
 1883 01fe 4AE1     		b	.L52
 1884              	.LVL118:
 1885              	.L81:
 596:Src/iot.c     ****                             }
 597:Src/iot.c     ****                             else
 598:Src/iot.c     ****                             {
 599:Src/iot.c     ****                                 g_nb_ctrl_step = g_nb_curren_step;
 1886              		.loc 1 599 33 view .LVU478
 1887              		.loc 1 599 48 is_stmt 0 view .LVU479
 1888 0200 264B     		ldr	r3, .L136+16
 1889 0202 1A78     		ldrb	r2, [r3]	@ zero_extendqisi2
 1890 0204 274B     		ldr	r3, .L136+24
 1891 0206 1A70     		strb	r2, [r3]
 600:Src/iot.c     ****                                 //g_nb_send_cmd_cnt++;
 601:Src/iot.c     ****                                 g_nb_send_cmd_overtime = V_ZERO;
 1892              		.loc 1 601 33 is_stmt 1 view .LVU480
 1893              		.loc 1 601 56 is_stmt 0 view .LVU481
 1894 0208 294B     		ldr	r3, .L136+36
 1895 020a 0022     		movs	r2, #0
 1896 020c 1A80     		strh	r2, [r3]	@ movhi
 602:Src/iot.c     ****                                 printf("networrk name length err!\r\n");
 1897              		.loc 1 602 33 is_stmt 1 view .LVU482
ARM GAS  C:\Users\LY\AppData\Local\Temp\cc36mcgd.s 			page 50


 1898 020e 3648     		ldr	r0, .L136+92
 1899 0210 FFF7FEFF 		bl	puts
 1900              	.LVL119:
 1901 0214 3FE1     		b	.L52
 1902              	.LVL120:
 1903              	.L121:
 603:Src/iot.c     ****                             }
 604:Src/iot.c     ****                         }
 605:Src/iot.c     ****                     }
 606:Src/iot.c     ****                 }
 607:Src/iot.c     ****                 else
 608:Src/iot.c     ****                 {
 609:Src/iot.c     ****                     g_nb_ctrl_step = g_nb_curren_step;
 1904              		.loc 1 609 21 view .LVU483
 1905              		.loc 1 609 36 is_stmt 0 view .LVU484
 1906 0216 234B     		ldr	r3, .L136+24
 1907 0218 1E70     		strb	r6, [r3]
 610:Src/iot.c     ****                     //g_nb_send_cmd_cnt++;
 611:Src/iot.c     ****                     g_nb_send_cmd_overtime = V_ZERO;
 1908              		.loc 1 611 21 is_stmt 1 view .LVU485
 1909              		.loc 1 611 44 is_stmt 0 view .LVU486
 1910 021a 254B     		ldr	r3, .L136+36
 1911 021c 0022     		movs	r2, #0
 1912 021e 1A80     		strh	r2, [r3]	@ movhi
 612:Src/iot.c     ****                     printf("receive iot query networrk err!\r\n");
 1913              		.loc 1 612 21 is_stmt 1 view .LVU487
 1914 0220 3248     		ldr	r0, .L136+96
 1915 0222 FFF7FEFF 		bl	puts
 1916              	.LVL121:
 1917 0226 36E1     		b	.L52
 1918              	.LVL122:
 1919              	.L60:
 1920              		.loc 1 612 21 is_stmt 0 view .LVU488
 1921              	.LBE9:
 1922              	.LBB10:
 613:Src/iot.c     ****                 }
 614:Src/iot.c     ****                 break;
 615:Src/iot.c     ****             }
 616:Src/iot.c     ****             case IOT_CONNETC_NET:
 617:Src/iot.c     ****             {
 618:Src/iot.c     ****                 uint8_t j = V_ZERO;
 1923              		.loc 1 618 17 is_stmt 1 view .LVU489
 619:Src/iot.c     ****                 uint8_t k = V_ZERO;
 1924              		.loc 1 619 17 view .LVU490
 620:Src/iot.c     ****                 if(strstr((char*)ar_usart5_tx_buffer,"OK") != NULL)
 1925              		.loc 1 620 17 view .LVU491
 1926              		.loc 1 620 20 is_stmt 0 view .LVU492
 1927 0228 1D49     		ldr	r1, .L136+20
 1928 022a 1B48     		ldr	r0, .L136+12
 1929 022c FFF7FEFF 		bl	strstr
 1930              	.LVL123:
 1931              		.loc 1 620 19 view .LVU493
 1932 0230 0028     		cmp	r0, #0
 1933 0232 00F08980 		beq	.L82
 621:Src/iot.c     ****                 {
 622:Src/iot.c     ****                     printf("receive ok\n");
 1934              		.loc 1 622 21 is_stmt 1 view .LVU494
ARM GAS  C:\Users\LY\AppData\Local\Temp\cc36mcgd.s 			page 51


 1935 0236 2E48     		ldr	r0, .L136+100
 1936 0238 FFF7FEFF 		bl	puts
 1937              	.LVL124:
 623:Src/iot.c     ****                     for(uint8_t i = V_ZERO; i < g_usart5_tx_len; i++)
 1938              		.loc 1 623 21 view .LVU495
 1939              	.LBB11:
 1940              		.loc 1 623 25 view .LVU496
 1941              		.loc 1 623 33 is_stmt 0 view .LVU497
 1942 023c 0024     		movs	r4, #0
 1943              	.LVL125:
 1944              	.L83:
 1945              		.loc 1 623 45 is_stmt 1 discriminator 1 view .LVU498
 1946              		.loc 1 623 47 is_stmt 0 discriminator 1 view .LVU499
 1947 023e 134B     		ldr	r3, .L136
 1948 0240 1D78     		ldrb	r5, [r3]	@ zero_extendqisi2
 1949              		.loc 1 623 21 discriminator 1 view .LVU500
 1950 0242 A542     		cmp	r5, r4
 1951 0244 0CD9     		bls	.L124
 624:Src/iot.c     ****                     {
 625:Src/iot.c     ****                         if((memcmp(&ar_usart5_tx_buffer[i], "MIPCALL:", L_EIGHT) == V_ZERO))
 1952              		.loc 1 625 25 is_stmt 1 view .LVU501
 1953              		.loc 1 625 29 is_stmt 0 view .LVU502
 1954 0246 0822     		movs	r2, #8
 1955 0248 2A49     		ldr	r1, .L136+104
 1956 024a 1348     		ldr	r0, .L136+12
 1957 024c 2044     		add	r0, r0, r4
 1958 024e FFF7FEFF 		bl	memcmp
 1959              	.LVL126:
 1960              		.loc 1 625 27 view .LVU503
 1961 0252 10B1     		cbz	r0, .L125
 623:Src/iot.c     ****                     for(uint8_t i = V_ZERO; i < g_usart5_tx_len; i++)
 1962              		.loc 1 623 66 is_stmt 1 discriminator 2 view .LVU504
 623:Src/iot.c     ****                     for(uint8_t i = V_ZERO; i < g_usart5_tx_len; i++)
 1963              		.loc 1 623 67 is_stmt 0 discriminator 2 view .LVU505
 1964 0254 0134     		adds	r4, r4, #1
 1965              	.LVL127:
 623:Src/iot.c     ****                     for(uint8_t i = V_ZERO; i < g_usart5_tx_len; i++)
 1966              		.loc 1 623 67 discriminator 2 view .LVU506
 1967 0256 E4B2     		uxtb	r4, r4
 1968              	.LVL128:
 623:Src/iot.c     ****                     for(uint8_t i = V_ZERO; i < g_usart5_tx_len; i++)
 1969              		.loc 1 623 67 discriminator 2 view .LVU507
 1970 0258 F1E7     		b	.L83
 1971              	.L125:
 626:Src/iot.c     ****                         {
 627:Src/iot.c     ****                             //printf("");
 628:Src/iot.c     ****                             j = i+L_EIGHT;
 1972              		.loc 1 628 29 is_stmt 1 view .LVU508
 1973              		.loc 1 628 31 is_stmt 0 view .LVU509
 1974 025a 0834     		adds	r4, r4, #8
 1975              	.LVL129:
 1976              		.loc 1 628 31 view .LVU510
 1977 025c E4B2     		uxtb	r4, r4
 1978              	.LVL130:
 629:Src/iot.c     ****                             break;
 1979              		.loc 1 629 29 is_stmt 1 view .LVU511
 1980 025e 00E0     		b	.L85
ARM GAS  C:\Users\LY\AppData\Local\Temp\cc36mcgd.s 			page 52


 1981              	.LVL131:
 1982              	.L124:
 1983              		.loc 1 629 29 is_stmt 0 view .LVU512
 1984              	.LBE11:
 618:Src/iot.c     ****                 uint8_t k = V_ZERO;
 1985              		.loc 1 618 25 view .LVU513
 1986 0260 0024     		movs	r4, #0
 1987              	.LVL132:
 1988              	.L85:
 630:Src/iot.c     ****                         }
 631:Src/iot.c     ****                     }
 632:Src/iot.c     ****                     if(j < g_usart5_tx_len)
 1989              		.loc 1 632 21 is_stmt 1 view .LVU514
 1990              		.loc 1 632 23 is_stmt 0 view .LVU515
 1991 0262 A542     		cmp	r5, r4
 1992 0264 65D9     		bls	.L126
 619:Src/iot.c     ****                 if(strstr((char*)ar_usart5_tx_buffer,"OK") != NULL)
 1993              		.loc 1 619 25 view .LVU516
 1994 0266 0026     		movs	r6, #0
 1995 0268 01E0     		b	.L87
 1996              	.LVL133:
 1997              	.L89:
 1998              	.LBB12:
 633:Src/iot.c     ****                     {
 634:Src/iot.c     ****                         for(uint8_t i = j; i < g_usart5_tx_len; i++)
 1999              		.loc 1 634 65 is_stmt 1 discriminator 2 view .LVU517
 2000              		.loc 1 634 66 is_stmt 0 discriminator 2 view .LVU518
 2001 026a 0134     		adds	r4, r4, #1
 2002              	.LVL134:
 2003              		.loc 1 634 66 discriminator 2 view .LVU519
 2004 026c E4B2     		uxtb	r4, r4
 2005              	.LVL135:
 2006              	.L87:
 2007              		.loc 1 634 44 is_stmt 1 discriminator 1 view .LVU520
 2008              		.loc 1 634 46 is_stmt 0 discriminator 1 view .LVU521
 2009 026e 074B     		ldr	r3, .L136
 2010 0270 1B78     		ldrb	r3, [r3]	@ zero_extendqisi2
 2011              		.loc 1 634 25 discriminator 1 view .LVU522
 2012 0272 A342     		cmp	r3, r4
 2013 0274 40D9     		bls	.L127
 635:Src/iot.c     ****                         {
 636:Src/iot.c     ****                             printf("%c", ar_usart5_tx_buffer[i]);
 2014              		.loc 1 636 29 is_stmt 1 view .LVU523
 2015              		.loc 1 636 61 is_stmt 0 view .LVU524
 2016 0276 084D     		ldr	r5, .L136+12
 2017              		.loc 1 636 29 view .LVU525
 2018 0278 285D     		ldrb	r0, [r5, r4]	@ zero_extendqisi2
 2019 027a FFF7FEFF 		bl	putchar
 2020              	.LVL136:
 637:Src/iot.c     ****                             if(ar_usart5_tx_buffer[i] == '.')   /*  .   .   .*/
 2021              		.loc 1 637 29 is_stmt 1 view .LVU526
 2022              		.loc 1 637 51 is_stmt 0 view .LVU527
 2023 027e 2B5D     		ldrb	r3, [r5, r4]	@ zero_extendqisi2
 2024              		.loc 1 637 31 view .LVU528
 2025 0280 2E2B     		cmp	r3, #46
 2026 0282 F2D1     		bne	.L89
 638:Src/iot.c     ****                             {
ARM GAS  C:\Users\LY\AppData\Local\Temp\cc36mcgd.s 			page 53


 639:Src/iot.c     ****                                 k++;
 2027              		.loc 1 639 33 is_stmt 1 view .LVU529
 2028              		.loc 1 639 34 is_stmt 0 view .LVU530
 2029 0284 0136     		adds	r6, r6, #1
 2030              	.LVL137:
 2031              		.loc 1 639 34 view .LVU531
 2032 0286 F6B2     		uxtb	r6, r6
 2033              	.LVL138:
 2034              		.loc 1 639 34 view .LVU532
 2035 0288 EFE7     		b	.L89
 2036              	.L137:
 2037 028a 00BF     		.align	2
 2038              	.L136:
 2039 028c 00000000 		.word	.LANCHOR8
 2040 0290 00000000 		.word	.LC19
 2041 0294 18000000 		.word	.LC20
 2042 0298 00000000 		.word	.LANCHOR9
 2043 029c 00000000 		.word	.LANCHOR14
 2044 02a0 28000000 		.word	.LC21
 2045 02a4 00000000 		.word	.LANCHOR10
 2046 02a8 00000000 		.word	.LANCHOR11
 2047 02ac 2C000000 		.word	.LC22
 2048 02b0 00000000 		.word	.LANCHOR15
 2049 02b4 3C000000 		.word	.LC23
 2050 02b8 58000000 		.word	.LC24
 2051 02bc 60000000 		.word	.LC25
 2052 02c0 74000000 		.word	.LC26
 2053 02c4 90000000 		.word	.LC27
 2054 02c8 A0000000 		.word	.LC28
 2055 02cc B0000000 		.word	.LC29
 2056 02d0 C4000000 		.word	.LC30
 2057 02d4 F4000000 		.word	.LC32
 2058 02d8 DC000000 		.word	.LC31
 2059 02dc 00000000 		.word	.LANCHOR18
 2060 02e0 00000000 		.word	.LANCHOR19
 2061 02e4 0C010000 		.word	.LC33
 2062 02e8 30010000 		.word	.LC34
 2063 02ec 4C010000 		.word	.LC35
 2064 02f0 70010000 		.word	.LC36
 2065 02f4 7C010000 		.word	.LC37
 2066              	.L127:
 2067              		.loc 1 639 34 view .LVU533
 2068              	.LBE12:
 640:Src/iot.c     ****                             }
 641:Src/iot.c     ****                         }
 642:Src/iot.c     ****                         if(k == V_THREE)
 2069              		.loc 1 642 25 is_stmt 1 view .LVU534
 2070              		.loc 1 642 27 is_stmt 0 view .LVU535
 2071 02f8 032E     		cmp	r6, #3
 2072 02fa 0AD0     		beq	.L128
 643:Src/iot.c     ****                         {
 644:Src/iot.c     **** 
 645:Src/iot.c     ****                             g_nb_ctrl_step = IOT_SET_HTTP_PARA;
 646:Src/iot.c     ****                             g_nb_curren_step = V_ZERO;
 647:Src/iot.c     ****                             g_nb_send_cmd_cnt = V_ZERO;
 648:Src/iot.c     ****                             printf("IOT MIPCALL SUCCESS!\r\n");
 649:Src/iot.c     ****                             HAL_Delay(1000);
ARM GAS  C:\Users\LY\AppData\Local\Temp\cc36mcgd.s 			page 54


 650:Src/iot.c     ****                         }
 651:Src/iot.c     ****                         else
 652:Src/iot.c     ****                         {
 653:Src/iot.c     ****                             g_nb_ctrl_step = g_nb_curren_step;
 2073              		.loc 1 653 29 is_stmt 1 view .LVU536
 2074              		.loc 1 653 44 is_stmt 0 view .LVU537
 2075 02fc 784B     		ldr	r3, .L138
 2076 02fe 1A78     		ldrb	r2, [r3]	@ zero_extendqisi2
 2077 0300 784B     		ldr	r3, .L138+4
 2078 0302 1A70     		strb	r2, [r3]
 654:Src/iot.c     ****                             //g_nb_send_cmd_cnt++;
 655:Src/iot.c     ****                             g_nb_send_cmd_overtime = V_ZERO;
 2079              		.loc 1 655 29 is_stmt 1 view .LVU538
 2080              		.loc 1 655 52 is_stmt 0 view .LVU539
 2081 0304 784B     		ldr	r3, .L138+8
 2082 0306 0022     		movs	r2, #0
 2083 0308 1A80     		strh	r2, [r3]	@ movhi
 656:Src/iot.c     ****                             printf("IOT MIPCALL FAILED 1!\r\n");
 2084              		.loc 1 656 29 is_stmt 1 view .LVU540
 2085 030a 7848     		ldr	r0, .L138+12
 2086 030c FFF7FEFF 		bl	puts
 2087              	.LVL139:
 2088 0310 C1E0     		b	.L52
 2089              	.L128:
 645:Src/iot.c     ****                             g_nb_curren_step = V_ZERO;
 2090              		.loc 1 645 29 view .LVU541
 645:Src/iot.c     ****                             g_nb_curren_step = V_ZERO;
 2091              		.loc 1 645 44 is_stmt 0 view .LVU542
 2092 0312 744B     		ldr	r3, .L138+4
 2093 0314 0D22     		movs	r2, #13
 2094 0316 1A70     		strb	r2, [r3]
 646:Src/iot.c     ****                             g_nb_send_cmd_cnt = V_ZERO;
 2095              		.loc 1 646 29 is_stmt 1 view .LVU543
 646:Src/iot.c     ****                             g_nb_send_cmd_cnt = V_ZERO;
 2096              		.loc 1 646 46 is_stmt 0 view .LVU544
 2097 0318 0023     		movs	r3, #0
 2098 031a 714A     		ldr	r2, .L138
 2099 031c 1370     		strb	r3, [r2]
 647:Src/iot.c     ****                             printf("IOT MIPCALL SUCCESS!\r\n");
 2100              		.loc 1 647 29 is_stmt 1 view .LVU545
 647:Src/iot.c     ****                             printf("IOT MIPCALL SUCCESS!\r\n");
 2101              		.loc 1 647 47 is_stmt 0 view .LVU546
 2102 031e 744A     		ldr	r2, .L138+16
 2103 0320 1370     		strb	r3, [r2]
 648:Src/iot.c     ****                             HAL_Delay(1000);
 2104              		.loc 1 648 29 is_stmt 1 view .LVU547
 2105 0322 7448     		ldr	r0, .L138+20
 2106 0324 FFF7FEFF 		bl	puts
 2107              	.LVL140:
 649:Src/iot.c     ****                         }
 2108              		.loc 1 649 29 view .LVU548
 2109 0328 4FF47A70 		mov	r0, #1000
 2110 032c FFF7FEFF 		bl	HAL_Delay
 2111              	.LVL141:
 2112 0330 B1E0     		b	.L52
 2113              	.LVL142:
 2114              	.L126:
ARM GAS  C:\Users\LY\AppData\Local\Temp\cc36mcgd.s 			page 55


 657:Src/iot.c     ****                         }
 658:Src/iot.c     ****                     }
 659:Src/iot.c     ****                     else
 660:Src/iot.c     ****                     {
 661:Src/iot.c     ****                         g_nb_ctrl_step = g_nb_curren_step;
 2115              		.loc 1 661 25 view .LVU549
 2116              		.loc 1 661 40 is_stmt 0 view .LVU550
 2117 0332 6B4B     		ldr	r3, .L138
 2118 0334 1A78     		ldrb	r2, [r3]	@ zero_extendqisi2
 2119 0336 6B4B     		ldr	r3, .L138+4
 2120 0338 1A70     		strb	r2, [r3]
 662:Src/iot.c     ****                         //g_nb_send_cmd_cnt++;
 663:Src/iot.c     ****                         g_nb_send_cmd_overtime = V_ZERO;
 2121              		.loc 1 663 25 is_stmt 1 view .LVU551
 2122              		.loc 1 663 48 is_stmt 0 view .LVU552
 2123 033a 6B4B     		ldr	r3, .L138+8
 2124 033c 0022     		movs	r2, #0
 2125 033e 1A80     		strh	r2, [r3]	@ movhi
 664:Src/iot.c     ****                         printf("IOT MIPCALL FAILED 2!\r\n");
 2126              		.loc 1 664 25 is_stmt 1 view .LVU553
 2127 0340 6D48     		ldr	r0, .L138+24
 2128 0342 FFF7FEFF 		bl	puts
 2129              	.LVL143:
 2130 0346 A6E0     		b	.L52
 2131              	.LVL144:
 2132              	.L82:
 665:Src/iot.c     ****                     }
 666:Src/iot.c     ****                 }
 667:Src/iot.c     ****                 else
 668:Src/iot.c     ****                 {
 669:Src/iot.c     ****                     g_nb_ctrl_step = g_nb_curren_step;
 2133              		.loc 1 669 21 view .LVU554
 2134              		.loc 1 669 36 is_stmt 0 view .LVU555
 2135 0348 664B     		ldr	r3, .L138+4
 2136 034a 1E70     		strb	r6, [r3]
 670:Src/iot.c     ****                     //g_nb_send_cmd_cnt++;
 671:Src/iot.c     ****                     g_nb_send_cmd_overtime = V_ZERO;
 2137              		.loc 1 671 21 is_stmt 1 view .LVU556
 2138              		.loc 1 671 44 is_stmt 0 view .LVU557
 2139 034c 664B     		ldr	r3, .L138+8
 2140 034e 0022     		movs	r2, #0
 2141 0350 1A80     		strh	r2, [r3]	@ movhi
 672:Src/iot.c     ****                     printf("IOT MIPCALL FAILED!\r\n");
 2142              		.loc 1 672 21 is_stmt 1 view .LVU558
 2143 0352 6A48     		ldr	r0, .L138+28
 2144 0354 FFF7FEFF 		bl	puts
 2145              	.LVL145:
 2146 0358 9DE0     		b	.L52
 2147              	.LVL146:
 2148              	.L59:
 2149              		.loc 1 672 21 is_stmt 0 view .LVU559
 2150              	.LBE10:
 673:Src/iot.c     ****                 }
 674:Src/iot.c     ****                 break;
 675:Src/iot.c     ****             }
 676:Src/iot.c     ****             case IOT_SET_HTTP_PARA:
 677:Src/iot.c     ****             {
ARM GAS  C:\Users\LY\AppData\Local\Temp\cc36mcgd.s 			page 56


 678:Src/iot.c     ****                 if(strstr((char*)ar_usart5_tx_buffer,"OK") != NULL)
 2151              		.loc 1 678 17 is_stmt 1 view .LVU560
 2152              		.loc 1 678 20 is_stmt 0 view .LVU561
 2153 035a 6949     		ldr	r1, .L138+32
 2154 035c 6948     		ldr	r0, .L138+36
 2155 035e FFF7FEFF 		bl	strstr
 2156              	.LVL147:
 2157              		.loc 1 678 19 view .LVU562
 2158 0362 78B1     		cbz	r0, .L111
 679:Src/iot.c     ****                 {
 680:Src/iot.c     ****                     g_nb_ctrl_step = IOT_START_HTTP_SERVICE;
 2159              		.loc 1 680 21 is_stmt 1 view .LVU563
 2160              		.loc 1 680 36 is_stmt 0 view .LVU564
 2161 0364 5F4B     		ldr	r3, .L138+4
 2162 0366 0E22     		movs	r2, #14
 2163 0368 1A70     		strb	r2, [r3]
 681:Src/iot.c     ****                     g_nb_curren_step = V_ZERO;
 2164              		.loc 1 681 21 is_stmt 1 view .LVU565
 2165              		.loc 1 681 38 is_stmt 0 view .LVU566
 2166 036a 0023     		movs	r3, #0
 2167 036c 5C4A     		ldr	r2, .L138
 2168 036e 1370     		strb	r3, [r2]
 682:Src/iot.c     ****                     g_nb_send_cmd_cnt = V_ZERO;
 2169              		.loc 1 682 21 is_stmt 1 view .LVU567
 2170              		.loc 1 682 39 is_stmt 0 view .LVU568
 2171 0370 5F4A     		ldr	r2, .L138+16
 2172 0372 1370     		strb	r3, [r2]
 683:Src/iot.c     ****                     //g_iot_power_on_cnt = V_ZERO;
 684:Src/iot.c     ****                     printf("IOT SET HTTP PARA OK!\r\n");
 2173              		.loc 1 684 21 is_stmt 1 view .LVU569
 2174 0374 6448     		ldr	r0, .L138+40
 2175 0376 FFF7FEFF 		bl	puts
 2176              	.LVL148:
 685:Src/iot.c     ****                     HAL_Delay(1000);
 2177              		.loc 1 685 21 view .LVU570
 2178 037a 4FF47A70 		mov	r0, #1000
 2179 037e FFF7FEFF 		bl	HAL_Delay
 2180              	.LVL149:
 2181 0382 88E0     		b	.L52
 2182              	.L111:
 2183              	.LBB13:
 686:Src/iot.c     ****                 }
 687:Src/iot.c     ****                 else
 688:Src/iot.c     ****                 {
 689:Src/iot.c     ****                     uint8_t i;
 690:Src/iot.c     ****                     for(i = 0; i < g_usart5_tx_len; i++)
 2184              		.loc 1 690 27 is_stmt 0 view .LVU571
 2185 0384 0023     		movs	r3, #0
 2186              	.L92:
 2187              	.LVL150:
 2188              		.loc 1 690 32 is_stmt 1 discriminator 1 view .LVU572
 2189              		.loc 1 690 21 is_stmt 0 discriminator 1 view .LVU573
 2190 0386 9D42     		cmp	r5, r3
 2191 0388 06D9     		bls	.L93
 691:Src/iot.c     ****                     {
 692:Src/iot.c     ****                         if(ar_usart5_tx_buffer[i] == 'O')
 2192              		.loc 1 692 25 is_stmt 1 view .LVU574
ARM GAS  C:\Users\LY\AppData\Local\Temp\cc36mcgd.s 			page 57


 2193              		.loc 1 692 47 is_stmt 0 view .LVU575
 2194 038a 5E4A     		ldr	r2, .L138+36
 2195 038c D25C     		ldrb	r2, [r2, r3]	@ zero_extendqisi2
 2196              		.loc 1 692 27 view .LVU576
 2197 038e 4F2A     		cmp	r2, #79
 2198 0390 02D0     		beq	.L93
 690:Src/iot.c     ****                     {
 2199              		.loc 1 690 53 is_stmt 1 discriminator 2 view .LVU577
 690:Src/iot.c     ****                     {
 2200              		.loc 1 690 54 is_stmt 0 discriminator 2 view .LVU578
 2201 0392 0133     		adds	r3, r3, #1
 2202              	.LVL151:
 690:Src/iot.c     ****                     {
 2203              		.loc 1 690 54 discriminator 2 view .LVU579
 2204 0394 DBB2     		uxtb	r3, r3
 2205              	.LVL152:
 690:Src/iot.c     ****                     {
 2206              		.loc 1 690 54 discriminator 2 view .LVU580
 2207 0396 F6E7     		b	.L92
 2208              	.L93:
 693:Src/iot.c     ****                         {
 694:Src/iot.c     ****                             break;
 695:Src/iot.c     ****                         }
 696:Src/iot.c     ****                     }
 697:Src/iot.c     ****                     if(ar_usart5_tx_buffer[i+L_ONE] == 'K')
 2209              		.loc 1 697 21 is_stmt 1 view .LVU581
 2210              		.loc 1 697 45 is_stmt 0 view .LVU582
 2211 0398 0133     		adds	r3, r3, #1
 2212              	.LVL153:
 2213              		.loc 1 697 43 view .LVU583
 2214 039a 5A4A     		ldr	r2, .L138+36
 2215 039c D35C     		ldrb	r3, [r2, r3]	@ zero_extendqisi2
 2216              		.loc 1 697 23 view .LVU584
 2217 039e 4B2B     		cmp	r3, #75
 2218 03a0 08D0     		beq	.L129
 698:Src/iot.c     ****                     {
 699:Src/iot.c     ****                         g_nb_ctrl_step = IOT_START_HTTP_SERVICE;
 700:Src/iot.c     ****                         g_nb_curren_step = V_ZERO;
 701:Src/iot.c     ****                         g_nb_send_cmd_cnt = V_ZERO;
 702:Src/iot.c     ****                         //g_iot_power_on_cnt = V_ZERO;
 703:Src/iot.c     ****                         printf("IOT SET HTTP PARA OK!\r\n");
 704:Src/iot.c     ****                         HAL_Delay(1000);
 705:Src/iot.c     ****                     }
 706:Src/iot.c     ****                     else
 707:Src/iot.c     ****                     {
 708:Src/iot.c     ****                         g_nb_ctrl_step = g_nb_curren_step;
 2219              		.loc 1 708 25 is_stmt 1 view .LVU585
 2220              		.loc 1 708 40 is_stmt 0 view .LVU586
 2221 03a2 504B     		ldr	r3, .L138+4
 2222 03a4 1E70     		strb	r6, [r3]
 709:Src/iot.c     ****                         //g_nb_send_cmd_cnt++;
 710:Src/iot.c     ****                         g_nb_send_cmd_overtime = V_ZERO;
 2223              		.loc 1 710 25 is_stmt 1 view .LVU587
 2224              		.loc 1 710 48 is_stmt 0 view .LVU588
 2225 03a6 504B     		ldr	r3, .L138+8
 2226 03a8 0022     		movs	r2, #0
 2227 03aa 1A80     		strh	r2, [r3]	@ movhi
ARM GAS  C:\Users\LY\AppData\Local\Temp\cc36mcgd.s 			page 58


 711:Src/iot.c     ****                         printf("receive set http param err!\r\n");
 2228              		.loc 1 711 25 is_stmt 1 view .LVU589
 2229 03ac 5748     		ldr	r0, .L138+44
 2230 03ae FFF7FEFF 		bl	puts
 2231              	.LVL154:
 2232 03b2 70E0     		b	.L52
 2233              	.L129:
 699:Src/iot.c     ****                         g_nb_curren_step = V_ZERO;
 2234              		.loc 1 699 25 view .LVU590
 699:Src/iot.c     ****                         g_nb_curren_step = V_ZERO;
 2235              		.loc 1 699 40 is_stmt 0 view .LVU591
 2236 03b4 4B4B     		ldr	r3, .L138+4
 2237 03b6 0E22     		movs	r2, #14
 2238 03b8 1A70     		strb	r2, [r3]
 700:Src/iot.c     ****                         g_nb_send_cmd_cnt = V_ZERO;
 2239              		.loc 1 700 25 is_stmt 1 view .LVU592
 700:Src/iot.c     ****                         g_nb_send_cmd_cnt = V_ZERO;
 2240              		.loc 1 700 42 is_stmt 0 view .LVU593
 2241 03ba 0023     		movs	r3, #0
 2242 03bc 484A     		ldr	r2, .L138
 2243 03be 1370     		strb	r3, [r2]
 701:Src/iot.c     ****                         //g_iot_power_on_cnt = V_ZERO;
 2244              		.loc 1 701 25 is_stmt 1 view .LVU594
 701:Src/iot.c     ****                         //g_iot_power_on_cnt = V_ZERO;
 2245              		.loc 1 701 43 is_stmt 0 view .LVU595
 2246 03c0 4B4A     		ldr	r2, .L138+16
 2247 03c2 1370     		strb	r3, [r2]
 703:Src/iot.c     ****                         HAL_Delay(1000);
 2248              		.loc 1 703 25 is_stmt 1 view .LVU596
 2249 03c4 5048     		ldr	r0, .L138+40
 2250 03c6 FFF7FEFF 		bl	puts
 2251              	.LVL155:
 704:Src/iot.c     ****                     }
 2252              		.loc 1 704 25 view .LVU597
 2253 03ca 4FF47A70 		mov	r0, #1000
 2254 03ce FFF7FEFF 		bl	HAL_Delay
 2255              	.LVL156:
 2256 03d2 60E0     		b	.L52
 2257              	.L58:
 704:Src/iot.c     ****                     }
 2258              		.loc 1 704 25 is_stmt 0 view .LVU598
 2259              	.LBE13:
 2260              	.LBB14:
 712:Src/iot.c     ****                     }
 713:Src/iot.c     ****                 }
 714:Src/iot.c     ****                 break;
 715:Src/iot.c     ****             }
 716:Src/iot.c     ****             case IOT_START_HTTP_SERVICE:
 717:Src/iot.c     ****             {
 718:Src/iot.c     ****                 uint8_t j = V_ZERO;
 2261              		.loc 1 718 17 is_stmt 1 view .LVU599
 2262              	.LVL157:
 719:Src/iot.c     ****                 
 720:Src/iot.c     ****                 if(strstr((char*)ar_usart5_tx_buffer,"OK") != NULL)
 2263              		.loc 1 720 17 view .LVU600
 2264              		.loc 1 720 20 is_stmt 0 view .LVU601
 2265 03d4 4A49     		ldr	r1, .L138+32
ARM GAS  C:\Users\LY\AppData\Local\Temp\cc36mcgd.s 			page 59


 2266 03d6 4B48     		ldr	r0, .L138+36
 2267 03d8 FFF7FEFF 		bl	strstr
 2268              	.LVL158:
 2269              		.loc 1 720 19 view .LVU602
 2270 03dc 0028     		cmp	r0, #0
 2271 03de 38D0     		beq	.L130
 2272              	.LBB15:
 721:Src/iot.c     ****                 {
 722:Src/iot.c     ****                     for(uint8_t i = V_ZERO; i < g_usart5_tx_len; i++)
 2273              		.loc 1 722 33 view .LVU603
 2274 03e0 0024     		movs	r4, #0
 2275              	.LVL159:
 2276              	.L96:
 2277              		.loc 1 722 45 is_stmt 1 discriminator 1 view .LVU604
 2278              		.loc 1 722 21 is_stmt 0 discriminator 1 view .LVU605
 2279 03e2 A542     		cmp	r5, r4
 2280 03e4 0CD9     		bls	.L131
 723:Src/iot.c     ****                     {
 724:Src/iot.c     ****                         if((memcmp(&ar_usart5_tx_buffer[i], "HTTP:", L_FIVE) == V_ZERO))
 2281              		.loc 1 724 25 is_stmt 1 view .LVU606
 2282              		.loc 1 724 29 is_stmt 0 view .LVU607
 2283 03e6 0522     		movs	r2, #5
 2284 03e8 4949     		ldr	r1, .L138+48
 2285 03ea 4648     		ldr	r0, .L138+36
 2286 03ec 2044     		add	r0, r0, r4
 2287 03ee FFF7FEFF 		bl	memcmp
 2288              	.LVL160:
 2289              		.loc 1 724 27 view .LVU608
 2290 03f2 10B1     		cbz	r0, .L132
 722:Src/iot.c     ****                     {
 2291              		.loc 1 722 66 is_stmt 1 discriminator 2 view .LVU609
 722:Src/iot.c     ****                     {
 2292              		.loc 1 722 67 is_stmt 0 discriminator 2 view .LVU610
 2293 03f4 0134     		adds	r4, r4, #1
 2294              	.LVL161:
 722:Src/iot.c     ****                     {
 2295              		.loc 1 722 67 discriminator 2 view .LVU611
 2296 03f6 E4B2     		uxtb	r4, r4
 2297              	.LVL162:
 722:Src/iot.c     ****                     {
 2298              		.loc 1 722 67 discriminator 2 view .LVU612
 2299 03f8 F3E7     		b	.L96
 2300              	.L132:
 725:Src/iot.c     ****                         {
 726:Src/iot.c     ****                             j = i+L_SIX;
 2301              		.loc 1 726 29 is_stmt 1 view .LVU613
 2302              		.loc 1 726 31 is_stmt 0 view .LVU614
 2303 03fa A31D     		adds	r3, r4, #6
 2304 03fc DBB2     		uxtb	r3, r3
 2305              	.LVL163:
 727:Src/iot.c     ****                             break;
 2306              		.loc 1 727 29 is_stmt 1 view .LVU615
 2307 03fe 00E0     		b	.L99
 2308              	.LVL164:
 2309              	.L131:
 2310              		.loc 1 727 29 is_stmt 0 view .LVU616
 2311              	.LBE15:
ARM GAS  C:\Users\LY\AppData\Local\Temp\cc36mcgd.s 			page 60


 718:Src/iot.c     ****                 
 2312              		.loc 1 718 25 view .LVU617
 2313 0400 0023     		movs	r3, #0
 2314              	.LVL165:
 2315              	.L99:
 728:Src/iot.c     ****                         }
 729:Src/iot.c     ****                     }
 730:Src/iot.c     ****                     if(j < g_usart5_tx_len)
 2316              		.loc 1 730 21 is_stmt 1 view .LVU618
 2317              		.loc 1 730 23 is_stmt 0 view .LVU619
 2318 0402 9D42     		cmp	r5, r3
 2319 0404 1CD9     		bls	.L101
 731:Src/iot.c     ****                     {
 732:Src/iot.c     ****                         if(ar_usart5_tx_buffer[j] == '1')     /*connect success*/
 2320              		.loc 1 732 25 is_stmt 1 view .LVU620
 2321              		.loc 1 732 47 is_stmt 0 view .LVU621
 2322 0406 3F4A     		ldr	r2, .L138+36
 2323 0408 D35C     		ldrb	r3, [r2, r3]	@ zero_extendqisi2
 2324              	.LVL166:
 2325              		.loc 1 732 27 view .LVU622
 2326 040a 312B     		cmp	r3, #49
 2327 040c 08D0     		beq	.L133
 733:Src/iot.c     ****                         {
 734:Src/iot.c     ****                             g_nb_ctrl_step = IOT_READ_HTTP_DATA;
 735:Src/iot.c     ****                             g_nb_curren_step = V_ZERO;
 736:Src/iot.c     ****                             g_nb_send_cmd_cnt = V_ZERO;
 737:Src/iot.c     ****                             //g_iot_power_on_cnt = V_ZERO;
 738:Src/iot.c     ****                             printf("IOT HTTP CONNECT SUCCESS OK!\r\n");
 739:Src/iot.c     ****                             HAL_Delay(1000);
 740:Src/iot.c     ****                         }
 741:Src/iot.c     ****                         else
 742:Src/iot.c     ****                         {
 743:Src/iot.c     ****                             g_nb_ctrl_step = g_nb_curren_step;
 2328              		.loc 1 743 29 is_stmt 1 view .LVU623
 2329              		.loc 1 743 44 is_stmt 0 view .LVU624
 2330 040e 354B     		ldr	r3, .L138+4
 2331 0410 1E70     		strb	r6, [r3]
 744:Src/iot.c     ****                             //g_nb_send_cmd_cnt++;
 745:Src/iot.c     ****                             g_nb_send_cmd_overtime = V_ZERO;
 2332              		.loc 1 745 29 is_stmt 1 view .LVU625
 2333              		.loc 1 745 52 is_stmt 0 view .LVU626
 2334 0412 354B     		ldr	r3, .L138+8
 2335 0414 0022     		movs	r2, #0
 2336 0416 1A80     		strh	r2, [r3]	@ movhi
 746:Src/iot.c     ****                             printf("IOT START HTTP SERVICE ERR!\r\n");
 2337              		.loc 1 746 29 is_stmt 1 view .LVU627
 2338 0418 3E48     		ldr	r0, .L138+52
 2339 041a FFF7FEFF 		bl	puts
 2340              	.LVL167:
 2341 041e 3AE0     		b	.L52
 2342              	.L133:
 734:Src/iot.c     ****                             g_nb_curren_step = V_ZERO;
 2343              		.loc 1 734 29 view .LVU628
 734:Src/iot.c     ****                             g_nb_curren_step = V_ZERO;
 2344              		.loc 1 734 44 is_stmt 0 view .LVU629
 2345 0420 304B     		ldr	r3, .L138+4
 2346 0422 0F22     		movs	r2, #15
ARM GAS  C:\Users\LY\AppData\Local\Temp\cc36mcgd.s 			page 61


 2347 0424 1A70     		strb	r2, [r3]
 735:Src/iot.c     ****                             g_nb_send_cmd_cnt = V_ZERO;
 2348              		.loc 1 735 29 is_stmt 1 view .LVU630
 735:Src/iot.c     ****                             g_nb_send_cmd_cnt = V_ZERO;
 2349              		.loc 1 735 46 is_stmt 0 view .LVU631
 2350 0426 0023     		movs	r3, #0
 2351 0428 2D4A     		ldr	r2, .L138
 2352 042a 1370     		strb	r3, [r2]
 736:Src/iot.c     ****                             //g_iot_power_on_cnt = V_ZERO;
 2353              		.loc 1 736 29 is_stmt 1 view .LVU632
 736:Src/iot.c     ****                             //g_iot_power_on_cnt = V_ZERO;
 2354              		.loc 1 736 47 is_stmt 0 view .LVU633
 2355 042c 304A     		ldr	r2, .L138+16
 2356 042e 1370     		strb	r3, [r2]
 738:Src/iot.c     ****                             HAL_Delay(1000);
 2357              		.loc 1 738 29 is_stmt 1 view .LVU634
 2358 0430 3948     		ldr	r0, .L138+56
 2359 0432 FFF7FEFF 		bl	puts
 2360              	.LVL168:
 739:Src/iot.c     ****                         }
 2361              		.loc 1 739 29 view .LVU635
 2362 0436 4FF47A70 		mov	r0, #1000
 2363 043a FFF7FEFF 		bl	HAL_Delay
 2364              	.LVL169:
 2365 043e 2AE0     		b	.L52
 2366              	.LVL170:
 2367              	.L101:
 747:Src/iot.c     ****                         }
 748:Src/iot.c     ****                     }
 749:Src/iot.c     ****                     else
 750:Src/iot.c     ****                     {
 751:Src/iot.c     ****                         g_nb_ctrl_step = g_nb_curren_step;
 2368              		.loc 1 751 25 view .LVU636
 2369              		.loc 1 751 40 is_stmt 0 view .LVU637
 2370 0440 284B     		ldr	r3, .L138+4
 2371              	.LVL171:
 2372              		.loc 1 751 40 view .LVU638
 2373 0442 1E70     		strb	r6, [r3]
 752:Src/iot.c     ****                         //g_nb_send_cmd_cnt++;
 753:Src/iot.c     ****                         g_nb_send_cmd_overtime = V_ZERO;
 2374              		.loc 1 753 25 is_stmt 1 view .LVU639
 2375              		.loc 1 753 48 is_stmt 0 view .LVU640
 2376 0444 284B     		ldr	r3, .L138+8
 2377 0446 0022     		movs	r2, #0
 2378 0448 1A80     		strh	r2, [r3]	@ movhi
 754:Src/iot.c     ****                         printf("IOT START HTTP SERVICE ERR!\r\n");
 2379              		.loc 1 754 25 is_stmt 1 view .LVU641
 2380 044a 3248     		ldr	r0, .L138+52
 2381 044c FFF7FEFF 		bl	puts
 2382              	.LVL172:
 2383 0450 21E0     		b	.L52
 2384              	.LVL173:
 2385              	.L130:
 755:Src/iot.c     ****                     }
 756:Src/iot.c     ****                 }
 757:Src/iot.c     ****                 else
 758:Src/iot.c     ****                 {
ARM GAS  C:\Users\LY\AppData\Local\Temp\cc36mcgd.s 			page 62


 759:Src/iot.c     ****                     g_nb_ctrl_step = g_nb_curren_step;
 2386              		.loc 1 759 21 view .LVU642
 2387              		.loc 1 759 36 is_stmt 0 view .LVU643
 2388 0452 244B     		ldr	r3, .L138+4
 2389 0454 1E70     		strb	r6, [r3]
 760:Src/iot.c     ****                     //g_nb_send_cmd_cnt++;
 761:Src/iot.c     ****                     g_nb_send_cmd_overtime = V_ZERO;
 2390              		.loc 1 761 21 is_stmt 1 view .LVU644
 2391              		.loc 1 761 44 is_stmt 0 view .LVU645
 2392 0456 244B     		ldr	r3, .L138+8
 2393 0458 0022     		movs	r2, #0
 2394 045a 1A80     		strh	r2, [r3]	@ movhi
 762:Src/iot.c     ****                     printf("IOT START HTTP SERVICE ERR!\r\n");
 2395              		.loc 1 762 21 is_stmt 1 view .LVU646
 2396 045c 2D48     		ldr	r0, .L138+52
 2397 045e FFF7FEFF 		bl	puts
 2398              	.LVL174:
 2399 0462 18E0     		b	.L52
 2400              	.LVL175:
 2401              	.L106:
 2402              		.loc 1 762 21 is_stmt 0 view .LVU647
 2403              	.LBE14:
 463:Src/iot.c     ****         {
 2404              		.loc 1 463 9 view .LVU648
 2405 0464 0024     		movs	r4, #0
 2406              	.LVL176:
 2407              	.L56:
 2408              	.LBB16:
 2409              	.LBB17:
 763:Src/iot.c     ****                 }
 764:Src/iot.c     ****                 break;
 765:Src/iot.c     ****             }
 766:Src/iot.c     ****             case IOT_READ_HTTP_DATA:
 767:Src/iot.c     ****             {
 768:Src/iot.c     ****                 uint8_t j = V_ZERO;
 769:Src/iot.c     ****                 //printf("step IOT_READ_HTTP_DATA\n");
 770:Src/iot.c     ****                 //if(strstr((char*)ar_usart5_tx_buffer,"OK") != NULL)
 771:Src/iot.c     ****                 {
 772:Src/iot.c     ****                     for(uint8_t i = V_ZERO; i < g_usart5_tx_len; i++)
 2410              		.loc 1 772 45 is_stmt 1 discriminator 1 view .LVU649
 2411              		.loc 1 772 21 is_stmt 0 discriminator 1 view .LVU650
 2412 0466 A542     		cmp	r5, r4
 2413 0468 09D9     		bls	.L134
 773:Src/iot.c     ****                     {
 774:Src/iot.c     ****                         if((memcmp(&ar_usart5_tx_buffer[i], "0000", L_FOUR) == V_ZERO))
 2414              		.loc 1 774 25 is_stmt 1 view .LVU651
 2415              		.loc 1 774 29 is_stmt 0 view .LVU652
 2416 046a 0422     		movs	r2, #4
 2417 046c 2B49     		ldr	r1, .L138+60
 2418 046e 2548     		ldr	r0, .L138+36
 2419 0470 2044     		add	r0, r0, r4
 2420 0472 FFF7FEFF 		bl	memcmp
 2421              	.LVL177:
 2422              		.loc 1 774 27 view .LVU653
 2423 0476 18B1     		cbz	r0, .L103
 772:Src/iot.c     ****                     {
 2424              		.loc 1 772 66 is_stmt 1 discriminator 2 view .LVU654
ARM GAS  C:\Users\LY\AppData\Local\Temp\cc36mcgd.s 			page 63


 772:Src/iot.c     ****                     {
 2425              		.loc 1 772 67 is_stmt 0 discriminator 2 view .LVU655
 2426 0478 0134     		adds	r4, r4, #1
 2427              	.LVL178:
 772:Src/iot.c     ****                     {
 2428              		.loc 1 772 67 discriminator 2 view .LVU656
 2429 047a E4B2     		uxtb	r4, r4
 2430              	.LVL179:
 772:Src/iot.c     ****                     {
 2431              		.loc 1 772 67 discriminator 2 view .LVU657
 2432 047c F3E7     		b	.L56
 2433              	.L134:
 772:Src/iot.c     ****                     {
 2434              		.loc 1 772 67 discriminator 2 view .LVU658
 2435              	.LBE17:
 768:Src/iot.c     ****                 //printf("step IOT_READ_HTTP_DATA\n");
 2436              		.loc 1 768 25 view .LVU659
 2437 047e 0024     		movs	r4, #0
 2438              	.LVL180:
 2439              	.L103:
 775:Src/iot.c     ****                         {
 776:Src/iot.c     ****                             j = i;
 777:Src/iot.c     ****                             break;
 778:Src/iot.c     ****                         }
 779:Src/iot.c     ****                     }
 780:Src/iot.c     ****                     if(j < g_usart5_tx_len && j > V_ZERO)
 2440              		.loc 1 780 21 is_stmt 1 view .LVU660
 2441              		.loc 1 780 23 is_stmt 0 view .LVU661
 2442 0480 A542     		cmp	r5, r4
 2443 0482 00D9     		bls	.L105
 2444              		.loc 1 780 44 discriminator 1 view .LVU662
 2445 0484 44B9     		cbnz	r4, .L135
 2446              	.L105:
 781:Src/iot.c     ****                     {
 782:Src/iot.c     ****                         g_nb_ctrl_step = V_ZERO;
 783:Src/iot.c     ****                         g_nb_curren_step = V_ZERO;
 784:Src/iot.c     ****                         g_nb_send_cmd_cnt = V_ZERO;
 785:Src/iot.c     ****                         g_iot_power_on_cnt = V_ZERO;
 786:Src/iot.c     ****                         printf("IOT HTTP GET SUCCESS!\r\n");
 787:Src/iot.c     ****                         HAL_Delay(1000);
 788:Src/iot.c     ****                         iot_power_off_ctrl();
 789:Src/iot.c     ****                         if(g_iot_start_test == V_ONE)
 790:Src/iot.c     ****                         {
 791:Src/iot.c     ****                             g_iot_start_test = V_ZERO;
 792:Src/iot.c     ****                             HAL_UART_Transmit(&hlpuart1, ar_resp_iot_test_success, 0x1B, 0xffffff);
 793:Src/iot.c     ****                             printf("IOT TEST SUCCESSED!\r\n");
 794:Src/iot.c     ****                         }
 795:Src/iot.c     ****                     }
 796:Src/iot.c     ****                     else
 797:Src/iot.c     ****                     {
 798:Src/iot.c     ****                         g_nb_ctrl_step = g_nb_curren_step;
 2447              		.loc 1 798 25 is_stmt 1 view .LVU663
 2448              		.loc 1 798 40 is_stmt 0 view .LVU664
 2449 0486 174B     		ldr	r3, .L138+4
 2450 0488 1E70     		strb	r6, [r3]
 799:Src/iot.c     ****                         //g_nb_send_cmd_cnt++;
 800:Src/iot.c     ****                         g_nb_send_cmd_overtime = V_ZERO;
ARM GAS  C:\Users\LY\AppData\Local\Temp\cc36mcgd.s 			page 64


 2451              		.loc 1 800 25 is_stmt 1 view .LVU665
 2452              		.loc 1 800 48 is_stmt 0 view .LVU666
 2453 048a 174B     		ldr	r3, .L138+8
 2454 048c 0022     		movs	r2, #0
 2455 048e 1A80     		strh	r2, [r3]	@ movhi
 801:Src/iot.c     ****                         printf("HTTP GET ERR!\r\n");
 2456              		.loc 1 801 25 is_stmt 1 view .LVU667
 2457 0490 2348     		ldr	r0, .L138+64
 2458 0492 FFF7FEFF 		bl	puts
 2459              	.LVL181:
 2460              	.L52:
 2461              		.loc 1 801 25 is_stmt 0 view .LVU668
 2462              	.LBE16:
 802:Src/iot.c     ****                     }
 803:Src/iot.c     ****                 }
 804:Src/iot.c     ****                 #if 0
 805:Src/iot.c     ****                 else
 806:Src/iot.c     ****                 {
 807:Src/iot.c     ****                     g_nb_ctrl_step = g_nb_curren_step;
 808:Src/iot.c     ****                     //g_nb_send_cmd_cnt++;
 809:Src/iot.c     ****                     g_nb_send_cmd_overtime = V_ZERO;
 810:Src/iot.c     ****                     printf("HTTP GET ERR!\r\n");
 811:Src/iot.c     ****                 }
 812:Src/iot.c     ****                 #endif
 813:Src/iot.c     ****                 break;
 814:Src/iot.c     ****             }
 815:Src/iot.c     ****             default:
 816:Src/iot.c     ****                 break;
 817:Src/iot.c     ****         }
 818:Src/iot.c     ****         //g_usart5_rx_finish = V_ZERO;
 819:Src/iot.c     ****     }
 820:Src/iot.c     **** }...
 2463              		.loc 1 820 1 view .LVU669
 2464 0496 F8BD     		pop	{r3, r4, r5, r6, r7, pc}
 2465              	.LVL182:
 2466              	.L135:
 2467              	.LBB18:
 782:Src/iot.c     ****                         g_nb_ctrl_step = V_ZERO;
 2468              		.loc 1 782 25 is_stmt 1 view .LVU670
 782:Src/iot.c     ****                         g_nb_ctrl_step = V_ZERO;
 2469              		.loc 1 782 40 is_stmt 0 view .LVU671
 2470 0498 0023     		movs	r3, #0
 2471 049a 124A     		ldr	r2, .L138+4
 2472 049c 1370     		strb	r3, [r2]
 783:Src/iot.c     ****                         g_nb_curren_step = V_ZERO;
 2473              		.loc 1 783 25 is_stmt 1 view .LVU672
 783:Src/iot.c     ****                         g_nb_curren_step = V_ZERO;
 2474              		.loc 1 783 42 is_stmt 0 view .LVU673
 2475 049e 104A     		ldr	r2, .L138
 2476 04a0 1370     		strb	r3, [r2]
 784:Src/iot.c     ****                         g_nb_send_cmd_cnt = V_ZERO;
 2477              		.loc 1 784 25 is_stmt 1 view .LVU674
 784:Src/iot.c     ****                         g_nb_send_cmd_cnt = V_ZERO;
 2478              		.loc 1 784 43 is_stmt 0 view .LVU675
 2479 04a2 134A     		ldr	r2, .L138+16
 2480 04a4 1370     		strb	r3, [r2]
 785:Src/iot.c     ****                         g_iot_power_on_cnt = V_ZERO;
ARM GAS  C:\Users\LY\AppData\Local\Temp\cc36mcgd.s 			page 65


 2481              		.loc 1 785 25 is_stmt 1 view .LVU676
 785:Src/iot.c     ****                         g_iot_power_on_cnt = V_ZERO;
 2482              		.loc 1 785 44 is_stmt 0 view .LVU677
 2483 04a6 1F4A     		ldr	r2, .L138+68
 2484 04a8 1370     		strb	r3, [r2]
 786:Src/iot.c     ****                         printf("IOT HTTP GET SUCCESS!\r\n");
 2485              		.loc 1 786 25 is_stmt 1 view .LVU678
 2486 04aa 1F48     		ldr	r0, .L138+72
 2487 04ac FFF7FEFF 		bl	puts
 2488              	.LVL183:
 787:Src/iot.c     ****                         HAL_Delay(1000);
 2489              		.loc 1 787 25 view .LVU679
 2490 04b0 4FF47A70 		mov	r0, #1000
 2491 04b4 FFF7FEFF 		bl	HAL_Delay
 2492              	.LVL184:
 788:Src/iot.c     ****                         iot_power_off_ctrl();
 2493              		.loc 1 788 25 view .LVU680
 2494 04b8 FFF7FEFF 		bl	iot_power_off_ctrl
 2495              	.LVL185:
 789:Src/iot.c     ****                         if(g_iot_start_test == V_ONE)
 2496              		.loc 1 789 25 view .LVU681
 789:Src/iot.c     ****                         if(g_iot_start_test == V_ONE)
 2497              		.loc 1 789 45 is_stmt 0 view .LVU682
 2498 04bc 1B4B     		ldr	r3, .L138+76
 2499 04be 1B78     		ldrb	r3, [r3]	@ zero_extendqisi2
 789:Src/iot.c     ****                         if(g_iot_start_test == V_ONE)
 2500              		.loc 1 789 27 view .LVU683
 2501 04c0 012B     		cmp	r3, #1
 2502 04c2 E8D1     		bne	.L52
 791:Src/iot.c     ****                             g_iot_start_test = V_ZERO;
 2503              		.loc 1 791 29 is_stmt 1 view .LVU684
 791:Src/iot.c     ****                             g_iot_start_test = V_ZERO;
 2504              		.loc 1 791 46 is_stmt 0 view .LVU685
 2505 04c4 194B     		ldr	r3, .L138+76
 2506 04c6 0022     		movs	r2, #0
 2507 04c8 1A70     		strb	r2, [r3]
 792:Src/iot.c     ****                             HAL_UART_Transmit(&hlpuart1, ar_resp_iot_test_success, 0x1B, 0xffffff);
 2508              		.loc 1 792 29 is_stmt 1 view .LVU686
 2509 04ca 6FF07F43 		mvn	r3, #-16777216
 2510 04ce 1B22     		movs	r2, #27
 2511 04d0 1749     		ldr	r1, .L138+80
 2512 04d2 1848     		ldr	r0, .L138+84
 2513 04d4 FFF7FEFF 		bl	HAL_UART_Transmit
 2514              	.LVL186:
 793:Src/iot.c     ****                             printf("IOT TEST SUCCESSED!\r\n");
 2515              		.loc 1 793 29 view .LVU687
 2516 04d8 1748     		ldr	r0, .L138+88
 2517 04da FFF7FEFF 		bl	puts
 2518              	.LVL187:
 2519 04de DAE7     		b	.L52
 2520              	.L139:
 2521              		.align	2
 2522              	.L138:
 2523 04e0 00000000 		.word	.LANCHOR14
 2524 04e4 00000000 		.word	.LANCHOR10
 2525 04e8 00000000 		.word	.LANCHOR15
 2526 04ec A0010000 		.word	.LC39
ARM GAS  C:\Users\LY\AppData\Local\Temp\cc36mcgd.s 			page 66


 2527 04f0 00000000 		.word	.LANCHOR11
 2528 04f4 88010000 		.word	.LC38
 2529 04f8 B8010000 		.word	.LC40
 2530 04fc D0010000 		.word	.LC41
 2531 0500 28000000 		.word	.LC21
 2532 0504 00000000 		.word	.LANCHOR9
 2533 0508 E8010000 		.word	.LC42
 2534 050c 00020000 		.word	.LC43
 2535 0510 20020000 		.word	.LC44
 2536 0514 48020000 		.word	.LC46
 2537 0518 28020000 		.word	.LC45
 2538 051c 68020000 		.word	.LC47
 2539 0520 A0020000 		.word	.LC50
 2540 0524 00000000 		.word	g_iot_power_on_cnt
 2541 0528 70020000 		.word	.LC48
 2542 052c 00000000 		.word	g_iot_start_test
 2543 0530 00000000 		.word	ar_resp_iot_test_success
 2544 0534 00000000 		.word	hlpuart1
 2545 0538 88020000 		.word	.LC49
 2546              	.LBE18:
 2547              		.cfi_endproc
 2548              	.LFE322:
 2550              		.global	ar_network
 2551              		.global	g_network_len
 2552              		.global	g_nb_receive_step
 2553              		.global	g_nb_send_cmd_star_time
 2554              		.global	g_nb_send_cmd_overtime
 2555              		.global	g_nb_send_cmd_cnt
 2556              		.global	g_nb_curren_step
 2557              		.global	g_nb_ctrl_step
 2558              		.global	g_uart5_receive_finish
 2559              		.global	g_uart5_tick
 2560              		.global	g_httpclient_id
 2561              		.global	ar_voltage_status
 2562              		.global	ar_goods_status
 2563              		.global	ar_http_server_len
 2564              		.global	ar_start_http_service
 2565              		.global	ar_get_http_server
 2566              		.global	ar_creat_http_socket
 2567              		.global	ar_creat_http_client
 2568              		.global	ar_nb_cereg
 2569              		.global	ar_nb_cfun
 2570              		.global	ar_nb_connnect_china_mobile
 2571              		.global	ar_nb_cops
 2572              		.global	ar_nb_csq
 2573              		.global	ar_nb_cpin
 2574              		.global	ar_nb_uart_connect
 2575              		.global	g_usart5_rx_finish
 2576              		.global	g_usart5_tx_len
 2577              		.global	ar_usart5_rx_buffer
 2578              		.global	ar_usart5_tx_buffer
 2579              		.global	g_uart_tmp5
 2580              		.section	.bss.ar_usart5_rx_buffer,"aw",%nobits
 2581              		.align	2
 2582              		.set	.LANCHOR5,. + 0
 2585              	ar_usart5_rx_buffer:
 2586 0000 00000000 		.space	256
ARM GAS  C:\Users\LY\AppData\Local\Temp\cc36mcgd.s 			page 67


 2586      00000000 
 2586      00000000 
 2586      00000000 
 2586      00000000 
 2587              		.section	.bss.ar_usart5_tx_buffer,"aw",%nobits
 2588              		.align	2
 2589              		.set	.LANCHOR9,. + 0
 2592              	ar_usart5_tx_buffer:
 2593 0000 00000000 		.space	256
 2593      00000000 
 2593      00000000 
 2593      00000000 
 2593      00000000 
 2594              		.section	.bss.g_nb_ctrl_step,"aw",%nobits
 2595              		.set	.LANCHOR10,. + 0
 2598              	g_nb_ctrl_step:
 2599 0000 00       		.space	1
 2600              		.section	.bss.g_nb_curren_step,"aw",%nobits
 2601              		.set	.LANCHOR14,. + 0
 2604              	g_nb_curren_step:
 2605 0000 00       		.space	1
 2606              		.section	.bss.g_nb_receive_step,"aw",%nobits
 2609              	g_nb_receive_step:
 2610 0000 00       		.space	1
 2611              		.section	.bss.g_nb_send_cmd_cnt,"aw",%nobits
 2612              		.set	.LANCHOR11,. + 0
 2615              	g_nb_send_cmd_cnt:
 2616 0000 00       		.space	1
 2617              		.section	.bss.g_nb_send_cmd_overtime,"aw",%nobits
 2618              		.align	1
 2619              		.set	.LANCHOR15,. + 0
 2622              	g_nb_send_cmd_overtime:
 2623 0000 0000     		.space	2
 2624              		.section	.bss.g_nb_send_cmd_star_time,"aw",%nobits
 2625              		.set	.LANCHOR13,. + 0
 2628              	g_nb_send_cmd_star_time:
 2629 0000 00       		.space	1
 2630              		.section	.bss.g_network_len,"aw",%nobits
 2631              		.set	.LANCHOR18,. + 0
 2634              	g_network_len:
 2635 0000 00       		.space	1
 2636              		.section	.bss.g_uart5_receive_finish,"aw",%nobits
 2637              		.set	.LANCHOR7,. + 0
 2640              	g_uart5_receive_finish:
 2641 0000 00       		.space	1
 2642              		.section	.bss.g_uart5_tick,"aw",%nobits
 2643              		.set	.LANCHOR6,. + 0
 2646              	g_uart5_tick:
 2647 0000 00       		.space	1
 2648              		.section	.bss.g_uart_tmp5,"aw",%nobits
 2649              		.align	2
 2650              		.set	.LANCHOR4,. + 0
 2653              	g_uart_tmp5:
 2654 0000 0000     		.space	2
 2655              		.section	.bss.g_usart5_rx_finish,"aw",%nobits
 2658              	g_usart5_rx_finish:
 2659 0000 00       		.space	1
ARM GAS  C:\Users\LY\AppData\Local\Temp\cc36mcgd.s 			page 68


 2660              		.section	.bss.g_usart5_tx_len,"aw",%nobits
 2661              		.set	.LANCHOR8,. + 0
 2664              	g_usart5_tx_len:
 2665 0000 00       		.space	1
 2666              		.section	.data.ar_creat_http_socket,"aw"
 2667              		.align	2
 2670              	ar_creat_http_socket:
 2671 0000 41542B48 		.ascii	"AT+HTTPCON=0\015\000"
 2671      54545043 
 2671      4F4E3D30 
 2671      0D00
 2672 000e 00       		.space	1
 2673              		.section	.data.ar_get_http_server,"aw"
 2674              		.align	2
 2675              		.set	.LANCHOR1,. + 0
 2678              	ar_get_http_server:
 2679 0000 41542B48 		.ascii	"AT+HTTPSEND=0,0,74,\"/btserver/bt/?PW=zhilai&TC=110"
 2679      54545053 
 2679      454E443D 
 2679      302C302C 
 2679      37342C22 
 2680 0032 34265349 		.ascii	"4&SI=222-0000002&BS=111111111110000100000000\"\015\000"
 2680      3D323232 
 2680      2D303030 
 2680      30303032 
 2680      2642533D 
 2681 0061 00000000 		.space	53
 2681      00000000 
 2681      00000000 
 2681      00000000 
 2681      00000000 
 2682              		.section	.data.ar_goods_status,"aw"
 2683              		.align	2
 2684              		.set	.LANCHOR2,. + 0
 2687              	ar_goods_status:
 2688 0000 31313131 		.ascii	"111111111110000100000000\000"
 2688      31313131 
 2688      31313130 
 2688      30303031 
 2688      30303030 
 2689              		.section	.data.ar_http_server_len,"aw"
 2690              		.align	2
 2691              		.set	.LANCHOR3,. + 0
 2694              	ar_http_server_len:
 2695 0000 303000   		.ascii	"00\000"
 2696              		.section	.data.ar_nb_connnect_china_mobile,"aw"
 2697              		.align	2
 2698              		.set	.LANCHOR20,. + 0
 2701              	ar_nb_connnect_china_mobile:
 2702 0000 3000     		.ascii	"0\000"
 2703 0002 00000000 		.space	68
 2703      00000000 
 2703      00000000 
 2703      00000000 
 2703      00000000 
 2704              		.section	.data.ar_network,"aw"
 2705              		.align	2
ARM GAS  C:\Users\LY\AppData\Local\Temp\cc36mcgd.s 			page 69


 2706              		.set	.LANCHOR19,. + 0
 2709              	ar_network:
 2710 0000 3000     		.ascii	"0\000"
 2711 0002 00000000 		.space	48
 2711      00000000 
 2711      00000000 
 2711      00000000 
 2711      00000000 
 2712              		.section	.data.ar_voltage_status,"aw"
 2713              		.align	2
 2714              		.set	.LANCHOR21,. + 0
 2717              	ar_voltage_status:
 2718 0000 6C6F7720 		.ascii	"low voltage: \000"
 2718      766F6C74 
 2718      6167653A 
 2718      2000
 2719              		.section	.data.g_httpclient_id,"aw"
 2720              		.set	.LANCHOR0,. + 0
 2723              	g_httpclient_id:
 2724 0000 30       		.byte	48
 2725              		.section	.rodata.ar_creat_http_client,"a"
 2726              		.align	2
 2729              	ar_creat_http_client:
 2730 0000 41542B48 		.ascii	"AT+HTTPCREATE=0,\"http://118.31.125.61:8167\"\015\000"
 2730      54545043 
 2730      52454154 
 2730      453D302C 
 2730      22687474 
 2731              		.section	.rodata.ar_nb_cereg,"a"
 2732              		.align	2
 2735              	ar_nb_cereg:
 2736 0000 41542B43 		.ascii	"AT+CEREG?\015\000"
 2736      45524547 
 2736      3F0D00
 2737              		.section	.rodata.ar_nb_cfun,"a"
 2738              		.align	2
 2741              	ar_nb_cfun:
 2742 0000 41542B43 		.ascii	"AT+CFUN=1\015\000"
 2742      46554E3D 
 2742      310D00
 2743              		.section	.rodata.ar_nb_cops,"a"
 2744              		.align	2
 2745              		.set	.LANCHOR17,. + 0
 2748              	ar_nb_cops:
 2749 0000 41542B43 		.ascii	"AT+COPS?\015\000"
 2749      4F50533F 
 2749      0D00
 2750              		.section	.rodata.ar_nb_cpin,"a"
 2751              		.align	2
 2752              		.set	.LANCHOR16,. + 0
 2755              	ar_nb_cpin:
 2756 0000 41542B43 		.ascii	"AT+CPIN?\015\000"
 2756      50494E3F 
 2756      0D00
 2757              		.section	.rodata.ar_nb_csq,"a"
 2758              		.align	2
 2761              	ar_nb_csq:
ARM GAS  C:\Users\LY\AppData\Local\Temp\cc36mcgd.s 			page 70


 2762 0000 41542B43 		.ascii	"AT+CSQ\015\000"
 2762      53510D00 
 2763              		.section	.rodata.ar_nb_uart_connect,"a"
 2764              		.align	2
 2765              		.set	.LANCHOR12,. + 0
 2768              	ar_nb_uart_connect:
 2769 0000 41540D00 		.ascii	"AT\015\000"
 2770              		.section	.rodata.ar_start_http_service,"a"
 2771              		.align	2
 2772              		.set	.LANCHOR22,. + 0
 2775              	ar_start_http_service:
 2776 0000 41542B48 		.ascii	"AT+HTTPACT=0\015\000"
 2776      54545041 
 2776      43543D30 
 2776      0D00
 2777              		.text
 2778              	.Letext0:
 2779              		.file 2 "c:\\program files (x86)\\gnu tools arm embedded\\9 2019-q4-major\\arm-none-eabi\\include\
 2780              		.file 3 "c:\\program files (x86)\\gnu tools arm embedded\\9 2019-q4-major\\arm-none-eabi\\include\
 2781              		.file 4 "Drivers/CMSIS/Include/core_cm4.h"
 2782              		.file 5 "Drivers/CMSIS/Device/ST/STM32L4xx/Include/system_stm32l4xx.h"
 2783              		.file 6 "Drivers/CMSIS/Device/ST/STM32L4xx/Include/stm32l471xx.h"
 2784              		.file 7 "Drivers/CMSIS/Device/ST/STM32L4xx/Include/stm32l4xx.h"
 2785              		.file 8 "Drivers/STM32L4xx_HAL_Driver/Inc/stm32l4xx_hal_def.h"
 2786              		.file 9 "Drivers/STM32L4xx_HAL_Driver/Inc/stm32l4xx_hal_gpio.h"
 2787              		.file 10 "Drivers/STM32L4xx_HAL_Driver/Inc/stm32l4xx_hal_dma.h"
 2788              		.file 11 "Drivers/STM32L4xx_HAL_Driver/Inc/stm32l4xx_hal_adc.h"
 2789              		.file 12 "Drivers/STM32L4xx_HAL_Driver/Inc/stm32l4xx_hal_flash.h"
 2790              		.file 13 "Drivers/STM32L4xx_HAL_Driver/Inc/stm32l4xx_hal_tim.h"
 2791              		.file 14 "Drivers/STM32L4xx_HAL_Driver/Inc/stm32l4xx_hal_uart.h"
 2792              		.file 15 "Drivers/STM32L4xx_HAL_Driver/Inc/stm32l4xx_hal.h"
 2793              		.file 16 "c:\\program files (x86)\\gnu tools arm embedded\\9 2019-q4-major\\arm-none-eabi\\include
 2794              		.file 17 "c:\\program files (x86)\\gnu tools arm embedded\\9 2019-q4-major\\arm-none-eabi\\include
 2795              		.file 18 "c:\\program files (x86)\\gnu tools arm embedded\\9 2019-q4-major\\lib\\gcc\\arm-none-eab
 2796              		.file 19 "c:\\program files (x86)\\gnu tools arm embedded\\9 2019-q4-major\\arm-none-eabi\\include
 2797              		.file 20 "Inc/main.h"
 2798              		.file 21 "Inc/usart.h"
 2799              		.file 22 "Inc/iot.h"
 2800              		.file 23 "Inc/user_gpio.h"
 2801              		.file 24 "Inc/ble_e95.h"
 2802              		.file 25 "Inc/adc.h"
 2803              		.file 26 "Inc/tim.h"
 2804              		.file 27 "<built-in>"
 2805              		.file 28 "c:\\program files (x86)\\gnu tools arm embedded\\9 2019-q4-major\\arm-none-eabi\\include
 2806              		.file 29 "c:\\program files (x86)\\gnu tools arm embedded\\9 2019-q4-major\\arm-none-eabi\\include
ARM GAS  C:\Users\LY\AppData\Local\Temp\cc36mcgd.s 			page 71

