ARM GAS  C:\Users\LY\AppData\Local\Temp\ccbRkbv2.s 			page 1


   1              		.cpu cortex-m4
   2              		.eabi_attribute 27, 1
   3              		.eabi_attribute 28, 1
   4              		.eabi_attribute 20, 1
   5              		.eabi_attribute 21, 1
   6              		.eabi_attribute 23, 3
   7              		.eabi_attribute 24, 1
   8              		.eabi_attribute 25, 1
   9              		.eabi_attribute 26, 1
  10              		.eabi_attribute 30, 1
  11              		.eabi_attribute 34, 1
  12              		.eabi_attribute 18, 4
  13              		.file	"tim.c"
  14              		.text
  15              	.Ltext0:
  16              		.cfi_sections	.debug_frame
  17              		.section	.text.MX_TIM6_Init,"ax",%progbits
  18              		.align	1
  19              		.global	MX_TIM6_Init
  20              		.arch armv7e-m
  21              		.syntax unified
  22              		.thumb
  23              		.thumb_func
  24              		.fpu fpv4-sp-d16
  26              	MX_TIM6_Init:
  27              	.LFB317:
  28              		.file 1 "Src/tim.c"
   1:Src/tim.c     **** /**
   2:Src/tim.c     ****   ******************************************************************************
   3:Src/tim.c     ****   * File Name          : TIM.c
   4:Src/tim.c     ****   * Description        : This file provides code for the configuration
   5:Src/tim.c     ****   *                      of the TIM instances.
   6:Src/tim.c     ****   ******************************************************************************
   7:Src/tim.c     ****   * @attention
   8:Src/tim.c     ****   *
   9:Src/tim.c     ****   * <h2><center>&copy; Copyright (c) 2021 STMicroelectronics.
  10:Src/tim.c     ****   * All rights reserved.</center></h2>
  11:Src/tim.c     ****   *
  12:Src/tim.c     ****   * This software component is licensed by ST under BSD 3-Clause license,
  13:Src/tim.c     ****   * the "License"; You may not use this file except in compliance with the
  14:Src/tim.c     ****   * License. You may obtain a copy of the License at:
  15:Src/tim.c     ****   *                        opensource.org/licenses/BSD-3-Clause
  16:Src/tim.c     ****   *
  17:Src/tim.c     ****   ******************************************************************************
  18:Src/tim.c     ****   */
  19:Src/tim.c     **** 
  20:Src/tim.c     **** /* Includes ------------------------------------------------------------------*/
  21:Src/tim.c     **** #include "tim.h"
  22:Src/tim.c     **** #include "global.h"
  23:Src/tim.c     **** #include "user_gpio.h"
  24:Src/tim.c     **** #include "ble_e95.h"
  25:Src/tim.c     **** #include "8k.h"
  26:Src/tim.c     **** #include "iot.h"
  27:Src/tim.c     **** #include "adc.h"
  28:Src/tim.c     **** #include "main.h"
  29:Src/tim.c     **** #include <stdio.h>
  30:Src/tim.c     **** /* USER CODE BEGIN 0 */
ARM GAS  C:\Users\LY\AppData\Local\Temp\ccbRkbv2.s 			page 2


  31:Src/tim.c     **** /*è¿è¡ŒæŒ‡ç¤ºç¯è®¡æ•°ï¼Œ1Sé—ªçƒä¸€æ¬¡*/
  32:Src/tim.c     **** uint16_t g_led_tick = I_ZERO;
  33:Src/tim.c     **** /*å¼€é”è®¡æ•°ï¼Œå¼€é”æ—¶é—´700ms*/
  34:Src/tim.c     **** volatile uint16_t g_unlock_tick = I_ZERO;
  35:Src/tim.c     **** /*å¼€é”ç»“æŸæ ‡å¿—*/
  36:Src/tim.c     **** volatile uint8_t g_unlock_flag = I_ZERO;
  37:Src/tim.c     **** /*è“ç‰™æ–­å¼€è¿žæŽ¥æ ‡å¿—ä½*/
  38:Src/tim.c     **** uint8_t g_ble_disconnect_flag = I_ZERO;
  39:Src/tim.c     **** uint32_t time = I_ZERO;
  40:Src/tim.c     **** volatile uint32_t data_cnt = RATIO_START_INDEX;
  41:Src/tim.c     **** /* ç”µæ± ä½Žç”µé‡æ ‡å¿—*/
  42:Src/tim.c     **** uint8_t g_min_voltage_flag = I_ZERO;
  43:Src/tim.c     **** uint16_t g_voltage_check_tick = I_ZERO;
  44:Src/tim.c     **** /* ç”µé‡æ£€æµ‹æ ‡å¿—*/
  45:Src/tim.c     **** uint8_t g_voltage_check_flag = V_ZERO;
  46:Src/tim.c     **** 
  47:Src/tim.c     **** TIM_HandleTypeDef htim5;
  48:Src/tim.c     **** TIM_HandleTypeDef htim6;
  49:Src/tim.c     **** 
  50:Src/tim.c     **** /* TIM5 init function */
  51:Src/tim.c     **** void MX_TIM5_Init(void)
  52:Src/tim.c     **** {
  53:Src/tim.c     ****   TIM_ClockConfigTypeDef sClockSourceConfig = {0};
  54:Src/tim.c     ****   TIM_MasterConfigTypeDef sMasterConfig = {0};
  55:Src/tim.c     ****   TIM_OC_InitTypeDef sConfigOC = {0};
  56:Src/tim.c     **** 
  57:Src/tim.c     ****   htim5.Instance = TIM5;
  58:Src/tim.c     ****   htim5.Init.Prescaler = 5-1;
  59:Src/tim.c     ****   htim5.Init.CounterMode = TIM_COUNTERMODE_UP;
  60:Src/tim.c     ****   htim5.Init.Period = 125-1;
  61:Src/tim.c     ****   htim5.Init.ClockDivision = TIM_CLOCKDIVISION_DIV1;
  62:Src/tim.c     ****   htim5.Init.AutoReloadPreload = TIM_AUTORELOAD_PRELOAD_DISABLE;
  63:Src/tim.c     ****   if (HAL_TIM_Base_Init(&htim5) != HAL_OK)
  64:Src/tim.c     ****   {
  65:Src/tim.c     ****     Error_Handler();
  66:Src/tim.c     ****   }
  67:Src/tim.c     ****   sClockSourceConfig.ClockSource = TIM_CLOCKSOURCE_INTERNAL;
  68:Src/tim.c     ****   if (HAL_TIM_ConfigClockSource(&htim5, &sClockSourceConfig) != HAL_OK)
  69:Src/tim.c     ****   {
  70:Src/tim.c     ****     Error_Handler();
  71:Src/tim.c     ****   }
  72:Src/tim.c     ****   if (HAL_TIM_PWM_Init(&htim5) != HAL_OK)
  73:Src/tim.c     ****   {
  74:Src/tim.c     ****     Error_Handler();
  75:Src/tim.c     ****   }
  76:Src/tim.c     ****   sMasterConfig.MasterOutputTrigger = TIM_TRGO_RESET;
  77:Src/tim.c     ****   sMasterConfig.MasterSlaveMode = TIM_MASTERSLAVEMODE_DISABLE;
  78:Src/tim.c     ****   if (HAL_TIMEx_MasterConfigSynchronization(&htim5, &sMasterConfig) != HAL_OK)
  79:Src/tim.c     ****   {
  80:Src/tim.c     ****     Error_Handler();
  81:Src/tim.c     ****   }
  82:Src/tim.c     ****   sConfigOC.OCMode = TIM_OCMODE_PWM1;
  83:Src/tim.c     ****   sConfigOC.Pulse = 60;
  84:Src/tim.c     ****   sConfigOC.OCPolarity = TIM_OCPOLARITY_HIGH;
  85:Src/tim.c     ****   sConfigOC.OCFastMode = TIM_OCFAST_DISABLE;
  86:Src/tim.c     ****   if (HAL_TIM_PWM_ConfigChannel(&htim5, &sConfigOC, TIM_CHANNEL_2) != HAL_OK)
  87:Src/tim.c     ****   {
ARM GAS  C:\Users\LY\AppData\Local\Temp\ccbRkbv2.s 			page 3


  88:Src/tim.c     ****     Error_Handler();
  89:Src/tim.c     ****   }
  90:Src/tim.c     ****   HAL_TIM_MspPostInit(&htim5);
  91:Src/tim.c     **** 
  92:Src/tim.c     **** }
  93:Src/tim.c     **** /* TIM6 init function */
  94:Src/tim.c     **** void MX_TIM6_Init(void)
  95:Src/tim.c     **** {
  29              		.loc 1 95 1 view -0
  30              		.cfi_startproc
  31              		@ args = 0, pretend = 0, frame = 16
  32              		@ frame_needed = 0, uses_anonymous_args = 0
  33 0000 00B5     		push	{lr}
  34              	.LCFI0:
  35              		.cfi_def_cfa_offset 4
  36              		.cfi_offset 14, -4
  37 0002 85B0     		sub	sp, sp, #20
  38              	.LCFI1:
  39              		.cfi_def_cfa_offset 24
  96:Src/tim.c     ****   TIM_MasterConfigTypeDef sMasterConfig = {0};
  40              		.loc 1 96 3 view .LVU1
  41              		.loc 1 96 27 is_stmt 0 view .LVU2
  42 0004 0023     		movs	r3, #0
  43 0006 0193     		str	r3, [sp, #4]
  44 0008 0293     		str	r3, [sp, #8]
  45 000a 0393     		str	r3, [sp, #12]
  97:Src/tim.c     **** 
  98:Src/tim.c     ****   htim6.Instance = TIM6;
  46              		.loc 1 98 3 is_stmt 1 view .LVU3
  47              		.loc 1 98 18 is_stmt 0 view .LVU4
  48 000c 0E48     		ldr	r0, .L7
  49 000e 0F4A     		ldr	r2, .L7+4
  50 0010 0260     		str	r2, [r0]
  99:Src/tim.c     ****   htim6.Init.Prescaler = 10-1;
  51              		.loc 1 99 3 is_stmt 1 view .LVU5
  52              		.loc 1 99 24 is_stmt 0 view .LVU6
  53 0012 0922     		movs	r2, #9
  54 0014 4260     		str	r2, [r0, #4]
 100:Src/tim.c     ****   htim6.Init.CounterMode = TIM_COUNTERMODE_UP;
  55              		.loc 1 100 3 is_stmt 1 view .LVU7
  56              		.loc 1 100 26 is_stmt 0 view .LVU8
  57 0016 8360     		str	r3, [r0, #8]
 101:Src/tim.c     ****   htim6.Init.Period = 5000-1;
  58              		.loc 1 101 3 is_stmt 1 view .LVU9
  59              		.loc 1 101 21 is_stmt 0 view .LVU10
  60 0018 41F28732 		movw	r2, #4999
  61 001c C260     		str	r2, [r0, #12]
 102:Src/tim.c     ****   htim6.Init.AutoReloadPreload = TIM_AUTORELOAD_PRELOAD_DISABLE;
  62              		.loc 1 102 3 is_stmt 1 view .LVU11
  63              		.loc 1 102 32 is_stmt 0 view .LVU12
  64 001e 8361     		str	r3, [r0, #24]
 103:Src/tim.c     ****   if (HAL_TIM_Base_Init(&htim6) != HAL_OK)
  65              		.loc 1 103 3 is_stmt 1 view .LVU13
  66              		.loc 1 103 7 is_stmt 0 view .LVU14
  67 0020 FFF7FEFF 		bl	HAL_TIM_Base_Init
  68              	.LVL0:
  69              		.loc 1 103 6 view .LVU15
ARM GAS  C:\Users\LY\AppData\Local\Temp\ccbRkbv2.s 			page 4


  70 0024 50B9     		cbnz	r0, .L5
  71              	.L2:
 104:Src/tim.c     ****   {
 105:Src/tim.c     ****     Error_Handler();
 106:Src/tim.c     ****   }
 107:Src/tim.c     ****   sMasterConfig.MasterOutputTrigger = TIM_TRGO_RESET;
  72              		.loc 1 107 3 is_stmt 1 view .LVU16
  73              		.loc 1 107 37 is_stmt 0 view .LVU17
  74 0026 0023     		movs	r3, #0
  75 0028 0193     		str	r3, [sp, #4]
 108:Src/tim.c     ****   sMasterConfig.MasterSlaveMode = TIM_MASTERSLAVEMODE_DISABLE;
  76              		.loc 1 108 3 is_stmt 1 view .LVU18
  77              		.loc 1 108 33 is_stmt 0 view .LVU19
  78 002a 0393     		str	r3, [sp, #12]
 109:Src/tim.c     ****   if (HAL_TIMEx_MasterConfigSynchronization(&htim6, &sMasterConfig) != HAL_OK)
  79              		.loc 1 109 3 is_stmt 1 view .LVU20
  80              		.loc 1 109 7 is_stmt 0 view .LVU21
  81 002c 01A9     		add	r1, sp, #4
  82 002e 0648     		ldr	r0, .L7
  83 0030 FFF7FEFF 		bl	HAL_TIMEx_MasterConfigSynchronization
  84              	.LVL1:
  85              		.loc 1 109 6 view .LVU22
  86 0034 28B9     		cbnz	r0, .L6
  87              	.L1:
 110:Src/tim.c     ****   {
 111:Src/tim.c     ****     Error_Handler();
 112:Src/tim.c     ****   }
 113:Src/tim.c     **** 
 114:Src/tim.c     **** }
  88              		.loc 1 114 1 view .LVU23
  89 0036 05B0     		add	sp, sp, #20
  90              	.LCFI2:
  91              		.cfi_remember_state
  92              		.cfi_def_cfa_offset 4
  93              		@ sp needed
  94 0038 5DF804FB 		ldr	pc, [sp], #4
  95              	.L5:
  96              	.LCFI3:
  97              		.cfi_restore_state
 105:Src/tim.c     ****   }
  98              		.loc 1 105 5 is_stmt 1 view .LVU24
  99 003c FFF7FEFF 		bl	Error_Handler
 100              	.LVL2:
 101 0040 F1E7     		b	.L2
 102              	.L6:
 111:Src/tim.c     ****   }
 103              		.loc 1 111 5 view .LVU25
 104 0042 FFF7FEFF 		bl	Error_Handler
 105              	.LVL3:
 106              		.loc 1 114 1 is_stmt 0 view .LVU26
 107 0046 F6E7     		b	.L1
 108              	.L8:
 109              		.align	2
 110              	.L7:
 111 0048 00000000 		.word	htim6
 112 004c 00100040 		.word	1073745920
 113              		.cfi_endproc
ARM GAS  C:\Users\LY\AppData\Local\Temp\ccbRkbv2.s 			page 5


 114              	.LFE317:
 116              		.section	.text.HAL_TIM_Base_MspInit,"ax",%progbits
 117              		.align	1
 118              		.global	HAL_TIM_Base_MspInit
 119              		.syntax unified
 120              		.thumb
 121              		.thumb_func
 122              		.fpu fpv4-sp-d16
 124              	HAL_TIM_Base_MspInit:
 125              	.LVL4:
 126              	.LFB318:
 115:Src/tim.c     **** 
 116:Src/tim.c     **** void HAL_TIM_Base_MspInit(TIM_HandleTypeDef* tim_baseHandle)
 117:Src/tim.c     **** {
 127              		.loc 1 117 1 is_stmt 1 view -0
 128              		.cfi_startproc
 129              		@ args = 0, pretend = 0, frame = 8
 130              		@ frame_needed = 0, uses_anonymous_args = 0
 131              		.loc 1 117 1 is_stmt 0 view .LVU28
 132 0000 00B5     		push	{lr}
 133              	.LCFI4:
 134              		.cfi_def_cfa_offset 4
 135              		.cfi_offset 14, -4
 136 0002 83B0     		sub	sp, sp, #12
 137              	.LCFI5:
 138              		.cfi_def_cfa_offset 16
 118:Src/tim.c     **** 
 119:Src/tim.c     ****   if(tim_baseHandle->Instance==TIM5)
 139              		.loc 1 119 3 is_stmt 1 view .LVU29
 140              		.loc 1 119 20 is_stmt 0 view .LVU30
 141 0004 0368     		ldr	r3, [r0]
 142              		.loc 1 119 5 view .LVU31
 143 0006 174A     		ldr	r2, .L15
 144 0008 9342     		cmp	r3, r2
 145 000a 05D0     		beq	.L13
 120:Src/tim.c     ****   {
 121:Src/tim.c     ****   /* USER CODE BEGIN TIM5_MspInit 0 */
 122:Src/tim.c     **** 
 123:Src/tim.c     ****   /* USER CODE END TIM5_MspInit 0 */
 124:Src/tim.c     ****     /* TIM5 clock enable */
 125:Src/tim.c     ****     __HAL_RCC_TIM5_CLK_ENABLE();
 126:Src/tim.c     **** 
 127:Src/tim.c     ****     /* TIM5 interrupt Init */
 128:Src/tim.c     ****     HAL_NVIC_SetPriority(TIM5_IRQn, 0, 0);
 129:Src/tim.c     ****     HAL_NVIC_EnableIRQ(TIM5_IRQn);
 130:Src/tim.c     ****   /* USER CODE BEGIN TIM5_MspInit 1 */
 131:Src/tim.c     **** 
 132:Src/tim.c     ****   /* USER CODE END TIM5_MspInit 1 */
 133:Src/tim.c     ****   }
 134:Src/tim.c     ****   else if(tim_baseHandle->Instance==TIM6)
 146              		.loc 1 134 8 is_stmt 1 view .LVU32
 147              		.loc 1 134 10 is_stmt 0 view .LVU33
 148 000c 164A     		ldr	r2, .L15+4
 149 000e 9342     		cmp	r3, r2
 150 0010 15D0     		beq	.L14
 151              	.LVL5:
 152              	.L9:
ARM GAS  C:\Users\LY\AppData\Local\Temp\ccbRkbv2.s 			page 6


 135:Src/tim.c     ****   {
 136:Src/tim.c     ****   /* USER CODE BEGIN TIM6_MspInit 0 */
 137:Src/tim.c     **** 
 138:Src/tim.c     ****   /* USER CODE END TIM6_MspInit 0 */
 139:Src/tim.c     ****     /* TIM6 clock enable */
 140:Src/tim.c     ****     __HAL_RCC_TIM6_CLK_ENABLE();
 141:Src/tim.c     **** 
 142:Src/tim.c     ****     /* TIM6 interrupt Init */
 143:Src/tim.c     ****     HAL_NVIC_SetPriority(TIM6_DAC_IRQn, 0, 0);
 144:Src/tim.c     ****     HAL_NVIC_EnableIRQ(TIM6_DAC_IRQn);
 145:Src/tim.c     ****   /* USER CODE BEGIN TIM6_MspInit 1 */
 146:Src/tim.c     **** 
 147:Src/tim.c     ****   /* USER CODE END TIM6_MspInit 1 */
 148:Src/tim.c     ****   }
 149:Src/tim.c     **** }
 153              		.loc 1 149 1 view .LVU34
 154 0012 03B0     		add	sp, sp, #12
 155              	.LCFI6:
 156              		.cfi_remember_state
 157              		.cfi_def_cfa_offset 4
 158              		@ sp needed
 159 0014 5DF804FB 		ldr	pc, [sp], #4
 160              	.LVL6:
 161              	.L13:
 162              	.LCFI7:
 163              		.cfi_restore_state
 125:Src/tim.c     **** 
 164              		.loc 1 125 5 is_stmt 1 view .LVU35
 165              	.LBB2:
 125:Src/tim.c     **** 
 166              		.loc 1 125 5 view .LVU36
 125:Src/tim.c     **** 
 167              		.loc 1 125 5 view .LVU37
 168 0018 144B     		ldr	r3, .L15+8
 169 001a 9A6D     		ldr	r2, [r3, #88]
 170 001c 42F00802 		orr	r2, r2, #8
 171 0020 9A65     		str	r2, [r3, #88]
 125:Src/tim.c     **** 
 172              		.loc 1 125 5 view .LVU38
 173 0022 9B6D     		ldr	r3, [r3, #88]
 174 0024 03F00803 		and	r3, r3, #8
 175 0028 0093     		str	r3, [sp]
 125:Src/tim.c     **** 
 176              		.loc 1 125 5 view .LVU39
 177 002a 009B     		ldr	r3, [sp]
 178              	.LBE2:
 125:Src/tim.c     **** 
 179              		.loc 1 125 5 view .LVU40
 128:Src/tim.c     ****     HAL_NVIC_EnableIRQ(TIM5_IRQn);
 180              		.loc 1 128 5 view .LVU41
 181 002c 0022     		movs	r2, #0
 182 002e 1146     		mov	r1, r2
 183 0030 3220     		movs	r0, #50
 184              	.LVL7:
 128:Src/tim.c     ****     HAL_NVIC_EnableIRQ(TIM5_IRQn);
 185              		.loc 1 128 5 is_stmt 0 view .LVU42
 186 0032 FFF7FEFF 		bl	HAL_NVIC_SetPriority
ARM GAS  C:\Users\LY\AppData\Local\Temp\ccbRkbv2.s 			page 7


 187              	.LVL8:
 129:Src/tim.c     ****   /* USER CODE BEGIN TIM5_MspInit 1 */
 188              		.loc 1 129 5 is_stmt 1 view .LVU43
 189 0036 3220     		movs	r0, #50
 190 0038 FFF7FEFF 		bl	HAL_NVIC_EnableIRQ
 191              	.LVL9:
 192 003c E9E7     		b	.L9
 193              	.LVL10:
 194              	.L14:
 140:Src/tim.c     **** 
 195              		.loc 1 140 5 view .LVU44
 196              	.LBB3:
 140:Src/tim.c     **** 
 197              		.loc 1 140 5 view .LVU45
 140:Src/tim.c     **** 
 198              		.loc 1 140 5 view .LVU46
 199 003e 0B4B     		ldr	r3, .L15+8
 200 0040 9A6D     		ldr	r2, [r3, #88]
 201 0042 42F01002 		orr	r2, r2, #16
 202 0046 9A65     		str	r2, [r3, #88]
 140:Src/tim.c     **** 
 203              		.loc 1 140 5 view .LVU47
 204 0048 9B6D     		ldr	r3, [r3, #88]
 205 004a 03F01003 		and	r3, r3, #16
 206 004e 0193     		str	r3, [sp, #4]
 140:Src/tim.c     **** 
 207              		.loc 1 140 5 view .LVU48
 208 0050 019B     		ldr	r3, [sp, #4]
 209              	.LBE3:
 140:Src/tim.c     **** 
 210              		.loc 1 140 5 view .LVU49
 143:Src/tim.c     ****     HAL_NVIC_EnableIRQ(TIM6_DAC_IRQn);
 211              		.loc 1 143 5 view .LVU50
 212 0052 0022     		movs	r2, #0
 213 0054 1146     		mov	r1, r2
 214 0056 3620     		movs	r0, #54
 215              	.LVL11:
 143:Src/tim.c     ****     HAL_NVIC_EnableIRQ(TIM6_DAC_IRQn);
 216              		.loc 1 143 5 is_stmt 0 view .LVU51
 217 0058 FFF7FEFF 		bl	HAL_NVIC_SetPriority
 218              	.LVL12:
 144:Src/tim.c     ****   /* USER CODE BEGIN TIM6_MspInit 1 */
 219              		.loc 1 144 5 is_stmt 1 view .LVU52
 220 005c 3620     		movs	r0, #54
 221 005e FFF7FEFF 		bl	HAL_NVIC_EnableIRQ
 222              	.LVL13:
 223              		.loc 1 149 1 is_stmt 0 view .LVU53
 224 0062 D6E7     		b	.L9
 225              	.L16:
 226              		.align	2
 227              	.L15:
 228 0064 000C0040 		.word	1073744896
 229 0068 00100040 		.word	1073745920
 230 006c 00100240 		.word	1073876992
 231              		.cfi_endproc
 232              	.LFE318:
 234              		.section	.text.HAL_TIM_MspPostInit,"ax",%progbits
ARM GAS  C:\Users\LY\AppData\Local\Temp\ccbRkbv2.s 			page 8


 235              		.align	1
 236              		.global	HAL_TIM_MspPostInit
 237              		.syntax unified
 238              		.thumb
 239              		.thumb_func
 240              		.fpu fpv4-sp-d16
 242              	HAL_TIM_MspPostInit:
 243              	.LVL14:
 244              	.LFB319:
 150:Src/tim.c     **** void HAL_TIM_MspPostInit(TIM_HandleTypeDef* timHandle)
 151:Src/tim.c     **** {
 245              		.loc 1 151 1 is_stmt 1 view -0
 246              		.cfi_startproc
 247              		@ args = 0, pretend = 0, frame = 24
 248              		@ frame_needed = 0, uses_anonymous_args = 0
 249              		.loc 1 151 1 is_stmt 0 view .LVU55
 250 0000 00B5     		push	{lr}
 251              	.LCFI8:
 252              		.cfi_def_cfa_offset 4
 253              		.cfi_offset 14, -4
 254 0002 87B0     		sub	sp, sp, #28
 255              	.LCFI9:
 256              		.cfi_def_cfa_offset 32
 152:Src/tim.c     **** 
 153:Src/tim.c     ****   GPIO_InitTypeDef GPIO_InitStruct = {0};
 257              		.loc 1 153 3 is_stmt 1 view .LVU56
 258              		.loc 1 153 20 is_stmt 0 view .LVU57
 259 0004 0023     		movs	r3, #0
 260 0006 0193     		str	r3, [sp, #4]
 261 0008 0293     		str	r3, [sp, #8]
 262 000a 0393     		str	r3, [sp, #12]
 263 000c 0493     		str	r3, [sp, #16]
 264 000e 0593     		str	r3, [sp, #20]
 154:Src/tim.c     ****   if(timHandle->Instance==TIM5)
 265              		.loc 1 154 3 is_stmt 1 view .LVU58
 266              		.loc 1 154 15 is_stmt 0 view .LVU59
 267 0010 0268     		ldr	r2, [r0]
 268              		.loc 1 154 5 view .LVU60
 269 0012 0F4B     		ldr	r3, .L21
 270 0014 9A42     		cmp	r2, r3
 271 0016 02D0     		beq	.L20
 272              	.LVL15:
 273              	.L17:
 155:Src/tim.c     ****   {
 156:Src/tim.c     ****   /* USER CODE BEGIN TIM5_MspPostInit 0 */
 157:Src/tim.c     **** 
 158:Src/tim.c     ****   /* USER CODE END TIM5_MspPostInit 0 */
 159:Src/tim.c     ****   
 160:Src/tim.c     ****     __HAL_RCC_GPIOF_CLK_ENABLE();
 161:Src/tim.c     ****     /**TIM5 GPIO Configuration    
 162:Src/tim.c     ****     PF7     ------> TIM5_CH2 
 163:Src/tim.c     ****     */
 164:Src/tim.c     ****     GPIO_InitStruct.Pin = STM_BUZZER_Pin;
 165:Src/tim.c     ****     GPIO_InitStruct.Mode = GPIO_MODE_AF_PP;
 166:Src/tim.c     ****     GPIO_InitStruct.Pull = GPIO_NOPULL;
 167:Src/tim.c     ****     GPIO_InitStruct.Speed = GPIO_SPEED_FREQ_LOW;
 168:Src/tim.c     ****     GPIO_InitStruct.Alternate = GPIO_AF2_TIM5;
ARM GAS  C:\Users\LY\AppData\Local\Temp\ccbRkbv2.s 			page 9


 169:Src/tim.c     ****     HAL_GPIO_Init(STM_BUZZER_GPIO_Port, &GPIO_InitStruct);
 170:Src/tim.c     **** 
 171:Src/tim.c     ****   /* USER CODE BEGIN TIM5_MspPostInit 1 */
 172:Src/tim.c     **** 
 173:Src/tim.c     ****   /* USER CODE END TIM5_MspPostInit 1 */
 174:Src/tim.c     ****   }
 175:Src/tim.c     **** 
 176:Src/tim.c     **** }
 274              		.loc 1 176 1 view .LVU61
 275 0018 07B0     		add	sp, sp, #28
 276              	.LCFI10:
 277              		.cfi_remember_state
 278              		.cfi_def_cfa_offset 4
 279              		@ sp needed
 280 001a 5DF804FB 		ldr	pc, [sp], #4
 281              	.LVL16:
 282              	.L20:
 283              	.LCFI11:
 284              		.cfi_restore_state
 160:Src/tim.c     ****     /**TIM5 GPIO Configuration    
 285              		.loc 1 160 5 is_stmt 1 view .LVU62
 286              	.LBB4:
 160:Src/tim.c     ****     /**TIM5 GPIO Configuration    
 287              		.loc 1 160 5 view .LVU63
 160:Src/tim.c     ****     /**TIM5 GPIO Configuration    
 288              		.loc 1 160 5 view .LVU64
 289 001e 03F50133 		add	r3, r3, #132096
 290 0022 DA6C     		ldr	r2, [r3, #76]
 291 0024 42F02002 		orr	r2, r2, #32
 292 0028 DA64     		str	r2, [r3, #76]
 160:Src/tim.c     ****     /**TIM5 GPIO Configuration    
 293              		.loc 1 160 5 view .LVU65
 294 002a DB6C     		ldr	r3, [r3, #76]
 295 002c 03F02003 		and	r3, r3, #32
 296 0030 0093     		str	r3, [sp]
 160:Src/tim.c     ****     /**TIM5 GPIO Configuration    
 297              		.loc 1 160 5 view .LVU66
 298 0032 009B     		ldr	r3, [sp]
 299              	.LBE4:
 160:Src/tim.c     ****     /**TIM5 GPIO Configuration    
 300              		.loc 1 160 5 view .LVU67
 164:Src/tim.c     ****     GPIO_InitStruct.Mode = GPIO_MODE_AF_PP;
 301              		.loc 1 164 5 view .LVU68
 164:Src/tim.c     ****     GPIO_InitStruct.Mode = GPIO_MODE_AF_PP;
 302              		.loc 1 164 25 is_stmt 0 view .LVU69
 303 0034 8023     		movs	r3, #128
 304 0036 0193     		str	r3, [sp, #4]
 165:Src/tim.c     ****     GPIO_InitStruct.Pull = GPIO_NOPULL;
 305              		.loc 1 165 5 is_stmt 1 view .LVU70
 165:Src/tim.c     ****     GPIO_InitStruct.Pull = GPIO_NOPULL;
 306              		.loc 1 165 26 is_stmt 0 view .LVU71
 307 0038 0223     		movs	r3, #2
 308 003a 0293     		str	r3, [sp, #8]
 166:Src/tim.c     ****     GPIO_InitStruct.Speed = GPIO_SPEED_FREQ_LOW;
 309              		.loc 1 166 5 is_stmt 1 view .LVU72
 166:Src/tim.c     ****     GPIO_InitStruct.Speed = GPIO_SPEED_FREQ_LOW;
 310              		.loc 1 166 26 is_stmt 0 view .LVU73
ARM GAS  C:\Users\LY\AppData\Local\Temp\ccbRkbv2.s 			page 10


 311 003c 0022     		movs	r2, #0
 312 003e 0392     		str	r2, [sp, #12]
 167:Src/tim.c     ****     GPIO_InitStruct.Alternate = GPIO_AF2_TIM5;
 313              		.loc 1 167 5 is_stmt 1 view .LVU74
 167:Src/tim.c     ****     GPIO_InitStruct.Alternate = GPIO_AF2_TIM5;
 314              		.loc 1 167 27 is_stmt 0 view .LVU75
 315 0040 0492     		str	r2, [sp, #16]
 168:Src/tim.c     ****     HAL_GPIO_Init(STM_BUZZER_GPIO_Port, &GPIO_InitStruct);
 316              		.loc 1 168 5 is_stmt 1 view .LVU76
 168:Src/tim.c     ****     HAL_GPIO_Init(STM_BUZZER_GPIO_Port, &GPIO_InitStruct);
 317              		.loc 1 168 31 is_stmt 0 view .LVU77
 318 0042 0593     		str	r3, [sp, #20]
 169:Src/tim.c     **** 
 319              		.loc 1 169 5 is_stmt 1 view .LVU78
 320 0044 01A9     		add	r1, sp, #4
 321 0046 0348     		ldr	r0, .L21+4
 322              	.LVL17:
 169:Src/tim.c     **** 
 323              		.loc 1 169 5 is_stmt 0 view .LVU79
 324 0048 FFF7FEFF 		bl	HAL_GPIO_Init
 325              	.LVL18:
 326              		.loc 1 176 1 view .LVU80
 327 004c E4E7     		b	.L17
 328              	.L22:
 329 004e 00BF     		.align	2
 330              	.L21:
 331 0050 000C0040 		.word	1073744896
 332 0054 00140048 		.word	1207964672
 333              		.cfi_endproc
 334              	.LFE319:
 336              		.section	.text.MX_TIM5_Init,"ax",%progbits
 337              		.align	1
 338              		.global	MX_TIM5_Init
 339              		.syntax unified
 340              		.thumb
 341              		.thumb_func
 342              		.fpu fpv4-sp-d16
 344              	MX_TIM5_Init:
 345              	.LFB316:
  52:Src/tim.c     ****   TIM_ClockConfigTypeDef sClockSourceConfig = {0};
 346              		.loc 1 52 1 is_stmt 1 view -0
 347              		.cfi_startproc
 348              		@ args = 0, pretend = 0, frame = 56
 349              		@ frame_needed = 0, uses_anonymous_args = 0
 350 0000 00B5     		push	{lr}
 351              	.LCFI12:
 352              		.cfi_def_cfa_offset 4
 353              		.cfi_offset 14, -4
 354 0002 8FB0     		sub	sp, sp, #60
 355              	.LCFI13:
 356              		.cfi_def_cfa_offset 64
  53:Src/tim.c     ****   TIM_MasterConfigTypeDef sMasterConfig = {0};
 357              		.loc 1 53 3 view .LVU82
  53:Src/tim.c     ****   TIM_MasterConfigTypeDef sMasterConfig = {0};
 358              		.loc 1 53 26 is_stmt 0 view .LVU83
 359 0004 0023     		movs	r3, #0
 360 0006 0A93     		str	r3, [sp, #40]
ARM GAS  C:\Users\LY\AppData\Local\Temp\ccbRkbv2.s 			page 11


 361 0008 0B93     		str	r3, [sp, #44]
 362 000a 0C93     		str	r3, [sp, #48]
 363 000c 0D93     		str	r3, [sp, #52]
  54:Src/tim.c     ****   TIM_OC_InitTypeDef sConfigOC = {0};
 364              		.loc 1 54 3 is_stmt 1 view .LVU84
  54:Src/tim.c     ****   TIM_OC_InitTypeDef sConfigOC = {0};
 365              		.loc 1 54 27 is_stmt 0 view .LVU85
 366 000e 0793     		str	r3, [sp, #28]
 367 0010 0893     		str	r3, [sp, #32]
 368 0012 0993     		str	r3, [sp, #36]
  55:Src/tim.c     **** 
 369              		.loc 1 55 3 is_stmt 1 view .LVU86
  55:Src/tim.c     **** 
 370              		.loc 1 55 22 is_stmt 0 view .LVU87
 371 0014 0093     		str	r3, [sp]
 372 0016 0193     		str	r3, [sp, #4]
 373 0018 0293     		str	r3, [sp, #8]
 374 001a 0393     		str	r3, [sp, #12]
 375 001c 0493     		str	r3, [sp, #16]
 376 001e 0593     		str	r3, [sp, #20]
 377 0020 0693     		str	r3, [sp, #24]
  57:Src/tim.c     ****   htim5.Init.Prescaler = 5-1;
 378              		.loc 1 57 3 is_stmt 1 view .LVU88
  57:Src/tim.c     ****   htim5.Init.Prescaler = 5-1;
 379              		.loc 1 57 18 is_stmt 0 view .LVU89
 380 0022 2148     		ldr	r0, .L35
 381 0024 214A     		ldr	r2, .L35+4
 382 0026 0260     		str	r2, [r0]
  58:Src/tim.c     ****   htim5.Init.CounterMode = TIM_COUNTERMODE_UP;
 383              		.loc 1 58 3 is_stmt 1 view .LVU90
  58:Src/tim.c     ****   htim5.Init.CounterMode = TIM_COUNTERMODE_UP;
 384              		.loc 1 58 24 is_stmt 0 view .LVU91
 385 0028 0422     		movs	r2, #4
 386 002a 4260     		str	r2, [r0, #4]
  59:Src/tim.c     ****   htim5.Init.Period = 125-1;
 387              		.loc 1 59 3 is_stmt 1 view .LVU92
  59:Src/tim.c     ****   htim5.Init.Period = 125-1;
 388              		.loc 1 59 26 is_stmt 0 view .LVU93
 389 002c 8360     		str	r3, [r0, #8]
  60:Src/tim.c     ****   htim5.Init.ClockDivision = TIM_CLOCKDIVISION_DIV1;
 390              		.loc 1 60 3 is_stmt 1 view .LVU94
  60:Src/tim.c     ****   htim5.Init.ClockDivision = TIM_CLOCKDIVISION_DIV1;
 391              		.loc 1 60 21 is_stmt 0 view .LVU95
 392 002e 7C22     		movs	r2, #124
 393 0030 C260     		str	r2, [r0, #12]
  61:Src/tim.c     ****   htim5.Init.AutoReloadPreload = TIM_AUTORELOAD_PRELOAD_DISABLE;
 394              		.loc 1 61 3 is_stmt 1 view .LVU96
  61:Src/tim.c     ****   htim5.Init.AutoReloadPreload = TIM_AUTORELOAD_PRELOAD_DISABLE;
 395              		.loc 1 61 28 is_stmt 0 view .LVU97
 396 0032 0361     		str	r3, [r0, #16]
  62:Src/tim.c     ****   if (HAL_TIM_Base_Init(&htim5) != HAL_OK)
 397              		.loc 1 62 3 is_stmt 1 view .LVU98
  62:Src/tim.c     ****   if (HAL_TIM_Base_Init(&htim5) != HAL_OK)
 398              		.loc 1 62 32 is_stmt 0 view .LVU99
 399 0034 8361     		str	r3, [r0, #24]
  63:Src/tim.c     ****   {
 400              		.loc 1 63 3 is_stmt 1 view .LVU100
ARM GAS  C:\Users\LY\AppData\Local\Temp\ccbRkbv2.s 			page 12


  63:Src/tim.c     ****   {
 401              		.loc 1 63 7 is_stmt 0 view .LVU101
 402 0036 FFF7FEFF 		bl	HAL_TIM_Base_Init
 403              	.LVL19:
  63:Src/tim.c     ****   {
 404              		.loc 1 63 6 view .LVU102
 405 003a 30BB     		cbnz	r0, .L30
 406              	.L24:
  67:Src/tim.c     ****   if (HAL_TIM_ConfigClockSource(&htim5, &sClockSourceConfig) != HAL_OK)
 407              		.loc 1 67 3 is_stmt 1 view .LVU103
  67:Src/tim.c     ****   if (HAL_TIM_ConfigClockSource(&htim5, &sClockSourceConfig) != HAL_OK)
 408              		.loc 1 67 34 is_stmt 0 view .LVU104
 409 003c 4FF48053 		mov	r3, #4096
 410 0040 0A93     		str	r3, [sp, #40]
  68:Src/tim.c     ****   {
 411              		.loc 1 68 3 is_stmt 1 view .LVU105
  68:Src/tim.c     ****   {
 412              		.loc 1 68 7 is_stmt 0 view .LVU106
 413 0042 0AA9     		add	r1, sp, #40
 414 0044 1848     		ldr	r0, .L35
 415 0046 FFF7FEFF 		bl	HAL_TIM_ConfigClockSource
 416              	.LVL20:
  68:Src/tim.c     ****   {
 417              		.loc 1 68 6 view .LVU107
 418 004a 08BB     		cbnz	r0, .L31
 419              	.L25:
  72:Src/tim.c     ****   {
 420              		.loc 1 72 3 is_stmt 1 view .LVU108
  72:Src/tim.c     ****   {
 421              		.loc 1 72 7 is_stmt 0 view .LVU109
 422 004c 1648     		ldr	r0, .L35
 423 004e FFF7FEFF 		bl	HAL_TIM_PWM_Init
 424              	.LVL21:
  72:Src/tim.c     ****   {
 425              		.loc 1 72 6 view .LVU110
 426 0052 00BB     		cbnz	r0, .L32
 427              	.L26:
  76:Src/tim.c     ****   sMasterConfig.MasterSlaveMode = TIM_MASTERSLAVEMODE_DISABLE;
 428              		.loc 1 76 3 is_stmt 1 view .LVU111
  76:Src/tim.c     ****   sMasterConfig.MasterSlaveMode = TIM_MASTERSLAVEMODE_DISABLE;
 429              		.loc 1 76 37 is_stmt 0 view .LVU112
 430 0054 0023     		movs	r3, #0
 431 0056 0793     		str	r3, [sp, #28]
  77:Src/tim.c     ****   if (HAL_TIMEx_MasterConfigSynchronization(&htim5, &sMasterConfig) != HAL_OK)
 432              		.loc 1 77 3 is_stmt 1 view .LVU113
  77:Src/tim.c     ****   if (HAL_TIMEx_MasterConfigSynchronization(&htim5, &sMasterConfig) != HAL_OK)
 433              		.loc 1 77 33 is_stmt 0 view .LVU114
 434 0058 0993     		str	r3, [sp, #36]
  78:Src/tim.c     ****   {
 435              		.loc 1 78 3 is_stmt 1 view .LVU115
  78:Src/tim.c     ****   {
 436              		.loc 1 78 7 is_stmt 0 view .LVU116
 437 005a 07A9     		add	r1, sp, #28
 438 005c 1248     		ldr	r0, .L35
 439 005e FFF7FEFF 		bl	HAL_TIMEx_MasterConfigSynchronization
 440              	.LVL22:
  78:Src/tim.c     ****   {
ARM GAS  C:\Users\LY\AppData\Local\Temp\ccbRkbv2.s 			page 13


 441              		.loc 1 78 6 view .LVU117
 442 0062 D8B9     		cbnz	r0, .L33
 443              	.L27:
  82:Src/tim.c     ****   sConfigOC.Pulse = 60;
 444              		.loc 1 82 3 is_stmt 1 view .LVU118
  82:Src/tim.c     ****   sConfigOC.Pulse = 60;
 445              		.loc 1 82 20 is_stmt 0 view .LVU119
 446 0064 6023     		movs	r3, #96
 447 0066 0093     		str	r3, [sp]
  83:Src/tim.c     ****   sConfigOC.OCPolarity = TIM_OCPOLARITY_HIGH;
 448              		.loc 1 83 3 is_stmt 1 view .LVU120
  83:Src/tim.c     ****   sConfigOC.OCPolarity = TIM_OCPOLARITY_HIGH;
 449              		.loc 1 83 19 is_stmt 0 view .LVU121
 450 0068 3C23     		movs	r3, #60
 451 006a 0193     		str	r3, [sp, #4]
  84:Src/tim.c     ****   sConfigOC.OCFastMode = TIM_OCFAST_DISABLE;
 452              		.loc 1 84 3 is_stmt 1 view .LVU122
  84:Src/tim.c     ****   sConfigOC.OCFastMode = TIM_OCFAST_DISABLE;
 453              		.loc 1 84 24 is_stmt 0 view .LVU123
 454 006c 0023     		movs	r3, #0
 455 006e 0293     		str	r3, [sp, #8]
  85:Src/tim.c     ****   if (HAL_TIM_PWM_ConfigChannel(&htim5, &sConfigOC, TIM_CHANNEL_2) != HAL_OK)
 456              		.loc 1 85 3 is_stmt 1 view .LVU124
  85:Src/tim.c     ****   if (HAL_TIM_PWM_ConfigChannel(&htim5, &sConfigOC, TIM_CHANNEL_2) != HAL_OK)
 457              		.loc 1 85 24 is_stmt 0 view .LVU125
 458 0070 0493     		str	r3, [sp, #16]
  86:Src/tim.c     ****   {
 459              		.loc 1 86 3 is_stmt 1 view .LVU126
  86:Src/tim.c     ****   {
 460              		.loc 1 86 7 is_stmt 0 view .LVU127
 461 0072 0422     		movs	r2, #4
 462 0074 6946     		mov	r1, sp
 463 0076 0C48     		ldr	r0, .L35
 464 0078 FFF7FEFF 		bl	HAL_TIM_PWM_ConfigChannel
 465              	.LVL23:
  86:Src/tim.c     ****   {
 466              		.loc 1 86 6 view .LVU128
 467 007c 88B9     		cbnz	r0, .L34
 468              	.L28:
  90:Src/tim.c     **** 
 469              		.loc 1 90 3 is_stmt 1 view .LVU129
 470 007e 0A48     		ldr	r0, .L35
 471 0080 FFF7FEFF 		bl	HAL_TIM_MspPostInit
 472              	.LVL24:
  92:Src/tim.c     **** /* TIM6 init function */
 473              		.loc 1 92 1 is_stmt 0 view .LVU130
 474 0084 0FB0     		add	sp, sp, #60
 475              	.LCFI14:
 476              		.cfi_remember_state
 477              		.cfi_def_cfa_offset 4
 478              		@ sp needed
 479 0086 5DF804FB 		ldr	pc, [sp], #4
 480              	.L30:
 481              	.LCFI15:
 482              		.cfi_restore_state
  65:Src/tim.c     ****   }
 483              		.loc 1 65 5 is_stmt 1 view .LVU131
ARM GAS  C:\Users\LY\AppData\Local\Temp\ccbRkbv2.s 			page 14


 484 008a FFF7FEFF 		bl	Error_Handler
 485              	.LVL25:
 486 008e D5E7     		b	.L24
 487              	.L31:
  70:Src/tim.c     ****   }
 488              		.loc 1 70 5 view .LVU132
 489 0090 FFF7FEFF 		bl	Error_Handler
 490              	.LVL26:
 491 0094 DAE7     		b	.L25
 492              	.L32:
  74:Src/tim.c     ****   }
 493              		.loc 1 74 5 view .LVU133
 494 0096 FFF7FEFF 		bl	Error_Handler
 495              	.LVL27:
 496 009a DBE7     		b	.L26
 497              	.L33:
  80:Src/tim.c     ****   }
 498              		.loc 1 80 5 view .LVU134
 499 009c FFF7FEFF 		bl	Error_Handler
 500              	.LVL28:
 501 00a0 E0E7     		b	.L27
 502              	.L34:
  88:Src/tim.c     ****   }
 503              		.loc 1 88 5 view .LVU135
 504 00a2 FFF7FEFF 		bl	Error_Handler
 505              	.LVL29:
 506 00a6 EAE7     		b	.L28
 507              	.L36:
 508              		.align	2
 509              	.L35:
 510 00a8 00000000 		.word	htim5
 511 00ac 000C0040 		.word	1073744896
 512              		.cfi_endproc
 513              	.LFE316:
 515              		.section	.text.HAL_TIM_Base_MspDeInit,"ax",%progbits
 516              		.align	1
 517              		.global	HAL_TIM_Base_MspDeInit
 518              		.syntax unified
 519              		.thumb
 520              		.thumb_func
 521              		.fpu fpv4-sp-d16
 523              	HAL_TIM_Base_MspDeInit:
 524              	.LVL30:
 525              	.LFB320:
 177:Src/tim.c     **** 
 178:Src/tim.c     **** void HAL_TIM_Base_MspDeInit(TIM_HandleTypeDef* tim_baseHandle)
 179:Src/tim.c     **** {
 526              		.loc 1 179 1 view -0
 527              		.cfi_startproc
 528              		@ args = 0, pretend = 0, frame = 0
 529              		@ frame_needed = 0, uses_anonymous_args = 0
 530              		.loc 1 179 1 is_stmt 0 view .LVU137
 531 0000 08B5     		push	{r3, lr}
 532              	.LCFI16:
 533              		.cfi_def_cfa_offset 8
 534              		.cfi_offset 3, -8
 535              		.cfi_offset 14, -4
ARM GAS  C:\Users\LY\AppData\Local\Temp\ccbRkbv2.s 			page 15


 180:Src/tim.c     **** 
 181:Src/tim.c     ****   if(tim_baseHandle->Instance==TIM5)
 536              		.loc 1 181 3 is_stmt 1 view .LVU138
 537              		.loc 1 181 20 is_stmt 0 view .LVU139
 538 0002 0368     		ldr	r3, [r0]
 539              		.loc 1 181 5 view .LVU140
 540 0004 0D4A     		ldr	r2, .L43
 541 0006 9342     		cmp	r3, r2
 542 0008 03D0     		beq	.L41
 182:Src/tim.c     ****   {
 183:Src/tim.c     ****   /* USER CODE BEGIN TIM5_MspDeInit 0 */
 184:Src/tim.c     **** 
 185:Src/tim.c     ****   /* USER CODE END TIM5_MspDeInit 0 */
 186:Src/tim.c     ****     /* Peripheral clock disable */
 187:Src/tim.c     ****     __HAL_RCC_TIM5_CLK_DISABLE();
 188:Src/tim.c     **** 
 189:Src/tim.c     ****     /* TIM5 interrupt Deinit */
 190:Src/tim.c     ****     HAL_NVIC_DisableIRQ(TIM5_IRQn);
 191:Src/tim.c     ****   /* USER CODE BEGIN TIM5_MspDeInit 1 */
 192:Src/tim.c     **** 
 193:Src/tim.c     ****   /* USER CODE END TIM5_MspDeInit 1 */
 194:Src/tim.c     ****   }
 195:Src/tim.c     ****   else if(tim_baseHandle->Instance==TIM6)
 543              		.loc 1 195 8 is_stmt 1 view .LVU141
 544              		.loc 1 195 10 is_stmt 0 view .LVU142
 545 000a 0D4A     		ldr	r2, .L43+4
 546 000c 9342     		cmp	r3, r2
 547 000e 0AD0     		beq	.L42
 548              	.LVL31:
 549              	.L37:
 196:Src/tim.c     ****   {
 197:Src/tim.c     ****   /* USER CODE BEGIN TIM6_MspDeInit 0 */
 198:Src/tim.c     **** 
 199:Src/tim.c     ****   /* USER CODE END TIM6_MspDeInit 0 */
 200:Src/tim.c     ****     /* Peripheral clock disable */
 201:Src/tim.c     ****     __HAL_RCC_TIM6_CLK_DISABLE();
 202:Src/tim.c     **** 
 203:Src/tim.c     ****     /* TIM6 interrupt Deinit */
 204:Src/tim.c     ****     HAL_NVIC_DisableIRQ(TIM6_DAC_IRQn);
 205:Src/tim.c     ****   /* USER CODE BEGIN TIM6_MspDeInit 1 */
 206:Src/tim.c     **** 
 207:Src/tim.c     ****   /* USER CODE END TIM6_MspDeInit 1 */
 208:Src/tim.c     ****   }
 209:Src/tim.c     **** } 
 550              		.loc 1 209 1 view .LVU143
 551 0010 08BD     		pop	{r3, pc}
 552              	.LVL32:
 553              	.L41:
 187:Src/tim.c     **** 
 554              		.loc 1 187 5 is_stmt 1 view .LVU144
 555 0012 02F50132 		add	r2, r2, #132096
 556 0016 936D     		ldr	r3, [r2, #88]
 557 0018 23F00803 		bic	r3, r3, #8
 558 001c 9365     		str	r3, [r2, #88]
 190:Src/tim.c     ****   /* USER CODE BEGIN TIM5_MspDeInit 1 */
 559              		.loc 1 190 5 view .LVU145
 560 001e 3220     		movs	r0, #50
ARM GAS  C:\Users\LY\AppData\Local\Temp\ccbRkbv2.s 			page 16


 561              	.LVL33:
 190:Src/tim.c     ****   /* USER CODE BEGIN TIM5_MspDeInit 1 */
 562              		.loc 1 190 5 is_stmt 0 view .LVU146
 563 0020 FFF7FEFF 		bl	HAL_NVIC_DisableIRQ
 564              	.LVL34:
 565 0024 F4E7     		b	.L37
 566              	.LVL35:
 567              	.L42:
 201:Src/tim.c     **** 
 568              		.loc 1 201 5 is_stmt 1 view .LVU147
 569 0026 02F50032 		add	r2, r2, #131072
 570 002a 936D     		ldr	r3, [r2, #88]
 571 002c 23F01003 		bic	r3, r3, #16
 572 0030 9365     		str	r3, [r2, #88]
 204:Src/tim.c     ****   /* USER CODE BEGIN TIM6_MspDeInit 1 */
 573              		.loc 1 204 5 view .LVU148
 574 0032 3620     		movs	r0, #54
 575              	.LVL36:
 204:Src/tim.c     ****   /* USER CODE BEGIN TIM6_MspDeInit 1 */
 576              		.loc 1 204 5 is_stmt 0 view .LVU149
 577 0034 FFF7FEFF 		bl	HAL_NVIC_DisableIRQ
 578              	.LVL37:
 579              		.loc 1 209 1 view .LVU150
 580 0038 EAE7     		b	.L37
 581              	.L44:
 582 003a 00BF     		.align	2
 583              	.L43:
 584 003c 000C0040 		.word	1073744896
 585 0040 00100040 		.word	1073745920
 586              		.cfi_endproc
 587              	.LFE320:
 589              		.section	.text.USER_PWM_SetDutyRatio,"ax",%progbits
 590              		.align	1
 591              		.global	USER_PWM_SetDutyRatio
 592              		.syntax unified
 593              		.thumb
 594              		.thumb_func
 595              		.fpu fpv4-sp-d16
 597              	USER_PWM_SetDutyRatio:
 598              	.LVL38:
 599              	.LFB321:
 210:Src/tim.c     **** 
 211:Src/tim.c     **** /* USER CODE BEGIN 1 */
 212:Src/tim.c     **** /* USER CODE BEGIN 1 */
 213:Src/tim.c     **** /*********************************************************************
 214:Src/tim.c     ****  *	function name:  USER_PWM_SetDutyRatio
 215:Src/tim.c     ****  *	describe: è®¾ç½®å ç©ºæ¯”
 216:Src/tim.c     ****  *	input:TIM_HandleTypeDef *htimï¼šå®šæ—¶å™¨ï¼›uint32_t Channelï¼šé€šé“ï¼›uint8_t valueï¼šå ç©ºæ¯
 217:Src/tim.c     ****  *	output:void
 218:Src/tim.c     ****  *	return:void
 219:Src/tim.c     ****  *	revision histroy :   1.
 220:Src/tim.c     ****  *                      2.
 221:Src/tim.c     ****  **********************************************************************/
 222:Src/tim.c     **** void USER_PWM_SetDutyRatio(TIM_HandleTypeDef *htim, uint32_t Channel, uint8_t value)
 223:Src/tim.c     **** {
 600              		.loc 1 223 1 is_stmt 1 view -0
 601              		.cfi_startproc
ARM GAS  C:\Users\LY\AppData\Local\Temp\ccbRkbv2.s 			page 17


 602              		@ args = 0, pretend = 0, frame = 32
 603              		@ frame_needed = 0, uses_anonymous_args = 0
 604              		.loc 1 223 1 is_stmt 0 view .LVU152
 605 0000 30B5     		push	{r4, r5, lr}
 606              	.LCFI17:
 607              		.cfi_def_cfa_offset 12
 608              		.cfi_offset 4, -12
 609              		.cfi_offset 5, -8
 610              		.cfi_offset 14, -4
 611 0002 89B0     		sub	sp, sp, #36
 612              	.LCFI18:
 613              		.cfi_def_cfa_offset 48
 614 0004 0546     		mov	r5, r0
 615 0006 0C46     		mov	r4, r1
 224:Src/tim.c     ****     TIM_OC_InitTypeDef sConfigOC;
 616              		.loc 1 224 5 is_stmt 1 view .LVU153
 225:Src/tim.c     ****     uint32_t pluse = value;
 617              		.loc 1 225 5 view .LVU154
 618              	.LVL39:
 226:Src/tim.c     ****     sConfigOC.OCMode = TIM_OCMODE_PWM1;
 619              		.loc 1 226 5 view .LVU155
 620              		.loc 1 226 22 is_stmt 0 view .LVU156
 621 0008 6023     		movs	r3, #96
 622 000a 0193     		str	r3, [sp, #4]
 227:Src/tim.c     ****     sConfigOC.Pulse = pluse;
 623              		.loc 1 227 5 is_stmt 1 view .LVU157
 624              		.loc 1 227 21 is_stmt 0 view .LVU158
 625 000c 0292     		str	r2, [sp, #8]
 228:Src/tim.c     ****     sConfigOC.OCPolarity = TIM_OCPOLARITY_HIGH;
 626              		.loc 1 228 5 is_stmt 1 view .LVU159
 627              		.loc 1 228 26 is_stmt 0 view .LVU160
 628 000e 0023     		movs	r3, #0
 629 0010 0393     		str	r3, [sp, #12]
 229:Src/tim.c     ****     sConfigOC.OCFastMode = TIM_OCFAST_DISABLE;
 630              		.loc 1 229 5 is_stmt 1 view .LVU161
 631              		.loc 1 229 26 is_stmt 0 view .LVU162
 632 0012 0593     		str	r3, [sp, #20]
 230:Src/tim.c     ****     HAL_TIM_PWM_ConfigChannel(htim, &sConfigOC, Channel);
 633              		.loc 1 230 5 is_stmt 1 view .LVU163
 634 0014 0A46     		mov	r2, r1
 635              	.LVL40:
 636              		.loc 1 230 5 is_stmt 0 view .LVU164
 637 0016 01A9     		add	r1, sp, #4
 638              	.LVL41:
 639              		.loc 1 230 5 view .LVU165
 640 0018 FFF7FEFF 		bl	HAL_TIM_PWM_ConfigChannel
 641              	.LVL42:
 231:Src/tim.c     ****     HAL_TIM_PWM_Start(htim, Channel);
 642              		.loc 1 231 5 is_stmt 1 view .LVU166
 643 001c 2146     		mov	r1, r4
 644 001e 2846     		mov	r0, r5
 645 0020 FFF7FEFF 		bl	HAL_TIM_PWM_Start
 646              	.LVL43:
 232:Src/tim.c     **** }
 647              		.loc 1 232 1 is_stmt 0 view .LVU167
 648 0024 09B0     		add	sp, sp, #36
 649              	.LCFI19:
ARM GAS  C:\Users\LY\AppData\Local\Temp\ccbRkbv2.s 			page 18


 650              		.cfi_def_cfa_offset 12
 651              		@ sp needed
 652 0026 30BD     		pop	{r4, r5, pc}
 653              		.loc 1 232 1 view .LVU168
 654              		.cfi_endproc
 655              	.LFE321:
 657              		.section	.text.start_pwm_buzzer,"ax",%progbits
 658              		.align	1
 659              		.global	start_pwm_buzzer
 660              		.syntax unified
 661              		.thumb
 662              		.thumb_func
 663              		.fpu fpv4-sp-d16
 665              	start_pwm_buzzer:
 666              	.LFB322:
 233:Src/tim.c     **** /*********************************************************************
 234:Src/tim.c     ****  *	function name:  start_pwm_buzzer
 235:Src/tim.c     ****  *	describe: å¼€å¯pwmè¾“å‡º
 236:Src/tim.c     ****  *	input:void
 237:Src/tim.c     ****  *	output:void
 238:Src/tim.c     ****  *	return:void
 239:Src/tim.c     ****  *	revision histroy :   1.
 240:Src/tim.c     ****  *                      2.
 241:Src/tim.c     ****  **********************************************************************/
 242:Src/tim.c     **** void start_pwm_buzzer(void)
 243:Src/tim.c     **** {
 667              		.loc 1 243 1 is_stmt 1 view -0
 668              		.cfi_startproc
 669              		@ args = 0, pretend = 0, frame = 0
 670              		@ frame_needed = 0, uses_anonymous_args = 0
 671 0000 08B5     		push	{r3, lr}
 672              	.LCFI20:
 673              		.cfi_def_cfa_offset 8
 674              		.cfi_offset 3, -8
 675              		.cfi_offset 14, -4
 244:Src/tim.c     ****     data_cnt = 44;
 676              		.loc 1 244 5 view .LVU170
 677              		.loc 1 244 14 is_stmt 0 view .LVU171
 678 0002 044B     		ldr	r3, .L49
 679 0004 2C22     		movs	r2, #44
 680 0006 1A60     		str	r2, [r3]
 245:Src/tim.c     ****     HAL_TIM_PWM_Start(&htim5, TIM_CHANNEL_2);
 681              		.loc 1 245 5 is_stmt 1 view .LVU172
 682 0008 0421     		movs	r1, #4
 683 000a 0348     		ldr	r0, .L49+4
 684 000c FFF7FEFF 		bl	HAL_TIM_PWM_Start
 685              	.LVL44:
 246:Src/tim.c     **** }
 686              		.loc 1 246 1 is_stmt 0 view .LVU173
 687 0010 08BD     		pop	{r3, pc}
 688              	.L50:
 689 0012 00BF     		.align	2
 690              	.L49:
 691 0014 00000000 		.word	.LANCHOR0
 692 0018 00000000 		.word	htim5
 693              		.cfi_endproc
 694              	.LFE322:
ARM GAS  C:\Users\LY\AppData\Local\Temp\ccbRkbv2.s 			page 19


 696              		.section	.text.stop_pwm_buzzer,"ax",%progbits
 697              		.align	1
 698              		.global	stop_pwm_buzzer
 699              		.syntax unified
 700              		.thumb
 701              		.thumb_func
 702              		.fpu fpv4-sp-d16
 704              	stop_pwm_buzzer:
 705              	.LFB323:
 247:Src/tim.c     **** /*********************************************************************
 248:Src/tim.c     ****  *	function name:  stop_pwm_buzzer
 249:Src/tim.c     ****  *	describe: å…³é—­PWMè¾“å‡º
 250:Src/tim.c     ****  *	input:void
 251:Src/tim.c     ****  *	output:void
 252:Src/tim.c     ****  *	return:void
 253:Src/tim.c     ****  *	revision histroy :   1.
 254:Src/tim.c     ****  *                      2.
 255:Src/tim.c     ****  **********************************************************************/
 256:Src/tim.c     **** void stop_pwm_buzzer(void)
 257:Src/tim.c     **** {
 706              		.loc 1 257 1 is_stmt 1 view -0
 707              		.cfi_startproc
 708              		@ args = 0, pretend = 0, frame = 0
 709              		@ frame_needed = 0, uses_anonymous_args = 0
 710 0000 08B5     		push	{r3, lr}
 711              	.LCFI21:
 712              		.cfi_def_cfa_offset 8
 713              		.cfi_offset 3, -8
 714              		.cfi_offset 14, -4
 258:Src/tim.c     **** 	HAL_TIM_PWM_Stop(&htim5, TIM_CHANNEL_2);
 715              		.loc 1 258 2 view .LVU175
 716 0002 0421     		movs	r1, #4
 717 0004 0148     		ldr	r0, .L53
 718 0006 FFF7FEFF 		bl	HAL_TIM_PWM_Stop
 719              	.LVL45:
 259:Src/tim.c     **** }
 720              		.loc 1 259 1 is_stmt 0 view .LVU176
 721 000a 08BD     		pop	{r3, pc}
 722              	.L54:
 723              		.align	2
 724              	.L53:
 725 000c 00000000 		.word	htim5
 726              		.cfi_endproc
 727              	.LFE323:
 729              		.section	.text.HAL_TIM_PeriodElapsedCallback,"ax",%progbits
 730              		.align	1
 731              		.global	HAL_TIM_PeriodElapsedCallback
 732              		.syntax unified
 733              		.thumb
 734              		.thumb_func
 735              		.fpu fpv4-sp-d16
 737              	HAL_TIM_PeriodElapsedCallback:
 738              	.LVL46:
 739              	.LFB324:
 260:Src/tim.c     **** 
 261:Src/tim.c     **** void HAL_TIM_PeriodElapsedCallback(TIM_HandleTypeDef *htim)
 262:Src/tim.c     **** {
ARM GAS  C:\Users\LY\AppData\Local\Temp\ccbRkbv2.s 			page 20


 740              		.loc 1 262 1 is_stmt 1 view -0
 741              		.cfi_startproc
 742              		@ args = 0, pretend = 0, frame = 0
 743              		@ frame_needed = 0, uses_anonymous_args = 0
 744              		.loc 1 262 1 is_stmt 0 view .LVU178
 745 0000 10B5     		push	{r4, lr}
 746              	.LCFI22:
 747              		.cfi_def_cfa_offset 8
 748              		.cfi_offset 4, -8
 749              		.cfi_offset 14, -4
 750 0002 0446     		mov	r4, r0
 263:Src/tim.c     ****     if(htim->Instance == htim5.Instance)
 751              		.loc 1 263 5 is_stmt 1 view .LVU179
 752              		.loc 1 263 12 is_stmt 0 view .LVU180
 753 0004 0268     		ldr	r2, [r0]
 754              		.loc 1 263 31 view .LVU181
 755 0006 784B     		ldr	r3, .L75
 756 0008 1B68     		ldr	r3, [r3]
 757              		.loc 1 263 7 view .LVU182
 758 000a 9A42     		cmp	r2, r3
 759 000c 05D0     		beq	.L69
 760              	.LVL47:
 761              	.L56:
 264:Src/tim.c     ****     {
 265:Src/tim.c     **** 
 266:Src/tim.c     ****         if(data_cnt < (sizeof(__8k_wav)-7000))
 267:Src/tim.c     ****         {
 268:Src/tim.c     ****             time = (__8k_wav[data_cnt]+0x80) * 125 / 256;
 269:Src/tim.c     ****             data_cnt++;
 270:Src/tim.c     ****             USER_PWM_SetDutyRatio(&htim5, TIM_CHANNEL_2, time);
 271:Src/tim.c     ****         }
 272:Src/tim.c     ****         else
 273:Src/tim.c     ****         {
 274:Src/tim.c     ****             stop_pwm_buzzer();
 275:Src/tim.c     ****             OPAMP_POWER_DIS;
 276:Src/tim.c     ****             data_cnt = 44;
 277:Src/tim.c     ****         }
 278:Src/tim.c     ****     }
 279:Src/tim.c     ****     if(htim->Instance == htim6.Instance)
 762              		.loc 1 279 5 is_stmt 1 view .LVU183
 763              		.loc 1 279 12 is_stmt 0 view .LVU184
 764 000e 2268     		ldr	r2, [r4]
 765              		.loc 1 279 31 view .LVU185
 766 0010 764B     		ldr	r3, .L75+4
 767 0012 1B68     		ldr	r3, [r3]
 768              		.loc 1 279 7 view .LVU186
 769 0014 9A42     		cmp	r2, r3
 770 0016 2ED0     		beq	.L70
 771              	.L55:
 280:Src/tim.c     ****     {
 281:Src/tim.c     ****         g_led_tick++;
 282:Src/tim.c     ****         if(g_led_tick >= LED_TOGGLE_CNT)  
 283:Src/tim.c     ****         {
 284:Src/tim.c     ****             g_led_tick = V_ZERO;
 285:Src/tim.c     ****             LED_RUN;
 286:Src/tim.c     ****             WDI_REFRESH;
 287:Src/tim.c     ****             HAL_UART_Receive_IT(&huart5, ar_usart5_rx_buffer, 1);    
ARM GAS  C:\Users\LY\AppData\Local\Temp\ccbRkbv2.s 			page 21


 288:Src/tim.c     ****         }
 289:Src/tim.c     ****         g_voltage_check_tick++;
 290:Src/tim.c     ****         if(g_voltage_check_tick >= VOLTAGE_CHECK_CNT)/*5åˆ†é’Ÿæ£€æµ‹ä¸€æ¬¡*/
 291:Src/tim.c     ****         {
 292:Src/tim.c     ****             g_voltage_check_tick = V_ZERO;        
 293:Src/tim.c     ****             g_voltage_check_flag = V_ONE;
 294:Src/tim.c     ****         }
 295:Src/tim.c     ****         if(g_lock_open_flag == OPEN_DOOR)
 296:Src/tim.c     ****         {
 297:Src/tim.c     ****             g_unlock_tick++;
 298:Src/tim.c     ****             if(g_unlock_tick >= (g_open_luck_time/5))
 299:Src/tim.c     ****             {
 300:Src/tim.c     ****                 g_lock_open_flag = V_ZERO;
 301:Src/tim.c     ****                 g_unlock_tick = V_ZERO;
 302:Src/tim.c     ****                 g_open_luck_time = V_ZERO;
 303:Src/tim.c     ****                 g_unlock_flag = DOOR_UNLOCK_EN;
 304:Src/tim.c     ****             }
 305:Src/tim.c     ****         }
 306:Src/tim.c     ****         if(g_ble_connect_flag == BLE_E95_CONNECTED)
 307:Src/tim.c     ****         {
 308:Src/tim.c     ****             g_ble_connect_count++;
 309:Src/tim.c     ****             if(g_ble_connect_count >= (BLE_E95_CONNECTED_TIME_OUT/V_FIVE))
 310:Src/tim.c     ****             {
 311:Src/tim.c     ****                 g_ble_connect_count = V_ZERO;
 312:Src/tim.c     ****                 g_ble_disconnect_flag = V_ONE;
 313:Src/tim.c     ****             }
 314:Src/tim.c     ****         }
 315:Src/tim.c     ****         if(g_set_param_timeout_flag)
 316:Src/tim.c     ****         {
 317:Src/tim.c     ****             g_set_param_count++;
 318:Src/tim.c     ****             if(g_set_param_count >= (SET_BLE_CMD_TIMEOUT/V_FIVE))
 319:Src/tim.c     ****             {
 320:Src/tim.c     ****                 g_set_param_timeout_flag = V_ZERO;
 321:Src/tim.c     ****                 g_set_param_count = V_ZERO;
 322:Src/tim.c     ****                 g_set_step = g_current_step;
 323:Src/tim.c     ****             }
 324:Src/tim.c     ****         }
 325:Src/tim.c     ****         if(g_nb_send_cmd_star_time)
 326:Src/tim.c     ****         {
 327:Src/tim.c     ****             g_nb_send_cmd_overtime++;
 328:Src/tim.c     ****             if(g_nb_send_cmd_overtime >= (IOT_SEND_CMD_OVERTIME/V_FIVE))
 329:Src/tim.c     ****             {
 330:Src/tim.c     ****                 g_nb_ctrl_step = g_nb_curren_step;
 331:Src/tim.c     ****                 g_nb_send_cmd_overtime = V_ZERO;
 332:Src/tim.c     ****                 g_nb_send_cmd_star_time = V_ZERO;
 333:Src/tim.c     ****             }
 334:Src/tim.c     ****         }
 335:Src/tim.c     ****         if(g_start_open_door_flag)
 336:Src/tim.c     ****         {
 337:Src/tim.c     ****             g_start_open_door_cnt++;
 338:Src/tim.c     ****             if(g_start_open_door_cnt >= (DOOR_OPEN_INTERVAL/V_FIVE))
 339:Src/tim.c     ****             {
 340:Src/tim.c     ****                 g_start_open_door_flag = V_ZERO;
 341:Src/tim.c     ****                 g_start_open_door_cnt = V_ZERO;
 342:Src/tim.c     ****                 g_open_one_door_flag = V_ONE;
 343:Src/tim.c     ****             }
 344:Src/tim.c     ****         }
ARM GAS  C:\Users\LY\AppData\Local\Temp\ccbRkbv2.s 			page 22


 345:Src/tim.c     ****         if(g_iot_power_on_delay)
 346:Src/tim.c     ****         {
 347:Src/tim.c     ****             g_iot_power_on_delay_cnt++;
 348:Src/tim.c     ****             if(g_iot_power_on_delay_cnt >= 2000)//IOT_POWER_ON_DELAY_TIME)
 349:Src/tim.c     ****             {
 350:Src/tim.c     ****                 g_iot_power_on_delay_cnt = V_ZERO;
 351:Src/tim.c     ****                 g_iot_power_on_delay = V_ZERO;
 352:Src/tim.c     ****                 g_iot_wakeup_flag = V_ONE;
 353:Src/tim.c     ****             }
 354:Src/tim.c     ****         }
 355:Src/tim.c     ****         if(g_uart5_tick)
 356:Src/tim.c     ****         {
 357:Src/tim.c     ****             g_uart5_tick--;
 358:Src/tim.c     ****         }
 359:Src/tim.c     ****     }
 360:Src/tim.c     **** }
 772              		.loc 1 360 1 view .LVU187
 773 0018 10BD     		pop	{r4, pc}
 774              	.LVL48:
 775              	.L69:
 266:Src/tim.c     ****         {
 776              		.loc 1 266 9 is_stmt 1 view .LVU188
 266:Src/tim.c     ****         {
 777              		.loc 1 266 21 is_stmt 0 view .LVU189
 778 001a 754B     		ldr	r3, .L75+8
 779 001c 1A68     		ldr	r2, [r3]
 266:Src/tim.c     ****         {
 780              		.loc 1 266 11 view .LVU190
 781 001e 42F69D13 		movw	r3, #10653
 782 0022 9A42     		cmp	r2, r3
 783 0024 1BD8     		bhi	.L57
 268:Src/tim.c     ****             data_cnt++;
 784              		.loc 1 268 13 is_stmt 1 view .LVU191
 268:Src/tim.c     ****             data_cnt++;
 785              		.loc 1 268 29 is_stmt 0 view .LVU192
 786 0026 724B     		ldr	r3, .L75+8
 787 0028 1B68     		ldr	r3, [r3]
 788 002a 724A     		ldr	r2, .L75+12
 789 002c D35C     		ldrb	r3, [r2, r3]	@ zero_extendqisi2
 268:Src/tim.c     ****             data_cnt++;
 790              		.loc 1 268 39 view .LVU193
 791 002e 8033     		adds	r3, r3, #128
 268:Src/tim.c     ****             data_cnt++;
 792              		.loc 1 268 46 view .LVU194
 793 0030 C3EB4312 		rsb	r2, r3, r3, lsl #5
 794 0034 03EB8203 		add	r3, r3, r2, lsl #2
 268:Src/tim.c     ****             data_cnt++;
 795              		.loc 1 268 52 view .LVU195
 796 0038 1A46     		mov	r2, r3
 797 003a 002B     		cmp	r3, #0
 798 003c 0CDB     		blt	.L71
 799              	.L58:
 800 003e 1212     		asrs	r2, r2, #8
 268:Src/tim.c     ****             data_cnt++;
 801              		.loc 1 268 18 view .LVU196
 802 0040 6D4B     		ldr	r3, .L75+16
 803 0042 1A60     		str	r2, [r3]
ARM GAS  C:\Users\LY\AppData\Local\Temp\ccbRkbv2.s 			page 23


 269:Src/tim.c     ****             USER_PWM_SetDutyRatio(&htim5, TIM_CHANNEL_2, time);
 804              		.loc 1 269 13 is_stmt 1 view .LVU197
 269:Src/tim.c     ****             USER_PWM_SetDutyRatio(&htim5, TIM_CHANNEL_2, time);
 805              		.loc 1 269 21 is_stmt 0 view .LVU198
 806 0044 6A49     		ldr	r1, .L75+8
 807 0046 0B68     		ldr	r3, [r1]
 808 0048 0133     		adds	r3, r3, #1
 809 004a 0B60     		str	r3, [r1]
 270:Src/tim.c     ****         }
 810              		.loc 1 270 13 is_stmt 1 view .LVU199
 811 004c D2B2     		uxtb	r2, r2
 812 004e 0421     		movs	r1, #4
 813 0050 6548     		ldr	r0, .L75
 814              	.LVL49:
 270:Src/tim.c     ****         }
 815              		.loc 1 270 13 is_stmt 0 view .LVU200
 816 0052 FFF7FEFF 		bl	USER_PWM_SetDutyRatio
 817              	.LVL50:
 818 0056 DAE7     		b	.L56
 819              	.LVL51:
 820              	.L71:
 268:Src/tim.c     ****             data_cnt++;
 821              		.loc 1 268 52 view .LVU201
 822 0058 03F1FF02 		add	r2, r3, #255
 823 005c EFE7     		b	.L58
 824              	.L57:
 274:Src/tim.c     ****             OPAMP_POWER_DIS;
 825              		.loc 1 274 13 is_stmt 1 view .LVU202
 826 005e FFF7FEFF 		bl	stop_pwm_buzzer
 827              	.LVL52:
 275:Src/tim.c     ****             data_cnt = 44;
 828              		.loc 1 275 13 view .LVU203
 829 0062 0022     		movs	r2, #0
 830 0064 4FF48061 		mov	r1, #1024
 831 0068 6448     		ldr	r0, .L75+20
 832 006a FFF7FEFF 		bl	HAL_GPIO_WritePin
 833              	.LVL53:
 276:Src/tim.c     ****         }
 834              		.loc 1 276 13 view .LVU204
 276:Src/tim.c     ****         }
 835              		.loc 1 276 22 is_stmt 0 view .LVU205
 836 006e 604B     		ldr	r3, .L75+8
 837 0070 2C22     		movs	r2, #44
 838 0072 1A60     		str	r2, [r3]
 839 0074 CBE7     		b	.L56
 840              	.L70:
 281:Src/tim.c     ****         if(g_led_tick >= LED_TOGGLE_CNT)  
 841              		.loc 1 281 9 is_stmt 1 view .LVU206
 281:Src/tim.c     ****         if(g_led_tick >= LED_TOGGLE_CNT)  
 842              		.loc 1 281 19 is_stmt 0 view .LVU207
 843 0076 624A     		ldr	r2, .L75+24
 844 0078 1388     		ldrh	r3, [r2]
 845 007a 0133     		adds	r3, r3, #1
 846 007c 9BB2     		uxth	r3, r3
 847 007e 1380     		strh	r3, [r2]	@ movhi
 282:Src/tim.c     ****         {
 848              		.loc 1 282 9 is_stmt 1 view .LVU208
ARM GAS  C:\Users\LY\AppData\Local\Temp\ccbRkbv2.s 			page 24


 282:Src/tim.c     ****         {
 849              		.loc 1 282 11 is_stmt 0 view .LVU209
 850 0080 C72B     		cmp	r3, #199
 851 0082 71D8     		bhi	.L72
 852              	.L60:
 289:Src/tim.c     ****         if(g_voltage_check_tick >= VOLTAGE_CHECK_CNT)/*5åˆ†é’Ÿæ£€æµ‹ä¸€æ¬¡*/
 853              		.loc 1 289 9 is_stmt 1 view .LVU210
 289:Src/tim.c     ****         if(g_voltage_check_tick >= VOLTAGE_CHECK_CNT)/*5åˆ†é’Ÿæ£€æµ‹ä¸€æ¬¡*/
 854              		.loc 1 289 29 is_stmt 0 view .LVU211
 855 0084 5F4A     		ldr	r2, .L75+28
 856 0086 1388     		ldrh	r3, [r2]
 857 0088 0133     		adds	r3, r3, #1
 858 008a 9BB2     		uxth	r3, r3
 859 008c 1380     		strh	r3, [r2]	@ movhi
 290:Src/tim.c     ****         {
 860              		.loc 1 290 9 is_stmt 1 view .LVU212
 290:Src/tim.c     ****         {
 861              		.loc 1 290 11 is_stmt 0 view .LVU213
 862 008e 4EF65F22 		movw	r2, #59999
 863 0092 9342     		cmp	r3, r2
 864 0094 05D9     		bls	.L61
 292:Src/tim.c     ****             g_voltage_check_flag = V_ONE;
 865              		.loc 1 292 13 is_stmt 1 view .LVU214
 292:Src/tim.c     ****             g_voltage_check_flag = V_ONE;
 866              		.loc 1 292 34 is_stmt 0 view .LVU215
 867 0096 5B4B     		ldr	r3, .L75+28
 868 0098 0022     		movs	r2, #0
 869 009a 1A80     		strh	r2, [r3]	@ movhi
 293:Src/tim.c     ****         }
 870              		.loc 1 293 13 is_stmt 1 view .LVU216
 293:Src/tim.c     ****         }
 871              		.loc 1 293 34 is_stmt 0 view .LVU217
 872 009c 5A4B     		ldr	r3, .L75+32
 873 009e 0122     		movs	r2, #1
 874 00a0 1A70     		strb	r2, [r3]
 875              	.L61:
 295:Src/tim.c     ****         {
 876              		.loc 1 295 9 is_stmt 1 view .LVU218
 295:Src/tim.c     ****         {
 877              		.loc 1 295 29 is_stmt 0 view .LVU219
 878 00a2 5A4B     		ldr	r3, .L75+36
 879 00a4 1B78     		ldrb	r3, [r3]	@ zero_extendqisi2
 880 00a6 DBB2     		uxtb	r3, r3
 295:Src/tim.c     ****         {
 881              		.loc 1 295 11 view .LVU220
 882 00a8 012B     		cmp	r3, #1
 883 00aa 6FD0     		beq	.L73
 884              	.L62:
 306:Src/tim.c     ****         {
 885              		.loc 1 306 9 is_stmt 1 view .LVU221
 306:Src/tim.c     ****         {
 886              		.loc 1 306 31 is_stmt 0 view .LVU222
 887 00ac 584B     		ldr	r3, .L75+40
 888 00ae 1B78     		ldrb	r3, [r3]	@ zero_extendqisi2
 889 00b0 DBB2     		uxtb	r3, r3
 306:Src/tim.c     ****         {
 890              		.loc 1 306 11 view .LVU223
ARM GAS  C:\Users\LY\AppData\Local\Temp\ccbRkbv2.s 			page 25


 891 00b2 012B     		cmp	r3, #1
 892 00b4 00F08780 		beq	.L74
 893              	.L63:
 315:Src/tim.c     ****         {
 894              		.loc 1 315 9 is_stmt 1 view .LVU224
 315:Src/tim.c     ****         {
 895              		.loc 1 315 12 is_stmt 0 view .LVU225
 896 00b8 564B     		ldr	r3, .L75+44
 897 00ba 1B78     		ldrb	r3, [r3]	@ zero_extendqisi2
 315:Src/tim.c     ****         {
 898              		.loc 1 315 11 view .LVU226
 899 00bc 9BB1     		cbz	r3, .L64
 317:Src/tim.c     ****             if(g_set_param_count >= (SET_BLE_CMD_TIMEOUT/V_FIVE))
 900              		.loc 1 317 13 is_stmt 1 view .LVU227
 317:Src/tim.c     ****             if(g_set_param_count >= (SET_BLE_CMD_TIMEOUT/V_FIVE))
 901              		.loc 1 317 30 is_stmt 0 view .LVU228
 902 00be 564A     		ldr	r2, .L75+48
 903 00c0 1388     		ldrh	r3, [r2]
 904 00c2 9BB2     		uxth	r3, r3
 905 00c4 0133     		adds	r3, r3, #1
 906 00c6 9BB2     		uxth	r3, r3
 907 00c8 1380     		strh	r3, [r2]	@ movhi
 318:Src/tim.c     ****             {
 908              		.loc 1 318 13 is_stmt 1 view .LVU229
 318:Src/tim.c     ****             {
 909              		.loc 1 318 34 is_stmt 0 view .LVU230
 910 00ca 1388     		ldrh	r3, [r2]
 911 00cc 9BB2     		uxth	r3, r3
 318:Src/tim.c     ****             {
 912              		.loc 1 318 15 view .LVU231
 913 00ce B3F5C87F 		cmp	r3, #400
 914 00d2 08D3     		bcc	.L64
 320:Src/tim.c     ****                 g_set_param_count = V_ZERO;
 915              		.loc 1 320 17 is_stmt 1 view .LVU232
 320:Src/tim.c     ****                 g_set_param_count = V_ZERO;
 916              		.loc 1 320 42 is_stmt 0 view .LVU233
 917 00d4 0023     		movs	r3, #0
 918 00d6 4F4A     		ldr	r2, .L75+44
 919 00d8 1370     		strb	r3, [r2]
 321:Src/tim.c     ****                 g_set_step = g_current_step;
 920              		.loc 1 321 17 is_stmt 1 view .LVU234
 321:Src/tim.c     ****                 g_set_step = g_current_step;
 921              		.loc 1 321 35 is_stmt 0 view .LVU235
 922 00da 4F4A     		ldr	r2, .L75+48
 923 00dc 1380     		strh	r3, [r2]	@ movhi
 322:Src/tim.c     ****             }
 924              		.loc 1 322 17 is_stmt 1 view .LVU236
 322:Src/tim.c     ****             }
 925              		.loc 1 322 28 is_stmt 0 view .LVU237
 926 00de 4F4B     		ldr	r3, .L75+52
 927 00e0 1A78     		ldrb	r2, [r3]	@ zero_extendqisi2
 928 00e2 4F4B     		ldr	r3, .L75+56
 929 00e4 1A70     		strb	r2, [r3]
 930              	.L64:
 325:Src/tim.c     ****         {
 931              		.loc 1 325 9 is_stmt 1 view .LVU238
 325:Src/tim.c     ****         {
ARM GAS  C:\Users\LY\AppData\Local\Temp\ccbRkbv2.s 			page 26


 932              		.loc 1 325 12 is_stmt 0 view .LVU239
 933 00e6 4F4B     		ldr	r3, .L75+60
 934 00e8 1B78     		ldrb	r3, [r3]	@ zero_extendqisi2
 325:Src/tim.c     ****         {
 935              		.loc 1 325 11 view .LVU240
 936 00ea 83B1     		cbz	r3, .L65
 327:Src/tim.c     ****             if(g_nb_send_cmd_overtime >= (IOT_SEND_CMD_OVERTIME/V_FIVE))
 937              		.loc 1 327 13 is_stmt 1 view .LVU241
 327:Src/tim.c     ****             if(g_nb_send_cmd_overtime >= (IOT_SEND_CMD_OVERTIME/V_FIVE))
 938              		.loc 1 327 35 is_stmt 0 view .LVU242
 939 00ec 4E4A     		ldr	r2, .L75+64
 940 00ee 1388     		ldrh	r3, [r2]
 941 00f0 0133     		adds	r3, r3, #1
 942 00f2 9BB2     		uxth	r3, r3
 943 00f4 1380     		strh	r3, [r2]	@ movhi
 328:Src/tim.c     ****             {
 944              		.loc 1 328 13 is_stmt 1 view .LVU243
 328:Src/tim.c     ****             {
 945              		.loc 1 328 15 is_stmt 0 view .LVU244
 946 00f6 B3F57A7F 		cmp	r3, #1000
 947 00fa 08D3     		bcc	.L65
 330:Src/tim.c     ****                 g_nb_send_cmd_overtime = V_ZERO;
 948              		.loc 1 330 17 is_stmt 1 view .LVU245
 330:Src/tim.c     ****                 g_nb_send_cmd_overtime = V_ZERO;
 949              		.loc 1 330 32 is_stmt 0 view .LVU246
 950 00fc 4B4B     		ldr	r3, .L75+68
 951 00fe 1A78     		ldrb	r2, [r3]	@ zero_extendqisi2
 952 0100 4B4B     		ldr	r3, .L75+72
 953 0102 1A70     		strb	r2, [r3]
 331:Src/tim.c     ****                 g_nb_send_cmd_star_time = V_ZERO;
 954              		.loc 1 331 17 is_stmt 1 view .LVU247
 331:Src/tim.c     ****                 g_nb_send_cmd_star_time = V_ZERO;
 955              		.loc 1 331 40 is_stmt 0 view .LVU248
 956 0104 0023     		movs	r3, #0
 957 0106 484A     		ldr	r2, .L75+64
 958 0108 1380     		strh	r3, [r2]	@ movhi
 332:Src/tim.c     ****             }
 959              		.loc 1 332 17 is_stmt 1 view .LVU249
 332:Src/tim.c     ****             }
 960              		.loc 1 332 41 is_stmt 0 view .LVU250
 961 010a 464A     		ldr	r2, .L75+60
 962 010c 1370     		strb	r3, [r2]
 963              	.L65:
 335:Src/tim.c     ****         {
 964              		.loc 1 335 9 is_stmt 1 view .LVU251
 335:Src/tim.c     ****         {
 965              		.loc 1 335 12 is_stmt 0 view .LVU252
 966 010e 494B     		ldr	r3, .L75+76
 967 0110 1B78     		ldrb	r3, [r3]	@ zero_extendqisi2
 335:Src/tim.c     ****         {
 968              		.loc 1 335 11 view .LVU253
 969 0112 73B1     		cbz	r3, .L66
 337:Src/tim.c     ****             if(g_start_open_door_cnt >= (DOOR_OPEN_INTERVAL/V_FIVE))
 970              		.loc 1 337 13 is_stmt 1 view .LVU254
 337:Src/tim.c     ****             if(g_start_open_door_cnt >= (DOOR_OPEN_INTERVAL/V_FIVE))
 971              		.loc 1 337 34 is_stmt 0 view .LVU255
 972 0114 484A     		ldr	r2, .L75+80
ARM GAS  C:\Users\LY\AppData\Local\Temp\ccbRkbv2.s 			page 27


 973 0116 1388     		ldrh	r3, [r2]
 974 0118 0133     		adds	r3, r3, #1
 975 011a 9BB2     		uxth	r3, r3
 976 011c 1380     		strh	r3, [r2]	@ movhi
 338:Src/tim.c     ****             {
 977              		.loc 1 338 13 is_stmt 1 view .LVU256
 338:Src/tim.c     ****             {
 978              		.loc 1 338 15 is_stmt 0 view .LVU257
 979 011e C72B     		cmp	r3, #199
 980 0120 07D9     		bls	.L66
 340:Src/tim.c     ****                 g_start_open_door_cnt = V_ZERO;
 981              		.loc 1 340 17 is_stmt 1 view .LVU258
 340:Src/tim.c     ****                 g_start_open_door_cnt = V_ZERO;
 982              		.loc 1 340 40 is_stmt 0 view .LVU259
 983 0122 0023     		movs	r3, #0
 984 0124 434A     		ldr	r2, .L75+76
 985 0126 1370     		strb	r3, [r2]
 341:Src/tim.c     ****                 g_open_one_door_flag = V_ONE;
 986              		.loc 1 341 17 is_stmt 1 view .LVU260
 341:Src/tim.c     ****                 g_open_one_door_flag = V_ONE;
 987              		.loc 1 341 39 is_stmt 0 view .LVU261
 988 0128 434A     		ldr	r2, .L75+80
 989 012a 1380     		strh	r3, [r2]	@ movhi
 342:Src/tim.c     ****             }
 990              		.loc 1 342 17 is_stmt 1 view .LVU262
 342:Src/tim.c     ****             }
 991              		.loc 1 342 38 is_stmt 0 view .LVU263
 992 012c 434B     		ldr	r3, .L75+84
 993 012e 0122     		movs	r2, #1
 994 0130 1A70     		strb	r2, [r3]
 995              	.L66:
 345:Src/tim.c     ****         {
 996              		.loc 1 345 9 is_stmt 1 view .LVU264
 345:Src/tim.c     ****         {
 997              		.loc 1 345 12 is_stmt 0 view .LVU265
 998 0132 434B     		ldr	r3, .L75+88
 999 0134 1B78     		ldrb	r3, [r3]	@ zero_extendqisi2
 345:Src/tim.c     ****         {
 1000              		.loc 1 345 11 view .LVU266
 1001 0136 73B1     		cbz	r3, .L67
 347:Src/tim.c     ****             if(g_iot_power_on_delay_cnt >= 2000)//IOT_POWER_ON_DELAY_TIME)
 1002              		.loc 1 347 13 is_stmt 1 view .LVU267
 347:Src/tim.c     ****             if(g_iot_power_on_delay_cnt >= 2000)//IOT_POWER_ON_DELAY_TIME)
 1003              		.loc 1 347 37 is_stmt 0 view .LVU268
 1004 0138 424A     		ldr	r2, .L75+92
 1005 013a 1388     		ldrh	r3, [r2]
 1006 013c 0133     		adds	r3, r3, #1
 1007 013e 9BB2     		uxth	r3, r3
 1008 0140 1380     		strh	r3, [r2]	@ movhi
 348:Src/tim.c     ****             {
 1009              		.loc 1 348 13 is_stmt 1 view .LVU269
 348:Src/tim.c     ****             {
 1010              		.loc 1 348 15 is_stmt 0 view .LVU270
 1011 0142 B3F5FA6F 		cmp	r3, #2000
 1012 0146 06D3     		bcc	.L67
 350:Src/tim.c     ****                 g_iot_power_on_delay = V_ZERO;
 1013              		.loc 1 350 17 is_stmt 1 view .LVU271
ARM GAS  C:\Users\LY\AppData\Local\Temp\ccbRkbv2.s 			page 28


 350:Src/tim.c     ****                 g_iot_power_on_delay = V_ZERO;
 1014              		.loc 1 350 42 is_stmt 0 view .LVU272
 1015 0148 0023     		movs	r3, #0
 1016 014a 1380     		strh	r3, [r2]	@ movhi
 351:Src/tim.c     ****                 g_iot_wakeup_flag = V_ONE;
 1017              		.loc 1 351 17 is_stmt 1 view .LVU273
 351:Src/tim.c     ****                 g_iot_wakeup_flag = V_ONE;
 1018              		.loc 1 351 38 is_stmt 0 view .LVU274
 1019 014c 3C4A     		ldr	r2, .L75+88
 1020 014e 1370     		strb	r3, [r2]
 352:Src/tim.c     ****             }
 1021              		.loc 1 352 17 is_stmt 1 view .LVU275
 352:Src/tim.c     ****             }
 1022              		.loc 1 352 35 is_stmt 0 view .LVU276
 1023 0150 3D4B     		ldr	r3, .L75+96
 1024 0152 0122     		movs	r2, #1
 1025 0154 1A70     		strb	r2, [r3]
 1026              	.L67:
 355:Src/tim.c     ****         {
 1027              		.loc 1 355 9 is_stmt 1 view .LVU277
 355:Src/tim.c     ****         {
 1028              		.loc 1 355 12 is_stmt 0 view .LVU278
 1029 0156 3D4B     		ldr	r3, .L75+100
 1030 0158 1B78     		ldrb	r3, [r3]	@ zero_extendqisi2
 355:Src/tim.c     ****         {
 1031              		.loc 1 355 11 view .LVU279
 1032 015a 002B     		cmp	r3, #0
 1033 015c 3FF45CAF 		beq	.L55
 357:Src/tim.c     ****         }
 1034              		.loc 1 357 13 is_stmt 1 view .LVU280
 357:Src/tim.c     ****         }
 1035              		.loc 1 357 25 is_stmt 0 view .LVU281
 1036 0160 013B     		subs	r3, r3, #1
 1037 0162 3A4A     		ldr	r2, .L75+100
 1038 0164 1370     		strb	r3, [r2]
 1039              		.loc 1 360 1 view .LVU282
 1040 0166 57E7     		b	.L55
 1041              	.L72:
 284:Src/tim.c     ****             LED_RUN;
 1042              		.loc 1 284 13 is_stmt 1 view .LVU283
 284:Src/tim.c     ****             LED_RUN;
 1043              		.loc 1 284 24 is_stmt 0 view .LVU284
 1044 0168 1346     		mov	r3, r2
 1045 016a 0022     		movs	r2, #0
 1046 016c 1A80     		strh	r2, [r3]	@ movhi
 285:Src/tim.c     ****             WDI_REFRESH;
 1047              		.loc 1 285 13 is_stmt 1 view .LVU285
 1048 016e 4FF48051 		mov	r1, #4096
 1049 0172 3748     		ldr	r0, .L75+104
 1050 0174 FFF7FEFF 		bl	HAL_GPIO_TogglePin
 1051              	.LVL54:
 286:Src/tim.c     ****             HAL_UART_Receive_IT(&huart5, ar_usart5_rx_buffer, 1);    
 1052              		.loc 1 286 13 view .LVU286
 1053 0178 2021     		movs	r1, #32
 1054 017a 3648     		ldr	r0, .L75+108
 1055 017c FFF7FEFF 		bl	HAL_GPIO_TogglePin
 1056              	.LVL55:
ARM GAS  C:\Users\LY\AppData\Local\Temp\ccbRkbv2.s 			page 29


 287:Src/tim.c     ****         }
 1057              		.loc 1 287 13 view .LVU287
 1058 0180 0122     		movs	r2, #1
 1059 0182 3549     		ldr	r1, .L75+112
 1060 0184 3548     		ldr	r0, .L75+116
 1061 0186 FFF7FEFF 		bl	HAL_UART_Receive_IT
 1062              	.LVL56:
 1063 018a 7BE7     		b	.L60
 1064              	.L73:
 297:Src/tim.c     ****             if(g_unlock_tick >= (g_open_luck_time/5))
 1065              		.loc 1 297 13 view .LVU288
 297:Src/tim.c     ****             if(g_unlock_tick >= (g_open_luck_time/5))
 1066              		.loc 1 297 26 is_stmt 0 view .LVU289
 1067 018c 344A     		ldr	r2, .L75+120
 1068 018e 1388     		ldrh	r3, [r2]
 1069 0190 9BB2     		uxth	r3, r3
 1070 0192 0133     		adds	r3, r3, #1
 1071 0194 9BB2     		uxth	r3, r3
 1072 0196 1380     		strh	r3, [r2]	@ movhi
 298:Src/tim.c     ****             {
 1073              		.loc 1 298 13 is_stmt 1 view .LVU290
 298:Src/tim.c     ****             {
 1074              		.loc 1 298 30 is_stmt 0 view .LVU291
 1075 0198 324B     		ldr	r3, .L75+124
 1076 019a 1B88     		ldrh	r3, [r3]
 1077 019c 9BB2     		uxth	r3, r3
 1078 019e 3249     		ldr	r1, .L75+128
 1079 01a0 A1FB0313 		umull	r1, r3, r1, r3
 1080 01a4 1288     		ldrh	r2, [r2]
 1081 01a6 92B2     		uxth	r2, r2
 298:Src/tim.c     ****             {
 1082              		.loc 1 298 15 view .LVU292
 1083 01a8 B2EB930F 		cmp	r2, r3, lsr #2
 1084 01ac FFF47EAF 		bcc	.L62
 300:Src/tim.c     ****                 g_unlock_tick = V_ZERO;
 1085              		.loc 1 300 17 is_stmt 1 view .LVU293
 300:Src/tim.c     ****                 g_unlock_tick = V_ZERO;
 1086              		.loc 1 300 34 is_stmt 0 view .LVU294
 1087 01b0 0023     		movs	r3, #0
 1088 01b2 164A     		ldr	r2, .L75+36
 1089 01b4 1370     		strb	r3, [r2]
 301:Src/tim.c     ****                 g_open_luck_time = V_ZERO;
 1090              		.loc 1 301 17 is_stmt 1 view .LVU295
 301:Src/tim.c     ****                 g_open_luck_time = V_ZERO;
 1091              		.loc 1 301 31 is_stmt 0 view .LVU296
 1092 01b6 2A4A     		ldr	r2, .L75+120
 1093 01b8 1380     		strh	r3, [r2]	@ movhi
 302:Src/tim.c     ****                 g_unlock_flag = DOOR_UNLOCK_EN;
 1094              		.loc 1 302 17 is_stmt 1 view .LVU297
 302:Src/tim.c     ****                 g_unlock_flag = DOOR_UNLOCK_EN;
 1095              		.loc 1 302 34 is_stmt 0 view .LVU298
 1096 01ba 2A4A     		ldr	r2, .L75+124
 1097 01bc 1380     		strh	r3, [r2]	@ movhi
 303:Src/tim.c     ****             }
 1098              		.loc 1 303 17 is_stmt 1 view .LVU299
 303:Src/tim.c     ****             }
 1099              		.loc 1 303 31 is_stmt 0 view .LVU300
ARM GAS  C:\Users\LY\AppData\Local\Temp\ccbRkbv2.s 			page 30


 1100 01be 2B4B     		ldr	r3, .L75+132
 1101 01c0 0122     		movs	r2, #1
 1102 01c2 1A70     		strb	r2, [r3]
 1103 01c4 72E7     		b	.L62
 1104              	.L74:
 308:Src/tim.c     ****             if(g_ble_connect_count >= (BLE_E95_CONNECTED_TIME_OUT/V_FIVE))
 1105              		.loc 1 308 13 is_stmt 1 view .LVU301
 308:Src/tim.c     ****             if(g_ble_connect_count >= (BLE_E95_CONNECTED_TIME_OUT/V_FIVE))
 1106              		.loc 1 308 32 is_stmt 0 view .LVU302
 1107 01c6 2A4B     		ldr	r3, .L75+136
 1108 01c8 1A68     		ldr	r2, [r3]
 1109 01ca 0132     		adds	r2, r2, #1
 1110 01cc 1A60     		str	r2, [r3]
 309:Src/tim.c     ****             {
 1111              		.loc 1 309 13 is_stmt 1 view .LVU303
 309:Src/tim.c     ****             {
 1112              		.loc 1 309 36 is_stmt 0 view .LVU304
 1113 01ce 1A68     		ldr	r2, [r3]
 309:Src/tim.c     ****             {
 1114              		.loc 1 309 15 view .LVU305
 1115 01d0 48F69F43 		movw	r3, #35999
 1116 01d4 9A42     		cmp	r2, r3
 1117 01d6 7FF66FAF 		bls	.L63
 311:Src/tim.c     ****                 g_ble_disconnect_flag = V_ONE;
 1118              		.loc 1 311 17 is_stmt 1 view .LVU306
 311:Src/tim.c     ****                 g_ble_disconnect_flag = V_ONE;
 1119              		.loc 1 311 37 is_stmt 0 view .LVU307
 1120 01da 254B     		ldr	r3, .L75+136
 1121 01dc 0022     		movs	r2, #0
 1122 01de 1A60     		str	r2, [r3]
 312:Src/tim.c     ****             }
 1123              		.loc 1 312 17 is_stmt 1 view .LVU308
 312:Src/tim.c     ****             }
 1124              		.loc 1 312 39 is_stmt 0 view .LVU309
 1125 01e0 244B     		ldr	r3, .L75+140
 1126 01e2 0122     		movs	r2, #1
 1127 01e4 1A70     		strb	r2, [r3]
 1128 01e6 67E7     		b	.L63
 1129              	.L76:
 1130              		.align	2
 1131              	.L75:
 1132 01e8 00000000 		.word	htim5
 1133 01ec 00000000 		.word	htim6
 1134 01f0 00000000 		.word	.LANCHOR0
 1135 01f4 00000000 		.word	__8k_wav
 1136 01f8 00000000 		.word	.LANCHOR1
 1137 01fc 00080048 		.word	1207961600
 1138 0200 00000000 		.word	.LANCHOR2
 1139 0204 00000000 		.word	.LANCHOR3
 1140 0208 00000000 		.word	.LANCHOR4
 1141 020c 00000000 		.word	g_lock_open_flag
 1142 0210 00000000 		.word	g_ble_connect_flag
 1143 0214 00000000 		.word	g_set_param_timeout_flag
 1144 0218 00000000 		.word	g_set_param_count
 1145 021c 00000000 		.word	g_current_step
 1146 0220 00000000 		.word	g_set_step
 1147 0224 00000000 		.word	g_nb_send_cmd_star_time
ARM GAS  C:\Users\LY\AppData\Local\Temp\ccbRkbv2.s 			page 31


 1148 0228 00000000 		.word	g_nb_send_cmd_overtime
 1149 022c 00000000 		.word	g_nb_curren_step
 1150 0230 00000000 		.word	g_nb_ctrl_step
 1151 0234 00000000 		.word	g_start_open_door_flag
 1152 0238 00000000 		.word	g_start_open_door_cnt
 1153 023c 00000000 		.word	g_open_one_door_flag
 1154 0240 00000000 		.word	g_iot_power_on_delay
 1155 0244 00000000 		.word	g_iot_power_on_delay_cnt
 1156 0248 00000000 		.word	g_iot_wakeup_flag
 1157 024c 00000000 		.word	g_uart5_tick
 1158 0250 00140048 		.word	1207964672
 1159 0254 00040048 		.word	1207960576
 1160 0258 00000000 		.word	ar_usart5_rx_buffer
 1161 025c 00000000 		.word	huart5
 1162 0260 00000000 		.word	.LANCHOR5
 1163 0264 00000000 		.word	g_open_luck_time
 1164 0268 CDCCCCCC 		.word	-858993459
 1165 026c 00000000 		.word	.LANCHOR6
 1166 0270 00000000 		.word	g_ble_connect_count
 1167 0274 00000000 		.word	.LANCHOR7
 1168              		.cfi_endproc
 1169              	.LFE324:
 1171              		.comm	htim6,64,4
 1172              		.comm	htim5,64,4
 1173              		.global	g_voltage_check_flag
 1174              		.global	g_voltage_check_tick
 1175              		.global	g_min_voltage_flag
 1176              		.global	data_cnt
 1177              		.global	time
 1178              		.global	g_ble_disconnect_flag
 1179              		.global	g_unlock_flag
 1180              		.global	g_unlock_tick
 1181              		.global	g_led_tick
 1182              		.global	__8k_wav_len
 1183              		.global	__8k_wav
 1184              		.section	.bss.g_ble_disconnect_flag,"aw",%nobits
 1185              		.set	.LANCHOR7,. + 0
 1188              	g_ble_disconnect_flag:
 1189 0000 00       		.space	1
 1190              		.section	.bss.g_led_tick,"aw",%nobits
 1191              		.align	1
 1192              		.set	.LANCHOR2,. + 0
 1195              	g_led_tick:
 1196 0000 0000     		.space	2
 1197              		.section	.bss.g_min_voltage_flag,"aw",%nobits
 1200              	g_min_voltage_flag:
 1201 0000 00       		.space	1
 1202              		.section	.bss.g_unlock_flag,"aw",%nobits
 1203              		.set	.LANCHOR6,. + 0
 1206              	g_unlock_flag:
 1207 0000 00       		.space	1
 1208              		.section	.bss.g_unlock_tick,"aw",%nobits
 1209              		.align	1
 1210              		.set	.LANCHOR5,. + 0
 1213              	g_unlock_tick:
 1214 0000 0000     		.space	2
 1215              		.section	.bss.g_voltage_check_flag,"aw",%nobits
ARM GAS  C:\Users\LY\AppData\Local\Temp\ccbRkbv2.s 			page 32


 1216              		.set	.LANCHOR4,. + 0
 1219              	g_voltage_check_flag:
 1220 0000 00       		.space	1
 1221              		.section	.bss.g_voltage_check_tick,"aw",%nobits
 1222              		.align	1
 1223              		.set	.LANCHOR3,. + 0
 1226              	g_voltage_check_tick:
 1227 0000 0000     		.space	2
 1228              		.section	.bss.time,"aw",%nobits
 1229              		.align	2
 1230              		.set	.LANCHOR1,. + 0
 1233              	time:
 1234 0000 00000000 		.space	4
 1235              		.section	.data.__8k_wav,"aw"
 1236              		.align	2
 1239              	__8k_wav:
 1240 0000 52494646 		.ascii	"RIFF\356D\000\000WAVEfmt \020\000\000\000\001\000\001"
 1240      EE440000 
 1240      57415645 
 1240      666D7420 
 1240      10000000 
 1241 0017 00401F00 		.ascii	"\000@\037\000\000@\037\000\000\001\000\010\000data\250"
 1241      00401F00 
 1241      00010008 
 1241      00646174 
 1241      61A8
 1242 0029 44000080 		.ascii	"D\000\000\200\177\200\177\200\177\200\177\200\200\200"
 1242      7F807F80 
 1242      7F807F80 
 1242      8080
 1243 0037 80808080 		.ascii	"\200\200\200\200\200\200\200\200\200\200\200\200\200"
 1243      80808080 
 1243      80808080 
 1243      80
 1244 0044 80808080 		.ascii	"\200\200\200\200\200\200\201\200\201\200\201\200\201"
 1244      80808180 
 1244      81808180 
 1244      81
 1245 0051 80808080 		.ascii	"\200\200\200\200\200\200\200\200\200\200\200\200\200"
 1245      80808080 
 1245      80808080 
 1245      80
 1246 005e 80808080 		.ascii	"\200\200\200\200\200\200\200\200\200\200\200\200\200"
 1246      80808080 
 1246      80808080 
 1246      80
 1247 006b 80807F80 		.ascii	"\200\200\177\200\177\200\177\200\177\200\177\200\177"
 1247      7F807F80 
 1247      7F807F80 
 1247      7F
 1248 0078 807F807F 		.ascii	"\200\177\200\177\200\200\200\200\200\200\200\200\200"
 1248      80808080 
 1248      80808080 
 1248      80
 1249 0085 80808080 		.ascii	"\200\200\200\200\200\200\200\200\200\200\200\201\200"
 1249      80808080 
 1249      80808081 
ARM GAS  C:\Users\LY\AppData\Local\Temp\ccbRkbv2.s 			page 33


 1249      80
 1250 0092 80808180 		.ascii	"\200\200\201\200\200\200\200\200\201\200\200\200\200"
 1250      80808080 
 1250      81808080 
 1250      80
 1251 009f 80808180 		.ascii	"\200\200\201\200\203\204yu\220\234rRn\242\272\227R3"
 1251      83847975 
 1251      909C7252 
 1251      6EA2BA97 
 1251      5233
 1252 00b1 66C3E7B0 		.ascii	"f\303\347\260R\014\025|\355\361\2333\011B\262\366\314"
 1252      520C157C 
 1252      EDF19B33 
 1252      0942B2F6 
 1252      CC
 1253 00c2 7B38305E 		.ascii	"{80^\254\332\276\202:&^\301\350\274g +v\310\326\250"
 1253      ACDABE82 
 1253      3A265EC1 
 1253      E8BC6720 
 1253      2B76C8D6 
 1254 00d7 58253C85 		.ascii	"X%<\205\316\325\234D#N\236\327\305\20053f\254\320\270"
 1254      CED59C44 
 1254      234E9ED7 
 1254      C5803533 
 1254      66ACD0B8 
 1255 00eb 7C403F64 		.ascii	"|@?d\244\310\273{:4e\260\321\264g/=\177\305\316\233"
 1255      A4C8BB7B 
 1255      3A3465B0 
 1255      D1B4672F 
 1255      3D7FC5CE 
 1256 0100 4C305699 		.ascii	"L0V\231\307\270\201B>k\246\303\253s?Hx\255\274\237j"
 1256      C7B88142 
 1256      3E6BA6C3 
 1256      AB733F48 
 1256      78ADBC9F 
 1257 0115 45527EAE 		.ascii	"ER~\256\271\233eCV\207\266\270\217WDc\227\271\253\177"
 1257      B99B6543 
 1257      5687B6B8 
 1257      8F574463 
 1257      97B9AB7F 
 1258 0129 504E7099 		.ascii	"PNp\231\256\237xRUu\234\255\233rPX}\246\257\223dNb\207"
 1258      AE9F7852 
 1258      55759CAD 
 1258      9B725058 
 1258      7DA6AF93 
 1259 0141 A7A7895F 		.ascii	"\247\247\211_Tk\215\247\244\203[Tn\224\254\242zVYx\236"
 1259      546B8DA7 
 1259      A4835B54 
 1259      6E94ACA2 
 1259      7A565978 
 1260 0156 B09A6D53 		.ascii	"\260\232mSd\202\241\247\215hYp\212\234\230\204mju\200"
 1260      6482A1A7 
 1260      8D685970 
 1260      8A9C9884 
 1260      6D6A7580 
 1261 016a 93978979 		.ascii	"\223\227\211ypnw\210\216\200noz\217\236\216jZo\214\246"
 1261      706E7788 
ARM GAS  C:\Users\LY\AppData\Local\Temp\ccbRkbv2.s 			page 34


 1261      8E806E6F 
 1261      7A8F9E8E 
 1261      6A5A6F8C 
 1262 017f A07E5E5B 		.ascii	"\240~^[s\221\250\237~[Zq\222\254\240vSVp\230\261\242"
 1262      7391A89F 
 1262      7E5B5A71 
 1262      92ACA076 
 1262      53567098 
 1263 0195 77535672 		.ascii	"wSVr\231\256\237y[[r\226\247\234|fgz\223\227\210zvx"
 1263      99AE9F79 
 1263      5B5B7296 
 1263      A79C7C66 
 1263      677A9397 
 1264 01ad 7F878983 		.ascii	"\177\207\211\203~}}\202\213\210zqy\204\221\217\200l"
 1264      7E7D7D82 
 1264      8B887A71 
 1264      7984918F 
 1264      806C
 1265 01bf 687A8D9D 		.ascii	"hz\215\235\224|ddw\220\243\230z^]q\220\250\236}^\\q"
 1265      947C6464 
 1265      7790A398 
 1265      7A5E5D71 
 1265      90A89E7D 
 1266 01d6 92A79B7D 		.ascii	"\222\247\233}dcs\216\240\230\200jgv\217\232\217|op~"
 1266      6463738E 
 1266      A098806A 
 1266      67768F9A 
 1266      8F7C6F70 
 1267 01eb 8F918579 		.ascii	"\217\221\205yty\206\221\211|rw\201\220\221\201pky\212"
 1267      74798691 
 1267      897C7277 
 1267      81909181 
 1267      706B798A 
 1268 01ff 98917E6B 		.ascii	"\230\221~kgv\215\235\222|gdv\220\237\222}jet\214\233"
 1268      67768D9D 
 1268      927C6764 
 1268      76909F92 
 1268      7D6A6574 
 1269 0215 94806D66 		.ascii	"\224\200mfr\211\227\224\202ply\212\223\215\200su\200"
 1269      72899794 
 1269      82706C79 
 1269      8A938D80 
 1269      737580
 1270 0228 8A8A847A 		.ascii	"\212\212\204zu\177\215\217\203wqx\212\227\216zll|\220"
 1270      757F8D8F 
 1270      83777178 
 1270      8A978E7A 
 1270      6C6C7C90 
 1271 023c 9A8E7A67 		.ascii	"\232\216zgdw\221\235\223}c\\u\225\241\223|d]t\222\236"
 1271      6477919D 
 1271      937D635C 
 1271      7595A193 
 1271      7C645D74 
 1272 0252 937B6463 		.ascii	"\223{dcx\220\231\217zio\200\217\220\206um{\213\216\205"
 1272      7890998F 
 1272      7A696F80 
 1272      8F908675 
ARM GAS  C:\Users\LY\AppData\Local\Temp\ccbRkbv2.s 			page 35


 1272      6D7B8B8E 
 1273 0267 7D727485 		.ascii	"}rt\205\222\216\200tnx\214\231\220}kgz\222\234\217z"
 1273      928E8074 
 1273      6E788C99 
 1273      907D6B67 
 1273      7A929C8F 
 1274 027c 68677C91 		.ascii	"hg|\221\232\222\200jbt\213\232\230\204i^q\213\233\227"
 1274      9A92806A 
 1274      62748B9A 
 1274      9884695E 
 1274      718B9B97 
 1275 0290 826A6373 		.ascii	"\202jcs\212\230\223~ihy\213\225\212ulv\203\213\212\200"
 1275      8A98937E 
 1275      6968798B 
 1275      958A756C 
 1275      76838B8A 
 1276 02a5 73717E8A 		.ascii	"sq~\212\215\206{mp\202\224\226\205oft\213\233\227\201"
 1276      8D867B6D 
 1276      70829496 
 1276      856F6674 
 1276      8B9B9781 
 1277 02b9 6B66788D 		.ascii	"kfx\215\234\227\202jcu\216\237\232\201hbu\217\236\226"
 1277      9C97826A 
 1277      63758E9F 
 1277      9A816862 
 1277      758F9E96 
 1278 02cd 7D686677 		.ascii	"}hfw\217\233\221{kkz\215\226\212yoq\177\214\217\203"
 1278      8F9B917B 
 1278      6B6B7A8D 
 1278      968A796F 
 1278      717F8C8F 
 1279 02e2 77737982 		.ascii	"wsy\202\213\210|sw\201\213\215\202vqz\207\221\214~q"
 1279      8B887C73 
 1279      77818B8D 
 1279      8276717A 
 1279      87918C7E 
 1280 02f7 737D8A94 		.ascii	"s}\212\224\216|oq|\213\230\221|ll{\215\232\222~mjw\212"
 1280      8E7C6F71 
 1280      7C8B9891 
 1280      7C6C6C7B 
 1280      8D9A927E 
 1281 030f 9993806F 		.ascii	"\231\223\200oht\213\231\221\177njy\215\224\210zrt\200"
 1281      68748B99 
 1281      917F6E6A 
 1281      798D9488 
 1281      7A727480 
 1282 0323 8A877E77 		.ascii	"\212\207~wx}\206\212\202xt{\205\217\212{or~\213\223"
 1282      787D868A 
 1282      8278747B 
 1282      858F8A7B 
 1282      6F727E8B 
 1283 0338 8B7B7071 		.ascii	"\213{pq~\216\230\217{ln}\216\230\217}oo{\213\223\216"
 1283      7E8E988F 
 1283      7B6C6E7D 
 1283      8E988F7D 
 1283      6F6F7B8B 
 1284 034e 80736F79 		.ascii	"\200soy\207\217\212\200vqz\205\211\204~xx\200\206\201"
ARM GAS  C:\Users\LY\AppData\Local\Temp\ccbRkbv2.s 			page 36


 1284      878F8A80 
 1284      76717A85 
 1284      89847E78 
 1284      78808681 
 1285 0362 7B787D84 		.ascii	"{x}\204\211\203xsx\202\214\215\201vqx\202\216\217\204"
 1285      89837873 
 1285      78828C8D 
 1285      81767178 
 1285      828E8F84 
 1286 0376 7973767F 		.ascii	"ysv\177\215\222\210zqs\177\217\223\207wpw\201\216\214"
 1286      8D92887A 
 1286      71737F8F 
 1286      93877770 
 1286      77818E8C 
 1287 038a 827A747D 		.ascii	"\202zt}\205\213\205|{{\201\211\201{|\200\212\213\210"
 1287      858B857C 
 1287      7B7B8189 
 1287      817B7C80 
 1287      8A8B88
 1288 039d 7D72757A 		.ascii	"}ruz}}}}|\200\207\217\225\212vfar\214\243\244\217zj"
 1288      7D7D7D7D 
 1288      7C80878F 
 1288      958A7666 
 1288      61728CA3 
 1289 03b5 68788388 		.ascii	"hx\203\210\203~\200\203\212\212{lfo\201\222\237\226"
 1289      837E8083 
 1289      8A8A7B6C 
 1289      666F8192 
 1289      9F96
 1290 03c7 85776A6A 		.ascii	"\205wjjq~\214\223\226\217\207\200torz\205\216\222\217"
 1290      717E8C93 
 1290      968F8780 
 1290      746F727A 
 1290      858E928F 
 1291 03db 85807872 		.ascii	"\205\200xrqv\200\206\217\222\217\207zlek\177\222\236"
 1291      71768086 
 1291      8F928F87 
 1291      7A6C656B 
 1291      7F929E
 1292 03ee 9784756E 		.ascii	"\227\204unpx|\177\201\205\214\217\213\177ohly\210\222"
 1292      70787C7F 
 1292      81858C8F 
 1292      8B7F6F68 
 1292      6C798892 
 1293 0402 938A817A 		.ascii	"\223\212\201zrqsx\200\213\225\226\216~lel{\213\223\221"
 1293      72717378 
 1293      808B9596 
 1293      8E7E6C65 
 1293      6C7B8B93 
 1294 0417 87807D7A 		.ascii	"\207\200}z{{xv}\212\226\230\215ygam\201\223\234\224"
 1294      7B7B7876 
 1294      7D8A9698 
 1294      8D796761 
 1294      6D81939C 
 1295 042c 83756E75 		.ascii	"\203unu}\177\200\200\201\207\220\221\205viiv\207\226"
 1295      7D7F8080 
 1295      81879091 
ARM GAS  C:\Users\LY\AppData\Local\Temp\ccbRkbv2.s 			page 37


 1295      85766969 
 1295      768796
 1296 043f 95897F78 		.ascii	"\225\211\177xvvvz\177\205\216\224\221\202shgv\211\226"
 1296      7676767A 
 1296      7F858E94 
 1296      91827368 
 1296      67768996 
 1297 0453 95877E76 		.ascii	"\225\207~vw\177\200}xy\200\214\230\226\203l[f|\222\237"
 1297      777F807D 
 1297      7879808C 
 1297      9896836C 
 1297      5B667C92 
 1298 0468 9A87746C 		.ascii	"\232\207tls|\202\204\200}\177\212\220\210|ham\201\226"
 1298      737C8284 
 1298      807D7F8A 
 1298      90887C68 
 1298      616D8196 
 1299 047c 998C7E74 		.ascii	"\231\214~ttx|~{~\207\222\224\211|jbp\204\226\234\222"
 1299      74787C7E 
 1299      7B7E8792 
 1299      94897C6A 
 1299      62708496 
 1300 0492 8072737F 		.ascii	"\200rs\177\205\206}v{\210\231\230\210raev\213\234\235"
 1300      85867D76 
 1300      7B889998 
 1300      88726165 
 1300      768B9C9D 
 1301 04a6 8D786B6D 		.ascii	"\215xkmw\203\207\201}~\206\217\215\204pbi}\224\234\222"
 1301      77838781 
 1301      7D7E868F 
 1301      8D847062 
 1301      697D949C 
 1302 04bb 81737177 		.ascii	"\201sqw\177\200|~\202\214\224\221\202m`j\200\225\235"
 1302      7F807C7E 
 1302      828C9491 
 1302      826D606A 
 1302      80959D
 1303 04ce 93807172 		.ascii	"\223\200qr{\204\205}vv\203\226\233\216wcbs\213\235\233"
 1303      7B84857D 
 1303      76768396 
 1303      9B8E7763 
 1303      62738B9D 
 1304 04e3 8B786C6E 		.ascii	"\213xlnz\206\206\177wz\212\225\222\203ocj}\217\227\226"
 1304      7A86867F 
 1304      777A8A95 
 1304      92836F63 
 1304      6A7D8F97 
 1305 04f8 86756F73 		.ascii	"\206uos|\200~||\210\226\223\204obfz\222\234\227\206"
 1305      7C807E7C 
 1305      7C889693 
 1305      846F6266 
 1305      7A929C97 
 1306 050d 75727A81 		.ascii	"urz\201\204\177xx\203\224\227\215~kdn\202\224\233\226"
 1306      847F7878 
 1306      8394978D 
 1306      7E6B646E 
 1306      82949B96 
ARM GAS  C:\Users\LY\AppData\Local\Temp\ccbRkbv2.s 			page 38


 1307 0521 84746E73 		.ascii	"\204tns~\204\204\201~\202\214\217\211yihs\206\225\231"
 1307      7E848481 
 1307      7E828C8F 
 1307      89796968 
 1307      73869599 
 1308 0535 8C7C7574 		.ascii	"\214|utuy|\200\201\207\216\211\200vljt\204\220\222\213"
 1308      75797C80 
 1308      81878E89 
 1308      80766C6A 
 1308      74849092 
 1309 054a 7F767478 		.ascii	"\177vtx~\200}{\177\211\222\220\204n`g|\221\234\231\207"
 1309      7E807D7B 
 1309      7F899290 
 1309      846E6067 
 1309      7C919C99 
 1310 055f 746C707C 		.ascii	"tlp|\204\205\203\200\203\213\217\213|mhq\204\225\236"
 1310      84858380 
 1310      838B8F8B 
 1310      7C6D6871 
 1310      84959E
 1311 0572 9480736F 		.ascii	"\224\200sou\200\203\202\177\202\215\217\213\177nfm\201"
 1311      75808382 
 1311      7F828D8F 
 1311      8B7F6E66 
 1311      6D81
 1312 0584 93999280 		.ascii	"\223\231\222\200uqu}\177\200\200\201\210\213\214\206"
 1312      7571757D 
 1312      7F808081 
 1312      888B8C86 
 1313 0594 776A6774 		.ascii	"wjgt\206\230\235\214{poy\177\202\203\203\207\213\216"
 1313      86989D8C 
 1313      7B706F79 
 1313      7F828383 
 1313      878B8E
 1314 05a7 877B716C 		.ascii	"\207{qlr\202\220\227\216\202{svz}\177\200\210\215\216"
 1314      72829097 
 1314      8E827B73 
 1314      767A7D7F 
 1314      80888D8E 
 1315 05bb 8A7D7069 		.ascii	"\212}pio\200\216\227\222\202zrv|}\200}\200\206\215\220"
 1315      6F808E97 
 1315      92827A72 
 1315      767C7D80 
 1315      7D80868D 
 1316 05d0 84766D69 		.ascii	"\204vmiw\206\223\226\212\201upv{\200\200\201\207\213"
 1316      77869396 
 1316      8A817570 
 1316      767B8080 
 1316      81878B
 1317 05e3 908A7E73 		.ascii	"\220\212~shp\200\215\227\217\207}u{|}}\177\206\213\223"
 1317      6870808D 
 1317      978F877D 
 1317      757B7C7D 
 1317      7D7F868B 
 1318 05f8 8F7F7267 		.ascii	"\217\177rgm}\212\226\221\206\177wzzy|z\200\206\217\220"
 1318      6D7D8A96 
 1318      91867F77 
ARM GAS  C:\Users\LY\AppData\Local\Temp\ccbRkbv2.s 			page 39


 1318      7A7A797C 
 1318      7A80868F 
 1319 060d 80766C68 		.ascii	"\200vlht\202\221\222\212\204xuvw~}\200\206\213\221\207"
 1319      74829192 
 1319      8A847875 
 1319      76777E7D 
 1319      80868B91 
 1320 0622 7E726771 		.ascii	"~rgq\177\214\221\213\207|v{xz{\177\204\210\222\216\201"
 1320      7F8C918B 
 1320      877C767B 
 1320      787A7B7F 
 1320      8488928E 
 1321 0637 77686C7A 		.ascii	"whlz\210\226\222\212\177u{z}\200|\201\207\222\221\203"
 1321      8896928A 
 1321      7F757B7A 
 1321      7D807C81 
 1321      87929183 
 1322 064b 7C706D77 		.ascii	"|pmw\200\214\216\215\211|xuv}}\201\207\215\220\206~"
 1322      808C8E8D 
 1322      897C7875 
 1322      767D7D81 
 1322      878D9086 
 1323 0660 726A7680 		.ascii	"rjv\200\212\216\211\205}|\177{{y|\202\212\223\216\203"
 1323      8A8E8985 
 1323      7D7C7F7B 
 1323      7B797C82 
 1323      8A938E83 
 1324 0674 77696E7A 		.ascii	"winz\207\224\221\211~{~z||{\200\206\220\216\204~pnv"
 1324      87949189 
 1324      7E7B7E7A 
 1324      7C7C7B80 
 1324      86908E84 
 1325 068c 808C8D8B 		.ascii	"\200\214\215\213\205\177\177zxxv\200\211\221\221\206"
 1325      857F7F7A 
 1325      78787680 
 1325      89919186 
 1326 069c 7F706C77 		.ascii	"\177plw~\206\211\207\201|\200\200|zru\200\212\224\217"
 1326      7E868987 
 1326      817C8080 
 1326      7C7A7275 
 1326      808A948F 
 1327 06b0 8575686D 		.ascii	"\205uhmv\204\220\217\206|{}}\200{u{\204\217\220\213"
 1327      7684908F 
 1327      867C7B7D 
 1327      7D807B75 
 1327      7B848F90 
 1328 06c5 806F6D71 		.ascii	"\200omq}\211\216\215\204\200\177{|yw~\204\214\216\212"
 1328      7D898E8D 
 1328      84807F7B 
 1328      7C79777E 
 1328      848C8E8A 
 1329 06d9 82757276 		.ascii	"\202urvy\204\212\214\206\201\202\177~zrv\177\212\223"
 1329      79848A8C 
 1329      8681827F 
 1329      7E7A7276 
 1329      7F8A93
 1330 06ec 8F86776F 		.ascii	"\217\206worv\201\212\213\210\204\204\200}~vw~\205\214"
ARM GAS  C:\Users\LY\AppData\Local\Temp\ccbRkbv2.s 			page 40


 1330      7276818A 
 1330      8B888484 
 1330      807D7E76 
 1330      777E858C 
 1331 0700 8D8C8175 		.ascii	"\215\214\201utt{\203\207\212\207\205\201{{vu|\200\207"
 1331      74747B83 
 1331      878A8785 
 1331      817B7B76 
 1331      757C8087 
 1332 0714 8B8A8276 		.ascii	"\213\212\202vuvx\200\203\204\202\203\203\177~xrw}\204"
 1332      75767880 
 1332      83848283 
 1332      837F7E78 
 1332      72777D84 
 1333 0728 8B8B857B 		.ascii	"\213\213\205{urv\207\210xw\222\242\203ba\200\245\234"
 1333      75727687 
 1333      88787792 
 1333      A2836261 
 1333      80A59C
 1334 073b 6A5781B5 		.ascii	"jW\201\265\252oD[\237\270\203Rf\247\275\206JN\221\265"
 1334      AA6F445B 
 1334      9FB88352 
 1334      66A7BD86 
 1334      4A4E91B5 
 1335 074f 905D629A 		.ascii	"\220]b\232\270\214QL\210\271\232[O\210\271\236aIs\246"
 1335      B88C514C 
 1335      88B99A5B 
 1335      4F88B99E 
 1335      614973A6 
 1336 0763 9A675887 		.ascii	"\232gX\207\267\241_?l\256\255rLm\253\257wI`\241\255"
 1336      B7A15F3F 
 1336      6CAEAD72 
 1336      4C6DABAF 
 1336      774960A1 
 1337 0778 7C526CAA 		.ascii	"|Rl\252\263\200LY\230\261\207Wa\235\270\217VP\210\256"
 1337      B3804C59 
 1337      98B18757 
 1337      619DB88F 
 1337      565088AE 
 1338 078c 91625F93 		.ascii	"\221b_\223\262\221WK\205\266\234aN\200\263\246nKo\240"
 1338      B291574B 
 1338      85B69C61 
 1338      4E80B3A6 
 1338      6E4B6FA0 
 1339 07a0 9B6E5880 		.ascii	"\233nX\200\260\245jCh\246\253|Sk\241\254\200Pa\231\247"
 1339      B0A56A43 
 1339      68A6AB7C 
 1339      536BA1AC 
 1339      80506199 
 1340 07b5 7F56669F 		.ascii	"\177Vf\237\263\211RT\216\254\216^]\222\262\225\\P\201"
 1340      B3895254 
 1340      8EAC8E5E 
 1340      5D92B295 
 1340      5C5081
 1341 07c8 A7976A5D 		.ascii	"\247\227j]\207\255\232d"
 1341      87AD9A64 
 1342 07d0 4F7FAA9F 		.ascii	"O\177\252\237mRy\253\254zRk\227\233x\\z\252\251tGc\235"
ARM GAS  C:\Users\LY\AppData\Local\Temp\ccbRkbv2.s 			page 41


 1342      6D5279AB 
 1342      AC7A526B 
 1342      979B785C 
 1342      7AAAA974 
 1343 07e7 AC855561 		.ascii	"\254\205Ua\225\256\214Y_\215\241\206\\d\230\264\223"
 1343      95AE8C59 
 1343      5F8DA186 
 1343      5C6498B4 
 1343      93
 1344 07f8 565185A8 		.ascii	"VQ\205\250\224bZ\210\256\236eQy\237\231o]\203\251\235"
 1344      94625A88 
 1344      AE9E6551 
 1344      799F996F 
 1344      5D83A99D 
 1345 080c 674E79A5 		.ascii	"gNy\245\244rNp\246\265\202Se\217\237\177^u\241\253|"
 1345      A4724E70 
 1345      A6B58253 
 1345      658F9F7F 
 1345      5E75A1AB 
 1346 0821 4A5E93AF 		.ascii	"J^\223\257\214WZ\213\256\225`[\200\235\215a_\213\256"
 1346      8C575A8B 
 1346      AE95605B 
 1346      809D8D61 
 1346      5F8BAE
 1347 0834 975D537F 		.ascii	"\227]S\177\244\230dU\177\254\246lPn\232\242x_y\240\241"
 1347      A4986455 
 1347      7FACA66C 
 1347      506E9AA2 
 1347      785F79A0 
 1348 0849 715775A2 		.ascii	"qWu\242\251vNh\240\270\215^b\205\235\207kt\225\244\201"
 1348      A9764E68 
 1348      A0B88D5E 
 1348      62859D87 
 1348      6B7495A4 
 1349 085e 5A648FAB 		.ascii	"Zd\217\253\220a^\204\250\232nbz\227\217lg\204\243\224"
 1349      90615E84 
 1349      A89A6E62 
 1349      7A978F6C 
 1349      6784A394 
 1350 0872 6B5F7A9B 		.ascii	"k_z\233\227o\\t\235\244|^f\210\230\200lv\221\227xds"
 1350      976F5C74 
 1350      9DA47C5E 
 1350      66889880 
 1350      6C769197 
 1351 0889 96A27B58 		.ascii	"\226\242{Xd\217\254\224ocy\224\212tr\212\236\207ge\207"
 1351      648FAC94 
 1351      6F637994 
 1351      8A74728A 
 1351      9E876765 
 1352 089e A4906A61 		.ascii	"\244\220ja~\242\234ygw\226\220si~\233\230zgr\220\225"
 1352      7EA29C79 
 1352      67779690 
 1352      73697E9B 
 1352      987A6772 
 1353 08b4 7B687090 		.ascii	"{hp\220\235\207oj\200\212\177x{\210\211|t{\216\220x"
 1353      9D876F6A 
 1353      808A7F78 
ARM GAS  C:\Users\LY\AppData\Local\Temp\ccbRkbv2.s 			page 42


 1353      7B88897C 
 1353      747B8E90 
 1354 08c9 666D8799 		.ascii	"fm\207\231\216{nx\205\200z{\211\221\202ro\203\227\213"
 1354      8E7B6E78 
 1354      85807A7B 
 1354      89918272 
 1354      6F83978B 
 1355 08dd 7569768E 		.ascii	"uiv\216\224\213|x\200\177{|\203\220\211}s}\220\214x"
 1355      948B7C78 
 1355      807F7B7C 
 1355      8390897D 
 1355      737D908C 
 1356 08f2 6C758C94 		.ascii	"lu\214\224\206wt\200\202|x|\210\206{u}\221\216tck\210"
 1356      86777480 
 1356      827C787C 
 1356      88867B75 
 1356      7D918E74 
 1357 0909 9A8E7A6F 		.ascii	"\232\216zo|\206|ty\214\222\200np\210\227\205mg{\220"
 1357      7C867C74 
 1357      798C9280 
 1357      6E708897 
 1357      856D677B 
 1358 091e 8E827E84 		.ascii	"\216\202~\204\210zmr\211\232\214tk\200\230\220ues\217"
 1358      887A6D72 
 1358      899A8C74 
 1358      6B809890 
 1358      7565738F 
 1359 0932 97887677 		.ascii	"\227\210vw\207\210zpy\217\217{n}\231\232|]`\210\245"
 1359      87887A70 
 1359      798F8F7B 
 1359      6E7D999A 
 1359      7C5D6088 
 1360 0947 9978687D 		.ascii	"\231xh}\212\201rt\214\226\202kk\216\245\217eUv\233\234"
 1360      8A817274 
 1360      8C96826B 
 1360      6B8EA58F 
 1360      6555769B 
 1361 095c 816E7C8F 		.ascii	"\201n|\217\211th}\231\223xj\177\230\220tbs\221\227\206"
 1361      8974687D 
 1361      9993786A 
 1361      7F989074 
 1361      62739197 
 1362 0971 76798786 		.ascii	"vy\207\206}w~\210\202xy\207\226\215wfk\205\225\217\200"
 1362      7D777E88 
 1362      82787987 
 1362      968D7766 
 1362      6B85958F 
 1363 0986 797F807C 		.ascii	"y\177\200|y{\206\212\200tt\206\225\211qdt\211\217\204"
 1363      797B868A 
 1363      80747486 
 1363      95897164 
 1363      74898F84 
 1364 099a 797F8A84 		.ascii	"y\177\212\204tj{\223\222~o|\224\224}dk\211\227\214x"
 1364      746A7B93 
 1364      927E6F7C 
 1364      94947D64 
 1364      6B89978C 
ARM GAS  C:\Users\LY\AppData\Local\Temp\ccbRkbv2.s 			page 43


 1365 09af 77868B80 		.ascii	"w\206\213\200rx\213\214~r}\226\232\202ec\201\227\221"
 1365      72788B8C 
 1365      7E727D96 
 1365      9A826563 
 1365      819791
 1366 09c2 7F79858A 		.ascii	"\177y\205\212\177pr\210\226\207ok\205\234\220tcr\207"
 1366      7F707288 
 1366      96876F6B 
 1366      859C9074 
 1366      637287
 1367 09d5 8B837D84 		.ascii	"\213\203}\204\215\203pi|\221\217}q{\216\220\200nr\202"
 1367      8D837069 
 1367      7C918F7D 
 1367      717B8E90 
 1367      806E7282 
 1368 09e9 89847F82 		.ascii	"\211\204\177\202\214\206xoz\213\213}r|\223\233\204g"
 1368      8C86786F 
 1368      7A8B8B7D 
 1368      727C939B 
 1368      8467
 1369 09fb 6680918D 		.ascii	"f\200\221\215\177|\210\216\200jl\207\227\212og\200\233"
 1369      7F7C888E 
 1369      806A6C87 
 1369      978A6F67 
 1369      809B
 1370 0a0d 997A6168 		.ascii	"\231zah\177\213\207~\200\212\206ret\212\222\204pr\206"
 1370      7F8B877E 
 1370      808A8672 
 1370      65748A92 
 1370      84707286 
 1371 0a21 95897068 		.ascii	"\225\211phw\212\215\200|\202\211\203tq{\211\213~x\201"
 1371      778A8D80 
 1371      7C828983 
 1371      74717B89 
 1371      8B7E7881 
 1372 0a35 8F8F7D6D 		.ascii	"\217\217}mj{\221\225\210zx\201\202\177z{\205\210\201"
 1372      6A7B9195 
 1372      887A7881 
 1372      827F7A7B 
 1372      858881
 1373 0a48 7A7D8D90 		.ascii	"z}\215\220\201lez\221\231\212xw~\200}v\177\211\210\200"
 1373      816C657A 
 1373      91998A78 
 1373      777E807D 
 1373      767F8988 
 1374 0a5d 797F8786 		.ascii	"y\177\207\206}or\200\214\221\205|x|\201\200~|~\205\207"
 1374      7D6F7280 
 1374      8C91857C 
 1374      787C8180 
 1374      7E7C7E85 
 1375 0a72 8583807D 		.ascii	"\205\203\200}qp\177\216\225\210ws}\211\205yx\200\214"
 1375      71707F8E 
 1375      95887773 
 1375      7D898579 
 1375      78808C
 1376 0a85 877A7C87 		.ascii	"\207z|\207\221\200ed\177\240\242\200io\210\216yn|\223"
 1376      91806564 
ARM GAS  C:\Users\LY\AppData\Local\Temp\ccbRkbv2.s 			page 44


 1376      7FA0A280 
 1376      696F888E 
 1376      796E7C93 
 1377 0a99 92776C7E 		.ascii	"\222wl~\231\224kYs\233\245\203ip\213\225zdp\221\240"
 1377      99946B59 
 1377      739BA583 
 1377      69708B95 
 1377      7A647091 
 1378 0aae 856C738C 		.ascii	"\205ls\214\226z`j\214\246\224si}\223\212uq\200\221\212"
 1378      967A606A 
 1378      8CA69473 
 1378      697D938A 
 1378      75718091 
 1379 0ac3 79798895 		.ascii	"yy\210\225\204gb{\235\237\203qv\206\206vq\177\221\221"
 1379      8467627B 
 1379      9D9F8371 
 1379      76868676 
 1379      717F9191 
 1380 0ad7 7B6F7C94 		.ascii	"{o|\224\222s`n\216\233\210tu\207\216yen\213\231\206"
 1380      9273606E 
 1380      8E9B8874 
 1380      75878E79 
 1380      656E8B99 
 1381 0aec 73768890 		.ascii	"sv\210\220{fl\211\236\217un\200\223\207pj~\224\216{"
 1381      7B666C89 
 1381      9E8F756E 
 1381      80938770 
 1381      6A7E948E 
 1382 0b01 76879887 		.ascii	"v\207\230\207g^{\241\241\200jv\216\216vgx\226\227zg"
 1382      675E7BA1 
 1382      A1806A76 
 1382      8E8E7667 
 1382      7896977A 
 1383 0b16 7C9E9C72 		.ascii	"|\236\234rSf\226\252\210el\221\235|Xc\221\250\212eh"
 1383      536696AA 
 1383      88656C91 
 1383      9D7C5863 
 1383      91A88A65 
 1384 0b2b 8FA28156 		.ascii	"\217\242\201VZ\212\255\225h_\204\244\220eY}\241\226"
 1384      5A8AAD95 
 1384      685F84A4 
 1384      9065597D 
 1384      A196
 1385 0b3d 716787A5 		.ascii	"qg\207\245\217^Py\251\245x_w\234\227p[v\236\234vb|\240"
 1385      8F5E5079 
 1385      A9A5785F 
 1385      779C9770 
 1385      5B769E9C 
 1386 0b55 9C72556A 		.ascii	"\234rUj\226\244\205is\224\233{^g\215\241\213nn\213\233"
 1386      96A48569 
 1386      73949B7B 
 1386      5E678DA1 
 1386      8B6E6E8B 
 1387 0b6a 84616084 		.ascii	"\204a`\204\242\223og\203\236\220kZx\234\226tf\201\241"
 1387      A2936F67 
 1387      839E906B 
 1387      5A789C96 
ARM GAS  C:\Users\LY\AppData\Local\Temp\ccbRkbv2.s 			page 45


 1387      746681A1 
 1388 0b7e 9469516E 		.ascii	"\224iQn\237\246\200cp\225\233y\\l\225\240\201fs\232"
 1388      9FA68063 
 1388      70959B79 
 1388      5C6C95A0 
 1388      8166739A 
 1389 0b92 A480585E 		.ascii	"\244\200X^\215\250\220jh\216\244\210_Z\202\244\225q"
 1389      8DA8906A 
 1389      688EA488 
 1389      5F5A82A4 
 1389      9571
 1390 0ba4 6786A08C 		.ascii	"g\206\240\214cX\177\242\227rd\177\234\223o]v\225\223"
 1390      63587FA2 
 1390      9772647F 
 1390      9C936F5D 
 1390      769593
 1391 0bb7 7A6E829C 		.ascii	"zn\202\234\221lXq\227\235\201jv\222\224yao\222\232\200"
 1391      916C5871 
 1391      979D816A 
 1391      76929479 
 1391      616F929A 
 1392 0bcc 697599A1 		.ascii	"iu\231\241\200[_\212\244\222pk\212\237\213g^\200\236"
 1392      805B5F8A 
 1392      A492706B 
 1392      8A9F8B67 
 1392      5E809E
 1393 0bdf 94746A87 		.ascii	"\224tj\207\237\217hYz\235\233yc{\232\227sXn\225\233"
 1393      9F8F6859 
 1393      7A9D9B79 
 1393      637B9A97 
 1393      73586E95 
 1394 0bf4 7E62769C 		.ascii	"~bv\234\236wP`\222\250\213di\220\240\204^a\211\237\214"
 1394      9E775060 
 1394      92A88B64 
 1394      6990A084 
 1394      5E61899F 
 1395 0c09 6A6D92A4 		.ascii	"jm\222\244\210][\205\244\226pj\213\243\216d[\203\245"
 1395      885D5B85 
 1395      A496706A 
 1395      8BA38E64 
 1395      5B83A5
 1396 0c1c 976E6389 		.ascii	"\227nc\211\251\227eQz\244\240t^\177\245\235mOo\236\242"
 1396      A9976551 
 1396      7AA4A074 
 1396      5E7FA59D 
 1396      6D4F6F9E 
 1397 0c31 795B76A2 		.ascii	"y[v\242\244uKb\226\250\206]i\224\245\203V]\214\246\214"
 1397      A4754B62 
 1397      96A8865D 
 1397      6994A583 
 1397      565D8CA6 
 1398 0c46 5F6391AD 		.ascii	"_c\221\255\217WN~\251\236l\\\202\251\233eOw\246\243"
 1398      8F574E7E 
 1398      A99E6C5C 
 1398      82A99B65 
 1398      4F77A6A3 
 1399 0c5a 72597CA9 		.ascii	"rY|\251\246oMk\241\254~Zr\241\252zQe\226\250\202]n\233"
ARM GAS  C:\Users\LY\AppData\Local\Temp\ccbRkbv2.s 			page 46


 1399      A66F4D6B 
 1399      A1AC7E5A 
 1399      72A1AA7A 
 1399      516596A8 
 1400 0c72 AC80515C 		.ascii	"\254\200Q\\\217\255\217ac\216\252\214ZW\203\247\222"
 1400      8FAD8F61 
 1400      638EAA8C 
 1400      5A5783A7 
 1400      92
 1401 0c83 635E89AD 		.ascii	"c^\211\255\225]Ny\247\237n[~\247\235iQr\241\242sZw\244"
 1401      955D4E79 
 1401      A79F6E5B 
 1401      7EA79D69 
 1401      5172A1A2 
 1402 0c9b A6755268 		.ascii	"\246uRh\230\246\200`p\233\250~Vb\222\251\210`h\224\253"
 1402      98A68060 
 1402      709BA87E 
 1402      566292A9 
 1402      88606894 
 1403 0cb0 885B5B87 		.ascii	"\210[[\207\246\217fc\213\251\216_X\200\246\224ia\206"
 1403      A68F6663 
 1403      8BA98E5F 
 1403      5880A694 
 1403      696186
 1404 0cc3 A9966454 		.ascii	"\251\226dTz\244\232m\\\177\252\237kPp\244\246wVq\246"
 1404      7AA49A6D 
 1404      5C7FAA9F 
 1404      6B5070A4 
 1404      A6775671 
 1405 0cd8 AA795266 		.ascii	"\252yRf\232\250~Yl\240\254}Q]\225\260\212\\a\223\256"
 1405      9AA87E59 
 1405      6CA0AC7D 
 1405      515D95B0 
 1405      8A5C6193 
 1406 0ced 8B5B5A8A 		.ascii	"\213[Z\212\253\220b_\213\256\222^Q\177\253\233jX\200"
 1406      AB90625F 
 1406      8BAE925E 
 1406      517FAB9B 
 1406      6A5880
 1407 0d00 AA9A6853 		.ascii	"\252\232hSx\247\237mUy\253\244nLl\246\253yRj\241\253"
 1407      78A79F6D 
 1407      5579ABA4 
 1407      6E4C6CA6 
 1407      AB79526A 
 1408 0d16 7C52659C 		.ascii	"|Re\234\253\200Vg\237\260\202PZ\225\263\215Z[\220\260"
 1408      AB805667 
 1408      9FB08250 
 1408      5A95B38D 
 1408      5A5B90B0 
 1409 0d2a 8F5C588A 		.ascii	"\217\\X\212\255\221_X\212\261\227^O\177\256\235hS}\253"
 1409      AD915F58 
 1409      8AB1975E 
 1409      4F7FAE9D 
 1409      68537DAB 
 1410 0d3e 9E685078 		.ascii	"\236hPx\251\240lRy\255\246mJl\247\254yQi\242\255}Re"
 1410      A9A06C52 
 1410      79ADA66D 
ARM GAS  C:\Users\LY\AppData\Local\Temp\ccbRkbv2.s 			page 47


 1410      4A6CA7AC 
 1410      795169A2 
 1411 0d56 9CAA7E53 		.ascii	"\234\252~Sf\240\262\201LW\225\265\215XY\216\260\216"
 1411      66A0B281 
 1411      4C5795B5 
 1411      8D58598E 
 1411      B08E
 1412 0d68 5B5789AD 		.ascii	"[W\211\255\220\\W\212\264\230^M}\256\237jU{\252\237"
 1412      905C578A 
 1412      B4985E4D 
 1412      7DAE9F6A 
 1412      557BAA9F 
 1413 0d7c 6B5278A9 		.ascii	"kRx\251\240mSv\253\247qMj\243\253{Th\236\252\177Ue\230"
 1413      A06D5376 
 1413      ABA7714D 
 1413      6AA3AB7B 
 1413      54689EAA 
 1414 0d94 A87F5664 		.ascii	"\250\177Vd\233\257\204RX\220\260\217]Y\213\255\220^"
 1414      9BAF8452 
 1414      5890B08F 
 1414      5D598BAD 
 1414      905E
 1415 0da6 598AAD91 		.ascii	"Y\212\255\221]U\210\264\234aMz\254\242oUx\247\240oT"
 1415      5D5588B4 
 1415      9C614D7A 
 1415      ACA26F55 
 1415      78A7A06F 
 1416 0dbb 77A8A472 		.ascii	"w\250\244rRr\250\255zPf\236\255\202Xe\230\252\204Yc"
 1416      5272A8AD 
 1416      7A50669E 
 1416      AD825865 
 1416      98AA8459 
 1417 0dd0 95A9865A 		.ascii	"\225\251\206Za\224\256\212ZY\212\253\222d[\205\246\223"
 1417      6194AE8A 
 1417      5A598AAB 
 1417      92645B85 
 1417      A693
 1418 0de2 675C84A4 		.ascii	"g\\\204\244\222g[\202\251\234kTv\241\241y]t\234\235"
 1418      92675B82 
 1418      A99C6B54 
 1418      76A1A179 
 1418      5D749C9D 
 1419 0df6 795E759D 		.ascii	"y^u\235\237yZp\236\250\200Xf\224\247\211bf\215\242\212"
 1419      9F795A70 
 1419      9EA88058 
 1419      6694A789 
 1419      62668DA2 
 1420 0e0b 66678B9E 		.ascii	"fg\213\236\210fh\214\243\214c\\\202\242\227n^{\232\225"
 1420      8866688C 
 1420      A38C635C 
 1420      82A2976E 
 1420      5E7B9A95 
 1421 0e1f 72627C98 		.ascii	"rb|\230\221n_}\240\233qWo\231\242\177`n\221\233\200"
 1421      916E5F7D 
 1421      A09B7157 
 1421      6F99A27F 
 1421      606E919B 
ARM GAS  C:\Users\LY\AppData\Local\Temp\ccbRkbv2.s 			page 48


 1422 0e34 6471929B 		.ascii	"dq\222\233\177bo\224\242\206bf\213\242\216kh\205\234"
 1422      7F626F94 
 1422      A2866266 
 1422      8BA28E6B 
 1422      68859C
 1423 0e47 8D6D6A85 		.ascii	"\215mj\205\233\215li\206\236\220ka~\235\230tcx\224\224"
 1423      9B8D6C69 
 1423      869E906B 
 1423      617E9D98 
 1423      74637894 
 1424 0e5c 78677992 		.ascii	"xgy\222\221uey\225\230x_o\217\233\201ip\210\223\200"
 1424      91756579 
 1424      9598785F 
 1424      6F8F9B81 
 1424      69708893 
 1425 0e71 6C738B95 		.ascii	"ls\213\225\200hr\214\232\204il\207\232\212om\203\226"
 1425      8068728C 
 1425      9A84696C 
 1425      879A8A6F 
 1425      6D8396
 1426 0e84 8B716F83 		.ascii	"\213qo\203\225\213qo\204\227\214pi~\227\224wjx\216\220"
 1426      958B716F 
 1426      84978C70 
 1426      697E9794 
 1426      776A788E 
 1427 0e99 7A6F7A8D 		.ascii	"zoz\215\216wkz\222\224yeq\215\231\204nq\204\221\202"
 1427      8E776B7A 
 1427      92947965 
 1427      718D9984 
 1427      6E718491 
 1428 0eae 71758894 		.ascii	"qu\210\224\202os\207\226\210ro\201\224\215xr\177\217"
 1428      826F7387 
 1428      9688726F 
 1428      81948D78 
 1428      727F8F
 1429 0ec1 8A78737F 		.ascii	"\212xs\177\217\214{t}\215\213zp{\217\221~qw\210\216"
 1429      8F8C7B74 
 1429      7D8D8B7A 
 1429      707B8F91 
 1429      7E717788 
 1430 0ed6 80757887 		.ascii	"\200ux\207\214\177tz\212\216}ot\207\223\207ws\177\212"
 1430      8C7F747A 
 1430      8A8E7D6F 
 1430      74879387 
 1430      77737F8A 
 1431 0eea 84797782 		.ascii	"\204yw\202\214\203wt\200\215\207xq{\214\214\177ty\207"
 1431      8C837774 
 1431      808D8778 
 1431      717B8C8C 
 1431      7F747987 
 1432 0efe 887E767B 		.ascii	"\210~v{\210\213\200wy\205\211\200vy\207\215\203xv\201"
 1432      888B8077 
 1432      79858980 
 1432      7679878D 
 1432      83787681 
 1433 0f12 89857C77 		.ascii	"\211\205|w\177\207\205\177z\200\206\202zv\177\212\212"
 1433      7F87857F 
ARM GAS  C:\Users\LY\AppData\Local\Temp\ccbRkbv2.s 			page 49


 1433      7A808682 
 1433      7A767F8A 
 1433      8A
 1434 0f23 80777A83 		.ascii	"\200wz\203\205\200|~\203\205\200{}\205\206\177wz\203"
 1434      85807C7E 
 1434      8385807B 
 1434      7D85867F 
 1434      777A83
 1435 0f36 88837D7C 		.ascii	"\210\203}|\200\201\200}}\202\205\202~}\200\201\177~"
 1435      8081807D 
 1435      7D828582 
 1435      7E7D8081 
 1435      7F7E
 1436 0f48 7E808482 		.ascii	"~\200\204\202\177|~\202\202\200}~\200\202\202\200\200"
 1436      7F7C7E82 
 1436      82807D7E 
 1436      80828280 
 1436      80
 1437 0f59 7F7E7E7F 		.ascii	"\177~~\177\200\202\203\201\177}}}\200\202\201\177~\200"
 1437      80828381 
 1437      7F7D7D7D 
 1437      8082817F 
 1437      7E80
 1438 0f6b 8081807E 		.ascii	"\200\201\200~~\200\200\200\200\201\203\201|z\177\202"
 1438      7E808080 
 1438      80818381 
 1438      7C7A7F82 
 1439 0f7b 82807E80 		.ascii	"\202\200~\200\204\202}w}\204\205\200}\177\202\202\200"
 1439      84827D77 
 1439      7D848580 
 1439      7D7F8282 
 1439      80
 1440 0f8c 7C7F8282 		.ascii	"|\177\202\202\177{\177\207\210\200y{\200\202\202\200"
 1440      7F7B7F87 
 1440      8880797B 
 1440      80828280 
 1441 0f9c 8184837E 		.ascii	"\201\204\203~"
 1442 0fa0 787D8788 		.ascii	"x}\207\210\200z}\204\207\202|{\201\205\201{|\206\212"
 1442      807A7D84 
 1442      87827C7B 
 1442      8185817B 
 1442      7C868A
 1443 0fb3 82787881 		.ascii	"\202xx\201\207\203{{\204\212\205xs\177\212\207}y\200"
 1443      87837B7B 
 1443      848A8578 
 1443      737F8A87 
 1443      7D7980
 1444 0fc6 87847D76 		.ascii	"\207\204}v\200\211\210{s\177\215\215\177sy\204\207\200"
 1444      8089887B 
 1444      737F8D8D 
 1444      7F737984 
 1444      8780
 1445 0fd8 797F8A8B 		.ascii	"y\177\212\213~pw\211\216\202sv\205\215\205vs\201\212"
 1445      7E707789 
 1445      8E827376 
 1445      858D8576 
 1445      73818A
ARM GAS  C:\Users\LY\AppData\Local\Temp\ccbRkbv2.s 			page 50


 1446 0feb 84757586 		.ascii	"\204uu\206\217\206tq\200\213\206xs\202\221\212vl~\215"
 1446      8F867471 
 1446      808B8678 
 1446      7382918A 
 1446      766C7E8D 
 1447 0fff 8C7C7380 		.ascii	"\214|s\200\215\212{p\177\216\214zm}\223\224\177ku\211"
 1447      8D8A7B70 
 1447      7F8E8C7A 
 1447      6D7D9394 
 1447      7F6B7589 
 1448 1013 9083727A 		.ascii	"\220\203rz\217\223\200kt\215\225\205nr\212\227\212p"
 1448      8F93806B 
 1448      748D9585 
 1448      6E728A97 
 1448      8A70
 1449 1025 6F849288 		.ascii	"o\204\222\210pp\210\227\213oi\200\222\215sj\201\230"
 1449      70708897 
 1449      8B6F6980 
 1449      928D736A 
 1449      8198
 1450 1037 9071637A 		.ascii	"\220qcz\222\222xgy\221\223xew\221\222vcw\225\233~cn"
 1450      92927867 
 1450      79919378 
 1450      65779192 
 1450      76637795 
 1451 104f 8B978168 		.ascii	"\213\227\201ht\221\233\200cm\215\235\210gi\212\241\216"
 1451      74919B80 
 1451      636D8D9D 
 1451      8867698A 
 1451      A18E
 1452 1061 6A67859C 		.ascii	"jg\205\234\215lg\206\241\225ma}\235\227p`\200\244\234"
 1452      8D6C6786 
 1452      A1956D61 
 1452      7D9D9770 
 1452      6080A49C 
 1453 1075 6F58749D 		.ascii	"oXt\235\242xYp\234\243xXl\230\242zVi\232\254\203V_\215"
 1453      A2785970 
 1453      9CA37858 
 1453      6C98A27A 
 1453      56699AAC 
 1454 108d A6865E66 		.ascii	"\246\206^f\221\247\206Z_\213\251\216^[\210\253\224c"
 1454      91A7865A 
 1454      5F8BA98E 
 1454      5E5B88AB 
 1454      9463
 1455 109f 5B82A594 		.ascii	"[\202\245\224f\\\202\253\234jW{\246\236mZ|\251\243q"
 1455      665C82AB 
 1455      9C6A577B 
 1455      A69E6D5A 
 1455      7CA9A371 
 1456 10b3 5370A2A8 		.ascii	"Sp\242\250zVn\237\250|Xk\232\250~Ue\232\260\207VZ\215"
 1456      7A566E9F 
 1456      A87C586B 
 1456      9AA87E55 
 1456      659AB087 
 1457 10ca AA8A5E60 		.ascii	"\252\212^`\215\253\215\\X\206\255\224aU\202\254\232"
 1457      8DAB8D5C 
ARM GAS  C:\Users\LY\AppData\Local\Temp\ccbRkbv2.s 			page 51


 1457      5886AD94 
 1457      615582AC 
 1457      9A
 1458 10db 66547BA8 		.ascii	"fT{\250\234jTy\252\244pQq\243\243sVr\244\251wPf\236"
 1458      9C6A5479 
 1458      AAA47051 
 1458      71A3A373 
 1458      5672A4A9 
 1459 10f3 AE805564 		.ascii	"\256\200Ud\231\255\205Ya\223\253\205X]\224\264\221Z"
 1459      99AD8559 
 1459      6193AB85 
 1459      585D94B4 
 1459      915A
 1460 1105 5486AD93 		.ascii	"T\206\255\223aX\205\256\230aQ\177\256\235eP{\255\242"
 1460      615885AE 
 1460      9861517F 
 1460      AE9D6550 
 1460      7BADA2
 1461 1118 6C5074A7 		.ascii	"lPt\247\243nPs\253\255vNh\241\253{Si\241\260\200Qa\233"
 1461      A36E5073 
 1461      ABAD764E 
 1461      68A1AB7B 
 1461      5369A1B0 
 1462 1130 B286555E 		.ascii	"\262\206U^\226\263\215Y[\220\260\215YX\216\265\230^"
 1462      96B38D59 
 1462      5B90B08D 
 1462      59588EB5 
 1462      985E
 1463 1142 5080AD99 		.ascii	"P\200\255\231dT\200\256\236eNy\254\243lNr\247\250tP"
 1463      645480AE 
 1463      9E654E79 
 1463      ACA36C4E 
 1463      72A7A874 
 1464 1157 6CA2A775 		.ascii	"l\242\247uOi\243\257~O^\230\255\203U`\230\261\207SX"
 1464      4F69A3AF 
 1464      7E4F5E98 
 1464      AD835560 
 1464      98B18753 
 1465 116c 92B39059 		.ascii	"\222\263\220YU\213\264\227^S\205\261\231`Q\203\265\242"
 1465      558BB497 
 1465      5E5385B1 
 1465      99605183 
 1465      B5A2
 1466 117e 654B77AD 		.ascii	"eKw\255\244lOw\254\247nKo\251\254uLh\245\257{Mc\237"
 1466      A46C4F77 
 1466      ACA76E4B 
 1466      6FA9AC75 
 1466      4C68A5AF 
 1467 1196 AF7F4E5F 		.ascii	"\257\177N_\235\265\207PV\223\263\214VX\222\264\220U"
 1467      9DB58750 
 1467      5693B38C 
 1467      565892B4 
 1467      9055
 1468 11a8 508AB599 		.ascii	"P\212\265\231]N\203\263\235aN\200\260\237eM|\263\251"
 1468      5D4E83B3 
 1468      9D614E80 
 1468      B09F654D 
ARM GAS  C:\Users\LY\AppData\Local\Temp\ccbRkbv2.s 			page 52


 1468      7CB3A9
 1469 11bb 6C4A72AB 		.ascii	"lJr\253\252sOr\253\254uLj\247\262}Md\242\263\202P`\234"
 1469      AA734F72 
 1469      ABAC754C 
 1469      6AA7B27D 
 1469      4D64A2B3 
 1470 11d3 B286515B 		.ascii	"\262\206Q[\230\266\216ST\216\262\222YU\215\264\226Y"
 1470      98B68E53 
 1470      548EB292 
 1470      59558DB4 
 1470      9659
 1471 11e5 4E84B49F 		.ascii	"N\204\264\237aL~\260\242gMz\254\243iKu\256\253qJl\246"
 1471      614C7EB0 
 1471      A2674D7A 
 1471      ACA3694B 
 1471      75AEAB71 
 1472 11fc AC784E6C 		.ascii	"\254xNl\245\256{Md\240\263\202P`\232\263\210T\\\225"
 1472      A5AE7B4D 
 1472      64A0B382 
 1472      50609AB3 
 1472      88545C95 
 1473 1210 B28C5558 		.ascii	"\262\214UX\221\265\224YS\207\260\227_U\205\256\232`"
 1473      91B59459 
 1473      5387B097 
 1473      5F5585AE 
 1473      9A60
 1474 1222 507FAEA0 		.ascii	"P\177\256\240eNx\251\242lPt\245\244oOp\245\252vNh\236"
 1474      654E78A9 
 1474      A26C5074 
 1474      A5A46F4F 
 1474      70A5AA76 
 1475 1239 AB7D5367 		.ascii	"\253}Sg\233\255\200Ra\230\260\210V]\221\257\216[[\213"
 1475      9BAD8052 
 1475      6198B088 
 1475      565D91AF 
 1475      8E5B5B8B 
 1476 124d AE915C58 		.ascii	"\256\221\\X\210\257\227aU\200\251\233hX~\250\234hTz"
 1476      88AF9761 
 1476      5580A99B 
 1476      68587EA8 
 1476      9C68547A 
 1477 1261 A7A26F54 		.ascii	"\247\242oTs\242\245uVo\237\246yVl\234\252\200We\225"
 1477      73A2A575 
 1477      566F9FA6 
 1477      79566C9C 
 1477      AA805765 
 1478 1276 A9855C66 		.ascii	"\251\205\\f\223\252\205Zb\221\255\216^\\\210\253\223"
 1478      93AA855A 
 1478      6291AD8E 
 1478      5E5C88AB 
 1478      93
 1479 1287 645C84A8 		.ascii	"d\\\204\250\225e\\\202\252\232iXz\246\237pYw\242\240"
 1479      95655C82 
 1479      AA9A6958 
 1479      7AA69F70 
 1479      5977A2A0 
 1480 129b 725873A0 		.ascii	"rXs\240\243wYm\232\244|Yk\230\245\177Zg\224\247\203"
ARM GAS  C:\Users\LY\AppData\Local\Temp\ccbRkbv2.s 			page 53


 1480      A377596D 
 1480      9AA47C59 
 1480      6B98A57F 
 1480      5A6794A7 
 1481 12b0 5C638DA6 		.ascii	"\\c\215\246\210be\214\244\210`b\212\247\220e^\202\245"
 1481      8862658C 
 1481      A4886062 
 1481      8AA79065 
 1481      5E82A5
 1482 12c3 946A5E80 		.ascii	"\224j^\200\242\226m_}\241\231p]w\236\235v_t\233\235"
 1482      A2966D5F 
 1482      7DA19970 
 1482      5D779E9D 
 1482      765F749B 
 1483 12d8 775E7199 		.ascii	"w^q\231\241~`m\224\241\200ak\222\243\204ch\215\242\210"
 1483      A17E606D 
 1483      94A18061 
 1483      6B92A384 
 1483      63688DA2 
 1484 12ed 666588A0 		.ascii	"fe\210\240\214kg\206\236\213jd\201\237\222pc}\232\221"
 1484      8C6B6786 
 1484      9E8B6A64 
 1484      819F9270 
 1484      637D9A91 
 1485 1301 72657C99 		.ascii	"re|\231\224uey\230\226wct\225\231~gs\220\226}gq\217"
 1485      94756579 
 1485      98967763 
 1485      7495997E 
 1485      67739096 
 1486 1319 9A81696E 		.ascii	"\232\201in\213\231\202il\210\231\207nk\205\227\210n"
 1486      8B998269 
 1486      6C889987 
 1486      6E6B8597 
 1486      886E
 1487 132b 6A82978C 		.ascii	"j\202\227\214sl\200\225\213ri\177\227\221xjz\222\217"
 1487      736C8095 
 1487      8B72697F 
 1487      9791786A 
 1487      7A928F
 1488 133e 796B7A92 		.ascii	"ykz\222\222|lx\221\222|js\216\225\203ps\211\220\200"
 1488      927C6C78 
 1488      91927C6A 
 1488      738E9583 
 1488      70738990 
 1489 1353 6F738A95 		.ascii	"os\212\225\205pq\206\223\206ro\203\223\212wr\202\220"
 1489      85707186 
 1489      9386726F 
 1489      83938A77 
 1489      728290
 1490 1366 87757080 		.ascii	"\207up\200\221\213zq~\215\211yo}\217\216~qz\211\213"
 1490      918B7A71 
 1490      7E8D8979 
 1490      6F7D8F8E 
 1490      7E717A89 
 1491 137b 7E72798A 		.ascii	"~ry\212\215\200sx\210\214\200ru\206\217\206xw\202\211"
 1491      8D807378 
 1491      888C8072 
ARM GAS  C:\Users\LY\AppData\Local\Temp\ccbRkbv2.s 			page 54


 1491      75868F86 
 1491      78778289 
 1492 138f 82767785 		.ascii	"\202vw\205\216\207yu\201\213\206zt\200\213\211~w\200"
 1492      8E877975 
 1492      818B867A 
 1492      74808B89 
 1492      7E7780
 1493 13a2 88857B74 		.ascii	"\210\205{t\177\211\211\200v}\205\206}t{\207\212\202"
 1493      7F898980 
 1493      767D8586 
 1493      7D747B87 
 1493      8A82
 1494 13b4 787A8184 		.ascii	"xz\201\204\200xz\203\207\202zz\201\205\201yx\200\206"
 1494      80787A83 
 1494      87827A7A 
 1494      81858179 
 1494      788086
 1495 13c7 867F7C7F 		.ascii	"\206\177|\177\200\201||\201\206\205\177|\177\202\203"
 1495      80817C7C 
 1495      8186857F 
 1495      7C7F8283 
 1496 13d7 7F7A7E82 		.ascii	"\177z~\202\207\204\177~\200\201\200}\177\201\206\203"
 1496      87847F7E 
 1496      8081807D 
 1496      7F818683 
 1497 13e7 7F7E7F82 		.ascii	"\177~\177\202\201~}\177\203\206\201\177|\177\200\200"
 1497      817E7D7F 
 1497      8386817F 
 1497      7C7F8080 
 1498 13f7 7F808284 		.ascii	"\177\200\202\204\201\177}\200\201\200}|\200\206\205"
 1498      817F7D80 
 1498      81807D7C 
 1498      808685
 1499 1406 807C7C80 		.ascii	"\200||\200\200\200~\200\204\204\200||\201\201\200||"
 1499      80807E80 
 1499      8484807C 
 1499      7C818180 
 1499      7C7C
 1500 1418 8387857F 		.ascii	"\203\207\205\177y~\200\201\200}\202\205\204\200y~\201"
 1500      797E8081 
 1500      807D8285 
 1500      8480797E 
 1500      81
 1501 1429 82807A7F 		.ascii	"\202\200z\177\205\210\201xy\200\202\201{}\203\206\202"
 1501      85888178 
 1501      79808281 
 1501      7B7D8386 
 1501      82
 1502 143a 79788083 		.ascii	"yx\200\203\201yz\204\212\207{u|\204\206~z\201\211\211"
 1502      81797A84 
 1502      8A877B75 
 1502      7C84867E 
 1502      7A818989 
 1503 144e 7E767D85 		.ascii	"~v}\205\210~w\177\213\217\201tx\202\212\202x}\210\216"
 1503      887E777F 
 1503      8B8F8174 
 1503      78828A82 
ARM GAS  C:\Users\LY\AppData\Local\Temp\ccbRkbv2.s 			page 55


 1503      787D888E 
 1504 1462 84757783 		.ascii	"\204uw\203\214\204vy\207\222\212vs\177\214\210yv\202"
 1504      8C847679 
 1504      87928A76 
 1504      737F8C88 
 1504      797682
 1505 1475 908C7870 		.ascii	"\220\214xp|\212\211xr\177\220\220zlv\210\215|py\214"
 1505      7C8A8978 
 1505      727F9090 
 1505      7A6C7688 
 1505      8D7C7079 
 1506 148a 927F6D71 		.ascii	"\222\177mq\204\217\200os\210\226\206ol\177\220\207s"
 1506      848F806F 
 1506      73889686 
 1506      6F6C7F90 
 1506      8773
 1507 149c 7284958B 		.ascii	"r\204\225\213sm~\222\214vo\200\227\223yjw\217\221|p"
 1507      736D7E92 
 1507      8C766F80 
 1507      9793796A 
 1507      778F917C 
 1508 14b1 7D94957D 		.ascii	"}\224\225}ku\215\223}mw\221\232\202jm\207\225\203or"
 1508      6B758D93 
 1508      7D6D7791 
 1508      9A826A6D 
 1508      8795836F 
 1509 14c6 8B99876D 		.ascii	"\213\231\207ml\203\225\206on\207\234\215of}\224\214"
 1509      6C839586 
 1509      6F6E879C 
 1509      8D6F667D 
 1509      948C
 1510 14d8 746B8099 		.ascii	"tk\200\231\221tey\223\220uh|\231\230zcq\217\225}iv\224"
 1510      91746579 
 1510      93907568 
 1510      7C99987A 
 1510      63718F95 
 1511 14f0 997E656E 		.ascii	"\231~en\215\227\200gp\220\236\205fg\206\230\206jj\211"
 1511      8D978067 
 1511      70909E85 
 1511      66678698 
 1511      866A6A89 
 1512 1504 9E8B6A63 		.ascii	"\236\213jc\200\230\214mf\203\237\222n_y\230\223sd|\234"
 1512      80988C6D 
 1512      66839F92 
 1512      6E5F7998 
 1512      9373647C 
 1513 1519 98766075 		.ascii	"\230v`u\226\226wbw\233\237}_k\220\233\200ep\225\241"
 1513      96967762 
 1513      779B9F7D 
 1513      5F6B909B 
 1513      80657095 
 1514 152e 8262688D 		.ascii	"\202bh\215\237\205ei\220\246\215fa\205\237\215kf\211"
 1514      9F856569 
 1514      90A68D66 
 1514      61859F8D 
 1514      6B6689
 1515 1541 A5926A5E 		.ascii	"\245\222j^\200\237\222na\202\244\231p[w\233\230t`z\240"
ARM GAS  C:\Users\LY\AppData\Local\Temp\ccbRkbv2.s 			page 56


 1515      809F926E 
 1515      6182A499 
 1515      705B779B 
 1515      9874607A 
 1516 1556 9D775C72 		.ascii	"\235w\\r\230\233x^r\235\244\177[g\221\237\201al\225"
 1516      989B785E 
 1516      729DA47F 
 1516      5B67919F 
 1516      81616C95 
 1517 156a A4855F63 		.ascii	"\244\205_c\214\242\210bd\217\251\220e\\\203\241\220"
 1517      8CA28862 
 1517      648FA990 
 1517      655C83A1 
 1517      90
 1518 157b 6A6187A7 		.ascii	"ja\207\247\227kZ}\241\230o\\\177\247\240sWr\235\236"
 1518      976B5A7D 
 1518      A1986F5C 
 1518      7FA7A073 
 1518      57729D9E 
 1519 158f 785C75A0 		.ascii	"x\\u\240\243{Xl\227\241}Zl\233\251\204X`\216\244\207"
 1519      A37B586C 
 1519      97A17D5A 
 1519      6C9BA984 
 1519      58608EA4 
 1520 15a4 606592A8 		.ascii	"`e\222\250\213^]\211\245\215a]\212\254\227fW\177\243"
 1520      8B5E5D89 
 1520      A58D615D 
 1520      8AAC9766 
 1520      577FA3
 1521 15b7 966B5B81 		.ascii	"\226k[\201\250\235mUw\241\235rXx\245\245wUl\232\242"
 1521      A89D6D55 
 1521      77A19D72 
 1521      5878A5A5 
 1521      77556C9A 
 1522 15cc 7C596E9C 		.ascii	"|Yn\234\247\200Xf\223\244\201Zf\226\254\213[[\210\245"
 1522      A7805866 
 1522      93A4815A 
 1522      6696AC8B 
 1522      5B5B88A5 
 1523 15e0 8D61618B 		.ascii	"\215aa\213\251\221aY\203\246\223dY\203\252\235jUx\240"
 1523      A9916159 
 1523      83A69364 
 1523      5983AA9D 
 1523      6A5578A0 
 1524 15f4 9A6E597C 		.ascii	"\232nY|\246\242qTq\235\241uXr\237\247{Vh\226\244\177"
 1524      A6A27154 
 1524      719DA175 
 1524      58729FA7 
 1524      7B566896 
 1525 160a 596A99AA 		.ascii	"Yj\231\252\203Yc\220\246\205Zb\222\255\216\\Z\205\245"
 1525      83596390 
 1525      A6855A62 
 1525      92AD8E5C 
 1525      5A85A5
 1526 161d 8F625F88 		.ascii	"\217b_\210\251\225cX\200\246\230fX\177\251\240nWv\240"
 1526      A9956358 
 1526      80A69866 
ARM GAS  C:\Users\LY\AppData\Local\Temp\ccbRkbv2.s 			page 57


 1526      587FA9A0 
 1526      6E5776A0 
 1527 1631 9D705A79 		.ascii	"\235pZy\244\244tUo\235\244yXn\236\252\177Xf\225\247"
 1527      A4A47455 
 1527      6F9DA479 
 1527      586E9EAA 
 1527      7F586695 
 1528 1646 815A6696 		.ascii	"\201Zf\226\254\210[`\215\250\212]_\216\257\222`Y\202"
 1528      AC885B60 
 1528      8DA88A5D 
 1528      5F8EAF92 
 1528      605982
 1529 1659 A794655B 		.ascii	"\247\224e[\203\253\231gV|\247\233jVz\250\244rUq\237"
 1529      83AB9967 
 1529      567CA79B 
 1529      6A567AA8 
 1529      A4725571 
 1530 166e A1745873 		.ascii	"\241tXs\244\250xTi\233\251~Xh\232\256\205Yb\222\252"
 1530      A4A87854 
 1530      699BA97E 
 1530      58689AAE 
 1530      85596292 
 1531 1683 875C6192 		.ascii	"\207\\a\222\260\217^[\211\253\221`[\211\260\232eU~\251"
 1531      B08F5E5B 
 1531      89AB9160 
 1531      5B89B09A 
 1531      65557EA9 
 1532 1697 9C6B597E 		.ascii	"\234kY~\253\240lUw\246\242qUs\246\251xTj\233\245zWk"
 1532      ABA06C55 
 1532      77A6A271 
 1532      5573A6A9 
 1532      78546A9B 
 1533 16af 9EAB8056 		.ascii	"\236\253\200Vb\224\251\203Zc\224\254\210[]\214\251\213"
 1533      6294A983 
 1533      5A6394AC 
 1533      885B5D8C 
 1533      A98B
 1534 16c1 5F5D8BAC 		.ascii	"_]\213\254\223cZ\203\247\223e[\203\253\233jVz\244\233"
 1534      93635A83 
 1534      A793655B 
 1534      83AB9B6A 
 1534      567AA49B 
 1535 16d5 6F5A7AA5 		.ascii	"oZz\245\237qWs\237\240uXp\237\246|Yi\227\242~[i\230"
 1535      9F715773 
 1535      9FA07558 
 1535      709FA67C 
 1535      596997A2 
 1536 16ed A9835A60 		.ascii	"\251\203Z`\216\246\207_a\215\250\214`\\\206\245\216"
 1536      8EA6875F 
 1536      618DA88C 
 1536      605C86A5 
 1536      8E
 1537 16fe 635C85A8 		.ascii	"c\\\205\250\224gY~\242\224jZ~\246\234nWu\237\235s[u"
 1537      9467597E 
 1537      A2946A5A 
 1537      7EA69C6E 
 1537      57759F9D 
ARM GAS  C:\Users\LY\AppData\Local\Temp\ccbRkbv2.s 			page 58


 1538 1715 A0A07659 		.ascii	"\240\240vYn\233\242{Zk\231\246\201]g\221\241\202_g\223"
 1538      6E9BA27B 
 1538      5A6B99A6 
 1538      815D6791 
 1538      A1825F67 
 1539 172a A8885F5F 		.ascii	"\250\210__\211\244\214ea\207\244\220g^\201\241\222i"
 1539      89A48C65 
 1539      6187A490 
 1539      675E81A1 
 1539      9269
 1540 173c 5E80A497 		.ascii	"^\200\244\227n\\z\236\227r]z\241\236v[r\232\236{`r\232"
 1540      6E5C7A9E 
 1540      97725D7A 
 1540      A19E765B 
 1540      729A9E7B 
 1541 1753 A17E5E6C 		.ascii	"\241~^l\226\242\202`i\222\245\210df\213\237\210fh\215"
 1541      96A28260 
 1541      6992A588 
 1541      64668B9F 
 1541      8866688D 
 1542 1767 A58D6661 		.ascii	"\245\215fa\204\240\220mc"
 1542      84A0906D 
 1542      63
 1543 1770 82A0936F 		.ascii	"\202\240\223oa\177\235\224qa}\235\231vav\227\230xcw"
 1543      617F9D94 
 1543      71617D9D 
 1543      99766176 
 1543      97987863 
 1544 1785 999C7C62 		.ascii	"\231\234|bp\221\232\200fq\221\233\201em\216\233\204"
 1544      70919A80 
 1544      6671919B 
 1544      81656D8E 
 1544      9B84
 1545 1797 676B8B9C 		.ascii	"gk\213\234\211kj\205\227\210lk\207\234\215mf\200\230"
 1545      896B6A85 
 1545      97886C6B 
 1545      879C8D6D 
 1545      668098
 1546 17aa 90736980 		.ascii	"\220si\200\227\221th~\226\222vg|\226\225ygw\222\224"
 1546      97917468 
 1546      7E969276 
 1546      677C9695 
 1546      79677792 
 1547 17bf 7B687893 		.ascii	"{hx\223\227\177hr\214\225\201lt\214\226\202kp\211\226"
 1547      977F6872 
 1547      8C95816C 
 1547      748C9682 
 1547      6B708996 
 1548 17d3 856D6F86 		.ascii	"\205mo\206\225\211qp\203\222\207rp\205\226\213rl\177"
 1548      95897170 
 1548      83928772 
 1548      7085968B 
 1548      726C7F
 1549 17e6 918D776E 		.ascii	"\221\215wn\177\217\214wm|\216\215ymz\214\217|nw\211"
 1549      7F8F8C77 
 1549      6D7C8E8D 
 1549      796D7A8C 
ARM GAS  C:\Users\LY\AppData\Local\Temp\ccbRkbv2.s 			page 59


 1549      8F7C6E77 
 1550 17fb 8D7D6F78 		.ascii	"\215}ox\212\220\200ot\205\217\202rv\207\217\203qs\204"
 1550      8A90806F 
 1550      74858F82 
 1550      7276878F 
 1550      83717384 
 1551 180f 90867373 		.ascii	"\220\206ss\202\217\210vs\200\214\207vs\201\217\212w"
 1551      828F8876 
 1551      73808C87 
 1551      7673818F 
 1551      8A77
 1552 1821 707C8B8B 		.ascii	"p|\213\213|t}\212\212{s|\212\214~sz\210\215\200ty\205"
 1552      7C747D8A 
 1552      8A7B737C 
 1552      8A8C7E73 
 1552      7A888D80 
 1553 1838 8B807579 		.ascii	"\213\200uy\206\214\201su\201\212\202wx\201\212\201v"
 1553      868C8173 
 1553      75818A82 
 1553      7778818A 
 1553      8176
 1554 184a 76808A84 		.ascii	"v\200\212\204xv\200\211\206{w\177\207\205{y\200\211"
 1554      78768089 
 1554      867B777F 
 1554      87857B79 
 1554      8089
 1555 185c 877C777D 		.ascii	"\207|w}\207\210\200{\177\206\207\177{~\206\210\200{"
 1555      8788807B 
 1555      7F86877F 
 1555      7B7E8688 
 1555      807B
 1556 186e 7E858881 		.ascii	"~\205\210\201|~\202\205\200}\177\203\207\200{|\200\204"
 1556      7C7E8285 
 1556      807D7F83 
 1556      87807B7C 
 1556      8084
 1557 1880 827F7F81 		.ascii	"\202\177\177\201\203\200}~\200\204\201}}\200\203\202"
 1557      83807D7E 
 1557      8084817D 
 1557      7D808382 
 1558 1890 7F7E7F80 		.ascii	"\177~\177\200\200\177\177\200\202\201\177~\177\200\201"
 1558      807F7F80 
 1558      82817F7E 
 1558      7F8081
 1559 189f 80808080 		.ascii	"\200\200\200\200\200\200\200\200\200\201\200\200\200"
 1559      80808080 
 1559      80818080 
 1559      80
 1560 18ac 80818080 		.ascii	"\200\201\200\200\200\200\200\200\200\202\201\201\200"
 1560      80808080 
 1560      80828181 
 1560      80
 1561 18b9 80808080 		.ascii	"\200\200\200\200\200\202\202\200\200\200\200\201\201"
 1561      80828280 
 1561      80808081 
 1561      81
 1562 18c6 80808081 		.ascii	"\200\200\200\201\200\200\200\201\202\200~~\200\202\201"
ARM GAS  C:\Users\LY\AppData\Local\Temp\ccbRkbv2.s 			page 60


 1562      80808081 
 1562      82807E7E 
 1562      808281
 1563 18d5 7F7E7F80 		.ascii	"\177~\177\200\200~}\200\202\201~|~\201\201\177}\177"
 1563      807E7D80 
 1563      82817E7C 
 1563      7E81817F 
 1563      7D7F
 1564 18e7 82827F7C 		.ascii	"\202\202\177|\177\203\204\177{}\202\205\200~~\202\204"
 1564      7F83847F 
 1564      7B7D8285 
 1564      807E7E82 
 1564      84
 1565 18f8 807C7E84 		.ascii	"\200|~\204\206\200{|\202\206\201}}\201\205\200||\202"
 1565      86807B7C 
 1565      8286817D 
 1565      7D818580 
 1565      7C7C82
 1566 190b 86817B7A 		.ascii	"\206\201{z\200\206\203}z\177\205\202|y\200\207\205|"
 1566      8086837D 
 1566      7A7F8582 
 1566      7C798087 
 1566      857C
 1567 191d 777D8686 		.ascii	"w}\206\206~w}\206\206~w|\206\210\177vz\205\211\201w"
 1567      7E777D86 
 1567      867E777C 
 1567      86887F76 
 1567      7A858981 
 1568 1932 79848980 		.ascii	"y\204\211\200vy\205\214\203vv\203\213\205yv\202\214"
 1568      7679858C 
 1568      83767683 
 1568      8B857976 
 1568      828C
 1569 1944 85777481 		.ascii	"\205wt\201\214\207xr\200\215\212zq}\213\211{q}\214\213"
 1569      8C877872 
 1569      808D8A7A 
 1569      717D8B89 
 1569      7B717D8C 
 1570 1959 7C6F7A8B 		.ascii	"|oz\213\214~qy\212\215~pw\211\216\200ot\210\220\202"
 1570      8C7E7179 
 1570      8A8D7E70 
 1570      77898E80 
 1570      6F748890 
 1571 196e 71738690 		.ascii	"qs\206\220\203pr\207\222\206qo\203\222\211to\202\221"
 1571      83707287 
 1571      9286716F 
 1571      83928974 
 1571      6F8291
 1572 1981 8A756F81 		.ascii	"\212uo\201\223\215wm\200\223\220zm}\221\221|n|\222\223"
 1572      938D776D 
 1572      8093907A 
 1572      6D7D9191 
 1572      7C6E7C92 
 1573 1996 7E6B7890 		.ascii	"~kx\220\225\200mv\215\225\202mt\214\226\204lp\211\227"
 1573      95806D76 
 1573      8D95826D 
 1573      748C9684 
ARM GAS  C:\Users\LY\AppData\Local\Temp\ccbRkbv2.s 			page 61


 1573      6C708997 
 1574 19aa 876E6D86 		.ascii	"\207nm\206\225\210ol\204\227\213oh\201\226\216rh\177"
 1574      95886F6C 
 1574      84978B6F 
 1574      6881968E 
 1574      72687F
 1575 19bd 948F7367 		.ascii	"\224\217sg}\225\222vez\224\225zfv\221\226}gu\221\230"
 1575      7D959276 
 1575      657A9495 
 1575      7A667691 
 1575      967D6775 
 1576 19d3 7F66728F 		.ascii	"\177fr\217\232\203ip\214\232\205in\212\233\211jk\207"
 1576      9A836970 
 1576      8C9A8569 
 1576      6E8A9B89 
 1576      6A6B87
 1577 19e6 9B8B6C69 		.ascii	"\233\213li\203\232\216nh\201\232\221pd~\231\224tdz\226"
 1577      839A8E6E 
 1577      68819A91 
 1577      70647E99 
 1577      9474647A 
 1578 19fb 95756477 		.ascii	"\225udw\226\230yct\223\231|cq\221\233\200do\217\233"
 1578      96987963 
 1578      7493997C 
 1578      6371919B 
 1578      80646F8F 
 1579 1a10 81646C8C 		.ascii	"\201dl\214\235\205fj\211\235\210gh\207\237\214je\203"
 1579      9D85666A 
 1579      899D8867 
 1579      68879F8C 
 1579      6A6583
 1580 1a23 9E8F6C64 		.ascii	"\236\217ld\200\235\222oc~\233\224qaz\233\231vav\227"
 1580      809D926F 
 1580      637E9B94 
 1580      71617A9B 
 1580      99766176 
 1581 1a38 99786173 		.ascii	"\231xas\226\234|bp\223\235\177bl\220\236\202cj\215\236"
 1581      969C7C62 
 1581      70939D7F 
 1581      626C909E 
 1581      82636A8D 
 1582 1a4d 8564678A 		.ascii	"\205dg\212\240\212ge\206\236\214ic\204\240\220ka\200"
 1582      A08A6765 
 1582      869E8C69 
 1582      6384A090 
 1582      6B6180
 1583 1a60 9F936F61 		.ascii	"\237\223oa|\236\227say\233\230t_v\233\235z`q\226\235"
 1583      7C9E9773 
 1583      61799B98 
 1583      745F769B 
 1583      9D7A6071 
 1584 1a76 7C606F95 		.ascii	"|`o\225\240\200ak\222\241\203ch\216\242\211ff\212\242"
 1584      A080616B 
 1584      92A18363 
 1584      688EA289 
 1584      66668AA2 
 1585 1a8a 8B666488 		.ascii	"\213fd\210\244\221jb\203\241\222la\200\242\226p_|\237"
ARM GAS  C:\Users\LY\AppData\Local\Temp\ccbRkbv2.s 			page 62


 1585      A4916A62 
 1585      83A1926C 
 1585      6180A296 
 1585      705F7C9F 
 1586 1a9e 99735E78 		.ascii	"\231s^x\235\234x_u\232\235y^p\231\242\177^l\224\240"
 1586      9D9C785F 
 1586      759A9D79 
 1586      5E7099A2 
 1586      7F5E6C94 
 1587 1ab3 80606A92 		.ascii	"\200`j\222\242\205bf\215\242\207cc\212\243\215gc\206"
 1587      A2856266 
 1587      8DA28763 
 1587      638AA38D 
 1587      676386
 1588 1ac6 A18F6960 		.ascii	"\241\217i`\203\244\224m`\177\237\225o_|\240\231s^w\234"
 1588      83A4946D 
 1588      607F9F95 
 1588      6F5F7CA0 
 1588      99735E77 
 1589 1adb 9B765D74 		.ascii	"\233v]t\232\236{_p\227\236|^m\225\242\202ai\220\240"
 1589      9A9E7B5F 
 1589      70979E7C 
 1589      5E6D95A2 
 1589      82616990 
 1590 1af0 8463678E 		.ascii	"\204cg\216\242\210dd\211\241\212fb\206\242\220j`\201"
 1590      A2886464 
 1590      89A18A66 
 1590      6286A290 
 1590      6A6081
 1591 1b03 9F916B5F 		.ascii	"\237\221k_\177\240\226p_z\234\227r^w\234\233w^r\230"
 1591      7FA09670 
 1591      5F7A9C97 
 1591      725E779C 
 1591      9B775E72 
 1592 1b18 9C7A5E6F 		.ascii	"\234z^o\227\237\177`m\223\236\200`i\221\242\205cf\213"
 1592      979F7F60 
 1592      6D939E80 
 1592      606991A2 
 1592      8563668B 
 1593 1b2c 9F886564 		.ascii	"\237\210ed\211\241\214hb\204\236\215ja\201\240\223n"
 1593      89A18C68 
 1593      62849E8D 
 1593      6A6181A0 
 1593      936E
 1594 1b3e 607D9C94 		.ascii	"`}\234\224p_{\235\231v`v\231\231x_t\231\235}`p\225\235"
 1594      705F7B9D 
 1594      99766076 
 1594      9999785F 
 1594      74999D7D 
 1595 1b56 80626D92 		.ascii	"\200bm\222\240\204ek\216\236\206fj\215\240\213hf\210"
 1595      A084656B 
 1595      8E9E8666 
 1595      6A8DA08B 
 1595      686688
 1596 1b69 9F8D6B66 		.ascii	"\237\215kf\205\237\221nd\200\234\222oc\177\235\226s"
 1596      859F916E 
 1596      64809C92 
ARM GAS  C:\Users\LY\AppData\Local\Temp\ccbRkbv2.s 			page 63


 1596      6F637F9D 
 1596      9673
 1597 1b7b 627A9996 		.ascii	"bz\231\226uaw\230\232zbs\224\230|br\223\234\200dn\217"
 1597      75617798 
 1597      9A7A6273 
 1597      94987C62 
 1597      72939C80 
 1598 1b92 9B82656C 		.ascii	"\233\202el\216\236\210hk\211\233\210ii\211\236\215l"
 1598      8E9E8868 
 1598      6B899B88 
 1598      6969899E 
 1598      8D6C
 1599 1ba4 67839B8E 		.ascii	"g\203\233\216nf\202\234\222rf~\230\222te|\231\226we"
 1599      6E66829C 
 1599      9272667E 
 1599      98927465 
 1599      7C999677 
 1600 1bb9 78959579 		.ascii	"x\225\225yev\224\231~fr\217\227\177fq\216\231\201gn"
 1600      65769499 
 1600      7E66728F 
 1600      977F6671 
 1600      8E998167 
 1601 1bce 8A998368 		.ascii	"\212\231\203hl\211\233\211lk\204\230\211mk\204\232\216"
 1601      6C899B89 
 1601      6C6B8498 
 1601      896D6B84 
 1601      9A8E
 1602 1be0 70698098 		.ascii	"pi\200\230\217ri\177\230\223vi{\224\223whz\224\226{"
 1602      8F72697F 
 1602      98937669 
 1602      7B949377 
 1602      687A9496 
 1603 1bf5 69769095 		.ascii	"iv\220\225|it\217\230\200jq\212\225\200kp\212\227\204"
 1603      7C69748F 
 1603      98806A71 
 1603      8A95806B 
 1603      708A9784 
 1604 1c09 6D6E8695 		.ascii	"mn\206\225\205mm\204\227\211pl\201\224\212rl\200\225"
 1604      856D6D84 
 1604      9789706C 
 1604      81948A72 
 1604      6C8095
 1605 1c1c 8E746B7D 		.ascii	"\216tk}\223\216uk|\223\222zly\217\221zlx\220\224~mv"
 1605      938E756B 
 1605      7C93927A 
 1605      6C798F91 
 1605      7A6C7890 
 1606 1c34 8C937F6D 		.ascii	"\214\223\177mt\213\225\202os\210\222\202or\207\224\205"
 1606      748B9582 
 1606      6F738892 
 1606      826F7287 
 1606      9485
 1607 1c46 71708392 		.ascii	"qp\203\222\206ro\202\223\211up\200\220\211uo\177\222"
 1607      86726F82 
 1607      93897570 
 1607      80908975 
 1607      6F7F92
ARM GAS  C:\Users\LY\AppData\Local\Temp\ccbRkbv2.s 			page 64


 1608 1c59 8C786F7C 		.ascii	"\214xo|\217\214xn{\217\217|ox\213\215|py\214\220\177"
 1608      8F8C786E 
 1608      7B8F8F7C 
 1608      6F788B8D 
 1608      7C70798C 
 1609 1c6f 7176898F 		.ascii	"qv\211\217\200qu\210\221\203st\205\217\202st\205\221"
 1609      80717588 
 1609      91837374 
 1609      858F8273 
 1609      748591
 1610 1c82 86757382 		.ascii	"\206us\202\217\206ur\201\217\210xr\200\215\207wr\177"
 1610      8F867572 
 1610      818F8878 
 1610      72808D87 
 1610      77727F
 1611 1c95 8E8A7A72 		.ascii	"\216\212zr}\214\211zr|\214\214~sz\211\213~tz\212\215"
 1611      7D8C897A 
 1611      727C8C8C 
 1611      7E737A89 
 1611      8B7E747A 
 1612 1cab 80757988 		.ascii	"\200uy\210\215\200tx\207\217\203vw\205\214\201uw\205"
 1612      8D807478 
 1612      878F8376 
 1612      77858C81 
 1612      757785
 1613 1cbe 8E847676 		.ascii	"\216\204vv\202\214\203vu\201\214\206yu\200\212\204x"
 1613      828C8376 
 1613      75818C86 
 1613      7975808A 
 1613      8478
 1614 1cd0 75808B88 		.ascii	"u\200\213\210{u~\211\206zt}\212\211}u|\210\210|t|\210"
 1614      7B757E89 
 1614      867A747D 
 1614      8A897D75 
 1614      7C88887C 
 1615 1ce7 8A7F757B 		.ascii	"\212\177u{\207\212\177uy\206\213\201wy\205\212\200w"
 1615      878A7F75 
 1615      79868B81 
 1615      7779858A 
 1615      8077
 1616 1cf9 79868D83 		.ascii	"y\206\215\203xy\204\213\203xw\203\214\205zx\201\212"
 1616      7879848B 
 1616      83787783 
 1616      8C857A78 
 1616      818A
 1617 1d0b 84797680 		.ascii	"\204yv\200\213\206{v\177\211\205zu~\211\210}v|\206\205"
 1617      8B867B76 
 1617      7F89857A 
 1617      757E8988 
 1617      7D767C86 
 1618 1d20 7B757C87 		.ascii	"{u|\207\210}u{\206\207~ty\206\211\200x{\205\210\200"
 1618      887D757B 
 1618      86877E74 
 1618      79868980 
 1618      787B8588 
 1619 1d35 777A878C 		.ascii	"wz\207\214\202yz\205\213\203yy\204\214\205{y\203\213"
 1619      82797A85 
ARM GAS  C:\Users\LY\AppData\Local\Temp\ccbRkbv2.s 			page 65


 1619      8B837979 
 1619      848C857B 
 1619      79838B
 1620 1d48 847A7882 		.ascii	"\204zx\202\213\207{x\201\212\205zu\177\212\207}w~\210"
 1620      8B877B78 
 1620      818A857A 
 1620      757F8A87 
 1620      7D777E88 
 1621 1d5c 867B757D 		.ascii	"\206{u}\211\210}v}\210\210~u{\207\212\200x|\206\211"
 1621      89887D76 
 1621      7D88887E 
 1621      757B878A 
 1621      80787C86 
 1622 1d71 80757986 		.ascii	"\200uy\206\213\202wx\204\212\202vw\203\213\204xw\201"
 1622      8B827778 
 1622      848A8276 
 1622      77838B84 
 1622      787781
 1623 1d84 89837775 		.ascii	"\211\203wu\200\212\206zu\200\211\205ys~\211\210}t}\210"
 1623      808A867A 
 1623      75808985 
 1623      79737E89 
 1623      887D747D 
 1624 1d99 877C737C 		.ascii	"\207|s|\210\210~tz\207\211\177ty\206\213\201wz\205\211"
 1624      88887E74 
 1624      7A87897F 
 1624      7479868B 
 1624      81777A85 
 1625 1dae 81767885 		.ascii	"\201vx\205\214\204xw\204\213\204yv\203\214\207zw\202"
 1625      8C847877 
 1625      848B8479 
 1625      76838C87 
 1625      7A7782
 1626 1dc1 8B877A75 		.ascii	"\213\207zu\200\213\210}v\200\212\210|t~\211\212\177"
 1626      808B887D 
 1626      76808A88 
 1626      7C747E89 
 1626      8A7F
 1627 1dd3 757C8788 		.ascii	"u|\207\210~tz\207\212\200uy\205\212\200tv\202\211\202"
 1627      7E747A87 
 1627      8A807579 
 1627      858A8074 
 1627      76828982 
 1628 1de7 77778188 		.ascii	"ww\201\210\202ut\200\212\205xt\200\211\206xt~\211\210"
 1628      82757480 
 1628      8A857874 
 1628      80898678 
 1628      747E8988 
 1629 1dfb 7B757E89 		.ascii	"{u~\211\211}t|\210\213\200v|\210\213\200uz\207\215\202"
 1629      897D747C 
 1629      888B8076 
 1629      7C888B80 
 1629      757A878D 
 1630 1e10 7779858C 		.ascii	"wy\205\214\203vx\204\215\206xw\203\215\207xu\200\214"
 1630      83767884 
 1630      8D867877 
 1630      838D8778 
ARM GAS  C:\Users\LY\AppData\Local\Temp\ccbRkbv2.s 			page 66


 1630      75808C
 1631 1e23 897B767F 		.ascii	"\211{v\177\212\210zt}\212\213}t|\210\212~tz\207\214"
 1631      8A887A74 
 1631      7D8A8B7D 
 1631      747C888A 
 1631      7E747A87 
 1632 1e38 80757886 		.ascii	"\200ux\206\214\201uw\204\215\204xw\203\215\205xv\202"
 1632      8C817577 
 1632      848D8478 
 1632      77838D85 
 1632      787682
 1633 1e4b 8E897B76 		.ascii	"\216\211{v\200\214\211|v\200\214\213~v~\213\214\177"
 1633      808C897C 
 1633      76808C8B 
 1633      7E767E8B 
 1633      8C7F
 1634 1e5d 757B888D 		.ascii	"u{\210\215\201wy\206\213\201vw\205\214\203wv\201\212"
 1634      81777986 
 1634      8B817677 
 1634      858C8377 
 1634      76818A
 1635 1e70 84777480 		.ascii	"\204wt\200\213\206yt\177\211\206zs}\211\211}t{\207\211"
 1635      8B867974 
 1635      7F89867A 
 1635      737D8989 
 1635      7D747B87 
 1636 1e85 7E747A87 		.ascii	"~tz\207\214\200vx\205\213\202vx\205\214\204xw\203\214"
 1636      8C807678 
 1636      858B8276 
 1636      78858C84 
 1636      7877838C 
 1637 1e99 86797681 		.ascii	"\206yv\201\214\211|v\200\212\210{u~\212\212~t{\207\212"
 1637      8C897C76 
 1637      808A887B 
 1637      757E8A8A 
 1637      7E747B87 
 1638 1eae 7F747986 		.ascii	"\177ty\206\213\200tw\204\212\201tu\202\213\204vt\200"
 1638      8B807477 
 1638      848A8174 
 1638      75828B84 
 1638      767480
 1639 1ec1 8A847774 		.ascii	"\212\204wt\200\213\210zs~\212\211|t}\212\213~t{\211"
 1639      808B887A 
 1639      737E8A89 
 1639      7C747D8A 
 1639      8B7E747B 
 1640 1ed6 8C807379 		.ascii	"\214\200sy\210\216\202uw\205\214\203uv\204\216\206v"
 1640      888E8275 
 1640      77858C83 
 1640      7576848E 
 1640      8676
 1641 1ee8 74818D87 		.ascii	"t\201\215\207xs\200\215\211zr~\213\212zq|\212\214}r"
 1641      7873808D 
 1641      897A727E 
 1641      8B8A7A71 
 1641      7C8A8C7D 
 1642 1efd 78888C7E 		.ascii	"x\210\214~qw\207\215\200ru\204\215\203st\204\217\206"
ARM GAS  C:\Users\LY\AppData\Local\Temp\ccbRkbv2.s 			page 67


 1642      7177878D 
 1642      80727584 
 1642      8D837374 
 1642      848F86
 1643 1f10 7573828F 		.ascii	"us\202\217\207vr\200\217\213zr~\215\214{r}\215\217~"
 1643      87767280 
 1643      8F8B7A72 
 1643      7E8D8C7B 
 1643      727D8D8F 
 1644 1f25 727A8B8F 		.ascii	"rz\213\217\200rx\211\220\202sw\207\220\204tu\205\221"
 1644      80727889 
 1644      90827377 
 1644      87908474 
 1644      758591
 1645 1f38 87767381 		.ascii	"\207vs\201\217\207vr"
 1645      8F877672 
 1646 1f40 808F8A78 		.ascii	"\200\217\212xp}\215\213zp{\215\215|py\213\215~px\212"
 1646      707D8D8B 
 1646      7A707B8D 
 1646      8D7C7079 
 1646      8B8D7E70 
 1647 1f56 90807276 		.ascii	"\220\200rv\207\217\201ru\207\221\205tr\203\220\207v"
 1647      878F8172 
 1647      75879185 
 1647      74728390 
 1647      8776
 1648 1f68 72829088 		.ascii	"r\202\220\210wq\200\217\211xp~\217\214zp{\214\214|p"
 1648      7771808F 
 1648      8978707E 
 1648      8F8C7A70 
 1648      7B8C8C7C 
 1649 1f7d 7A8C8E7F 		.ascii	"z\214\216\177pw\212\217\200qv\211\220\202rt\207\220"
 1649      70778A8F 
 1649      80717689 
 1649      90827274 
 1649      8790
 1650 1f8f 84737385 		.ascii	"\204ss\205\221\207ur\202\217\207wr\201\220\212xo~\216"
 1650      91877572 
 1650      828F8777 
 1650      7281908A 
 1650      786F7E8E 
 1651 1fa3 8B796F7C 		.ascii	"\213yo|\215\214|pz\213\215|oy\213\217\200pv\210\216"
 1651      8D8C7C70 
 1651      7A8B8D7C 
 1651      6F798B8F 
 1651      80707688 
 1652 1fb8 81717587 		.ascii	"\201qu\207\217\202rs\204\217\205tr\202\216\206uq\200"
 1652      8F827273 
 1652      848F8574 
 1652      72828E86 
 1652      757180
 1653 1fcb 8D887670 		.ascii	"\215\210vp\177\216\212yp|\213\212{q|\214\215}pz\212"
 1653      7F8E8A79 
 1653      707C8B8A 
 1653      7B717C8C 
 1653      8D7D707A 
 1654 1fe0 8D7F7279 		.ascii	"\215\177ry\211\216\201sx\210\216\202tw\206\217\205v"
ARM GAS  C:\Users\LY\AppData\Local\Temp\ccbRkbv2.s 			page 68


 1654      898E8173 
 1654      78888E82 
 1654      7477868F 
 1654      8576
 1655 1ff2 75838E86 		.ascii	"u\203\216\206wu\203\216\210ws\200\214\211ys\177\214"
 1655      7775838E 
 1655      88777380 
 1655      8C897973 
 1655      7F8C
 1656 2004 8A7B737D 		.ascii	"\212{s}\212\212{s|\212\213~sz\210\213\177sy\207\214"
 1656      8A8A7B73 
 1656      7C8A8B7E 
 1656      737A888B 
 1656      7F737987 
 1657 2019 80747785 		.ascii	"\200tw\205\213\201uv\203\214\202vv\202\213\204wu\201"
 1657      8B817576 
 1657      838C8276 
 1657      76828B84 
 1657      777581
 1658 202c 8B867975 		.ascii	"\213\206yu\200\212\206zv\200\213\210{u\177\212\212~"
 1658      808A867A 
 1658      76808B88 
 1658      7B757F8A 
 1658      8A7E
 1659 203e 767E898A 		.ascii	"v~\211\212\177w|\210\212\200v{\207\213\201wz\205\212"
 1659      7F777C88 
 1659      8A80767B 
 1659      878B8177 
 1659      7A858A
 1660 2051 81787A84 		.ascii	"\201xz\204\212\202xx\202\212\203xw\201\211\204yx\200"
 1660      8A827878 
 1660      828A8378 
 1660      77818984 
 1660      797880
 1661 2064 88857A77 		.ascii	"\210\205zw\200\211\207|w\177\210\207}x\177\210\210~"
 1661      8089877C 
 1661      777F8887 
 1661      7D787F88 
 1661      887E
 1662 2076 787D8788 		.ascii	"x}\207\210\177x}\206\210\200x|\204\207\200x{\204\210"
 1662      7F787D86 
 1662      8880787C 
 1662      84878078 
 1662      7B8488
 1663 2089 81797A82 		.ascii	"\201yz\202\206\201yz\202\207\202yy\201\207\203zy\200"
 1663      8681797A 
 1663      82878279 
 1663      79818783 
 1663      7A7980
 1664 209c 87847C79 		.ascii	"\207\204|y\200\206\204|y\200\210\206~y\177\206\206\177"
 1664      8086847C 
 1664      79808886 
 1664      7E797F86 
 1664      867F
 1665 20ae 7B808787 		.ascii	"{\200\207\207\200{\177\206\210\200z~\205\210\200{}\204"
 1665      807B7F86 
 1665      88807A7E 
ARM GAS  C:\Users\LY\AppData\Local\Temp\ccbRkbv2.s 			page 69


 1665      8588807B 
 1665      7D84
 1666 20c0 87807B7C 		.ascii	"\207\200{|\204\207\202{{\202\206\201{{\201\206\202{"
 1666      8487827B 
 1666      7B828681 
 1666      7B7B8186 
 1666      827B
 1667 20d2 79808582 		.ascii	"y\200\205\202{y\200\204\202|y\177\204\202{x\177\205"
 1667      7B798084 
 1667      827C797F 
 1667      84827B78 
 1667      7F85
 1668 20e4 837D797D 		.ascii	"\203}y}\203\203~z~\204\205\177z~\204\206\200{}\204\206"
 1668      83837E7A 
 1668      7E84857F 
 1668      7A7E8486 
 1668      807B7D84 
 1669 20f9 817C7D83 		.ascii	"\201|}\203\206\201|}\203\207\202}|\201\205\202}|\201"
 1669      86817C7D 
 1669      8387827D 
 1669      7C818582 
 1669      7D7C81
 1670 210c 86837D7B 		.ascii	"\206\203}{\200\205\203}{\200\204\204~{\200\204\203}"
 1670      8085837D 
 1670      7B808484 
 1670      7E7B8084 
 1670      837D
 1671 211e 7A7F8484 		.ascii	"z\177\204\204~z}\203\203\177{}\202\204\177{}\202\204"
 1671      7E7A7D83 
 1671      837F7B7D 
 1671      82847F7B 
 1671      7D8284
 1672 2131 807B7C82 		.ascii	"\200{|\202\204\201||\201\204\200|}\201\206\202~|\200"
 1672      84817C7C 
 1672      8184807C 
 1672      7D818682 
 1672      7E7C80
 1673 2144 84827E7D 		.ascii	"\204\202~}\200\205\204~|\200\205\204\177}\177\204\204"
 1673      8085847E 
 1673      7C808584 
 1673      7F7D7F84 
 1673      84
 1674 2155 807D7F84 		.ascii	"\200}\177\204\204\200}\177\204\206\200}~\203\205\201"
 1674      84807D7F 
 1674      8486807D 
 1674      7E838581 
 1675 2165 7D7E8285 		.ascii	"}~\202\205\201}}\201\205\201}}\200\204\202~}\200\203"
 1675      817D7D81 
 1675      85817D7D 
 1675      8084827E 
 1675      7D8083
 1676 2178 827E7D80 		.ascii	"\202~}\200\204\203\177|\177\203\203\177}\177\203\204"
 1676      84837F7C 
 1676      7F83837F 
 1676      7D7F8384 
 1677 2188 807D7E82 		.ascii	"\200}~\202\203\200}}\202\203\200~}\200\202\200}}\200"
 1677      83807D7D 
ARM GAS  C:\Users\LY\AppData\Local\Temp\ccbRkbv2.s 			page 70


 1677      8283807E 
 1677      7D808280 
 1677      7D7D80
 1678 219b 83817D7C 		.ascii	"\203\201}|\200\202\200~|\177\202\201\177|~\201\201~"
 1678      8082807E 
 1678      7C7F8281 
 1678      7F7C7E81 
 1678      817E
 1679 21ad 7C7E8183 		.ascii	"|~\201\203\200}}\200\202\200}~\201\203\200~}\200\202"
 1679      807D7D80 
 1679      82807D7E 
 1679      8183807E 
 1679      7D8082
 1680 21c0 817F7E80 		.ascii	"\201\177~\200\203\202\177~\200\203\202\200~\200\203"
 1680      83827F7E 
 1680      80838280 
 1680      7E8083
 1681 21cf 84817F7F 		.ascii	"\204\201\177\177\202\202\200~\177\202\204\201~~\200"
 1681      8282807E 
 1681      7F828481 
 1681      7E7E80
 1682 21de 82817E7D 		.ascii	"\202\201~}\200\202\201\177}\200\201\201~|\177\201\202"
 1682      8082817F 
 1682      7D808181 
 1682      7E7C7F81 
 1682      82
 1683 21ef 7F7C7E80 		.ascii	"\177|~\200\201\177|~\200\202\200|}\200\202\200}}\200"
 1683      817F7C7E 
 1683      8082807C 
 1683      7D808280 
 1683      7D7D80
 1684 2202 83817E7D 		.ascii	"\203\201~}\200\203\202\177}\200\204\204\177}\200\203"
 1684      8083827F 
 1684      7D808484 
 1684      7F7D8083 
 1685 2212 84807E80 		.ascii	"\204\200~\200\204\205\200}~\203\205\200}~\202\205\201"
 1685      8485807D 
 1685      7E838580 
 1685      7D7E8285 
 1685      81
 1686 2223 7C7D8184 		.ascii	"|}\201\204\202||\201\205\203|{\200\204\202}z\177\205"
 1686      827C7C81 
 1686      85837C7B 
 1686      8084827D 
 1686      7A7F85
 1687 2236 847D797E 		.ascii	"\204}y~\204\204\177z}\204\205\200z}\204\206\200z}\204"
 1687      84847F7A 
 1687      7D848580 
 1687      7A7D8486 
 1687      807A7D84 
 1688 224a 88827B7B 		.ascii	"\210\202{{\203\210\203||\203\211\204|z\201\211\206}"
 1688      8388837C 
 1688      7C838984 
 1688      7C7A8189 
 1688      867D
 1689 225c 7A808987 		.ascii	"z\200\211\207~z\200\210\207\177z\177\210\210\200y}\206"
 1689      7E7A8088 
ARM GAS  C:\Users\LY\AppData\Local\Temp\ccbRkbv2.s 			page 71


 1689      877F7A7F 
 1689      88888079 
 1689      7D86
 1690 226e 8880797C 		.ascii	"\210\200y|\206\211\200xz\204\211\201yy\203\211\202y"
 1690      86898078 
 1690      7A848981 
 1690      79798389 
 1690      8279
 1691 2280 78828983 		.ascii	"x\202\211\203yw\200\211\205zv\177\210\206|w\177\211"
 1691      79778089 
 1691      857A767F 
 1691      88867C77 
 1691      7F89
 1692 2292 877D757E 		.ascii	"\207}u~\210\211\177w}\210\211\200v{\206\212\200vz\206"
 1692      88897F77 
 1692      7D888980 
 1692      767B868A 
 1692      80767A86 
 1693 22a6 8A817577 		.ascii	"\212\201uw\203\211\202vw\202\211\202vt\200\211\204w"
 1693      83898276 
 1693      77828982 
 1693      76748089 
 1693      8477
 1694 22b8 74808985 		.ascii	"t\200\211\205xs~\211\206ys~\211\210{r{\210\211}t|\210"
 1694      78737E89 
 1694      8679737E 
 1694      89887B72 
 1694      7B88897D 
 1695 22cf 8A7E737A 		.ascii	"\212~sz\210\214\200ty\207\215\203vx\206\216\204wx\205"
 1695      888C8074 
 1695      79878D83 
 1695      7678868E 
 1695      84777885 
 1696 22e3 8E867776 		.ascii	"\216\206wv\203\216\210yv\202\216\211yt\200\214\212{"
 1696      838E8879 
 1696      76828E89 
 1696      7974808C 
 1696      8A7B
 1697 22f5 737E8B8A 		.ascii	"s~\213\212{q{\210\211|qy\210\213}ov\205\212\177qv\205"
 1697      7B717B88 
 1697      897C7179 
 1697      888B7D6F 
 1697      76858A7F 
 1698 230c 8C807174 		.ascii	"\214\200qt\204\214\203st\203\215\205ut\201\215\207w"
 1698      848C8373 
 1698      74838D85 
 1698      7574818D 
 1698      8777
 1699 231e 74818E89 		.ascii	"t\201\216\211xs\200\215\213{t\177\215\214|s}\214\215"
 1699      7873808D 
 1699      8B7B747F 
 1699      8D8C7C73 
 1699      7D8C8D
 1700 2331 7E747C8B 		.ascii	"~t|\213\216\200tz\211\216\200ty\210\220\203tw\206\217"
 1700      8E80747A 
 1700      898E8074 
 1700      79889083 
ARM GAS  C:\Users\LY\AppData\Local\Temp\ccbRkbv2.s 			page 72


 1700      7477868F 
 1701 2345 84767785 		.ascii	"\204vw\205\217\205ut\202\216\207wt\200\216\210xr\177"
 1701      8F857574 
 1701      828E8777 
 1701      74808E88 
 1701      78727F
 1702 2358 8C887972 		.ascii	"\214\210yr~\214\212zq{\212\213|r{\212\214~ry\211\216"
 1702      7E8C8A7A 
 1702      717B8A8B 
 1702      7C727B8A 
 1702      8C7E7279 
 1703 236e 80737887 		.ascii	"\200sx\207\216\201sv\206\216\202tu\204\216\204tt\202"
 1703      8E817376 
 1703      868E8274 
 1703      75848E84 
 1703      747482
 1704 2381 8D857674 		.ascii	"\215\205vt\201\215\207vr\200\215\211xr~\215\212zr}\214"
 1704      818D8776 
 1704      72808D89 
 1704      78727E8D 
 1704      8A7A727D 
 1705 2396 8B7C737C 		.ascii	"\213|s|\214\215~sz\212\215\200tz\212\217\201tx\210\217"
 1705      8C8D7E73 
 1705      7A8A8D80 
 1705      747A8A8F 
 1705      81747888 
 1706 23ab 83757786 		.ascii	"\203uw\206\217\204vv\204\217\205wu\203\216\207wr\200"
 1706      8F847676 
 1706      848F8577 
 1706      75838E87 
 1706      777280
 1707 23be 8D887872 		.ascii	"\215\210xr\177\213\210xq|\213\211ypz\211\211{px\207"
 1707      7F8B8878 
 1707      717C8B89 
 1707      79707A89 
 1707      897B7078 
 1708 23d3 897D7177 		.ascii	"\211}qw\207\212~qu\205\213\200su\204\214\202tt\204\215"
 1708      878A7E71 
 1708      75858B80 
 1708      7375848C 
 1708      82747484 
 1709 23e8 84767582 		.ascii	"\204vu\202\216\207yu\202\216\210zu\201\217\212|u\200"
 1709      8E877975 
 1709      828E887A 
 1709      75818F8A 
 1709      7C7580
 1710 23fb 8D8B7E76 		.ascii	"\215\213~v\177\215\214~u}\213\214\177t{\211\213\200"
 1710      7F8D8C7E 
 1710      757D8B8C 
 1710      7F747B89 
 1710      8B80
 1711 240d 7479878B 		.ascii	"ty\207\213\200tw\205\213\201tu\203\212\202uu\202\212"
 1711      80747785 
 1711      8B817475 
 1711      838A8275 
 1711      75828A
 1712 2420 83757481 		.ascii	"\203ut\201\213\205xt\200\213\206yu\200\213\210{u\177"
ARM GAS  C:\Users\LY\AppData\Local\Temp\ccbRkbv2.s 			page 73


 1712      8B857874 
 1712      808B8679 
 1712      75808B88 
 1712      7B757F
 1713 2433 8B8A7D75 		.ascii	"\213\212}u}\212\212\177v}\212\213\200u{\210\213\200"
 1713      7D8A8A7F 
 1713      767D8A8B 
 1713      80757B88 
 1713      8B80
 1714 2445 757A868B 		.ascii	"uz\206\213\201vy\205\213\202vx\204\213\204xw\202\213"
 1714      81767985 
 1714      8B827678 
 1714      848B8478 
 1714      77828B
 1715 2458 85797882 		.ascii	"\205yx\202\213\206zw\201\213\207{w\200\212\210|w\177"
 1715      8B867A77 
 1715      818B877B 
 1715      77808A88 
 1715      7C777F
 1716 246b 89897D77 		.ascii	"\211\211}w~\210\211\177w|\207\211\200x|\206\211\200"
 1716      7E88897F 
 1716      777C8789 
 1716      80787C86 
 1716      8980
 1717 247d 777A8589 		.ascii	"wz\205\211\201wy\203\210\201xy\202\210\202xx\202\211"
 1717      81777983 
 1717      88817879 
 1717      82888278 
 1717      788289
 1718 2490 83797881 		.ascii	"\203yx\201\210\205{x\200\210\205{x\200\210\206}x\177"
 1718      88857B78 
 1718      8088857B 
 1718      78808886 
 1718      7D787F
 1719 24a3 87867E78 		.ascii	"\207\206~x\177\207\207~x}\206\207\177x|\205\210\200"
 1719      7F87877E 
 1719      787D8687 
 1719      7F787C85 
 1719      8880
 1720 24b5 797C8487 		.ascii	"y|\204\207\200y{\203\210\202y{\203\207\202{{\202\207"
 1720      80797B83 
 1720      8882797B 
 1720      8387827B 
 1720      7B8287
 1721 24c8 837B7A81 		.ascii	"\203{z\201\210\204{y\200\207\204|y\200\206\204|x~\205"
 1721      88847B79 
 1721      8087847C 
 1721      79808684 
 1721      7C787E85 
 1722 24dc 847C787D 		.ascii	"\204|x}\204\204}x}\203\204}x|\203\204~x{\202\205\200"
 1722      84847D78 
 1722      7D83847D 
 1722      787C8384 
 1722      7E787B82 
 1723 24f2 797C8285 		.ascii	"y|\202\205\200z|\203\206\201{|\202\207\202||\202\207"
 1723      807A7C83 
 1723      86817B7C 
ARM GAS  C:\Users\LY\AppData\Local\Temp\ccbRkbv2.s 			page 74


 1723      8287827C 
 1723      7C8287
 1724 2505 837D7C82 		.ascii	"\203}|\202\207\204}|\201\207\204}|\200\206\204~{\200"
 1724      87847D7C 
 1724      8187847D 
 1724      7C808684 
 1724      7E7B80
 1725 2518 85857E7B 		.ascii	"\205\205~{\177\204\204~{~\204\204~z}\203\204\177z}\202"
 1725      7F84847E 
 1725      7B7E8484 
 1725      7E7A7D83 
 1725      847F7A7D 
 1726 252d 847F7A7D 		.ascii	"\204\177z}\202\204\177z|\202\205\200{|\201\205\201|"
 1726      82847F7A 
 1726      7C828580 
 1726      7B7C8185 
 1726      817C
 1727 253f 7D818582 		.ascii	"}\201\205\202}}\201\206\203}|\200\206\203~|\200\205"
 1727      7D7D8186 
 1727      837D7C80 
 1727      86837E7C 
 1727      8085
 1728 2551 837E7C80 		.ascii	"\203~|\200\205\204\177{\177\203\203~{~\203\203\177{"
 1728      85847F7B 
 1728      7F83837E 
 1728      7B7E8383 
 1728      7F7B
 1729 2563 7E83837F 		.ascii	"~\203\203\177{}\202\203\200{}\202\204\200{|\202\204"
 1729      7B7D8283 
 1729      807B7D82 
 1729      84807B7C 
 1729      8284
 1730 2575 807C7C81 		.ascii	"\200||\201\204\201}}\201\205\202}|\200\204\202~}\200"
 1730      84817D7D 
 1730      8185827D 
 1730      7C808482 
 1730      7E7D80
 1731 2588 85837E7D 		.ascii	"\205\203~}\200\205\204\177~\200\205\205\200~\200\204"
 1731      8085847F 
 1731      7E808585 
 1731      807E8084 
 1732 2598 85807E80 		.ascii	"\205\200~\200\204\205\200}\177\203\204\200|~\202\203"
 1732      8485807D 
 1732      7F838480 
 1732      7C7E8283 
 1733 25a8 807C7D81 		.ascii	"\200|}\201\202\200||\201\203\200||\200\203\200}}\200"
 1733      82807C7C 
 1733      8183807C 
 1733      7C808380 
 1733      7D7D80
 1734 25bb 83817D7D 		.ascii	"\203\201}}\200\203\201~}\200\204\202\177}\200\203\202"
 1734      8083817E 
 1734      7D808482 
 1734      7F7D8083 
 1734      82
 1735 25cc 7F7E8084 		.ascii	"\177~\200\204\203\200~\200\203\203\200~\200\203\204"
 1735      83807E80 
ARM GAS  C:\Users\LY\AppData\Local\Temp\ccbRkbv2.s 			page 75


 1735      8383807E 
 1735      808384
 1736 25db 807E7F82 		.ascii	"\200~\177\202\203\200~\177\202\203\200~\177\201\202"
 1736      83807E7F 
 1736      8283807E 
 1736      7F8182
 1737 25ea 807E7F81 		.ascii	"\200~\177\201\203\200}}\200\201\200~~\200\202\200~}"
 1737      83807D7D 
 1737      8081807E 
 1737      7E808280 
 1737      7E7D
 1738 25fc 8081807E 		.ascii	"\200\201\200~}\200\202\201\177}\200\201\201\177~\200"
 1738      7D808281 
 1738      7F7D8081 
 1738      817F7E80 
 1739 260c 8282807F 		.ascii	"\202\202\200\177\200\202\201\200\177\200\203\203\200"
 1739      80828180 
 1739      7F808383 
 1739      80
 1740 2619 7F808283 		.ascii	"\177\200\202\203\200\177\200\202\203\200\177\177\201"
 1740      807F8082 
 1740      83807F7F 
 1740      81
 1741 2626 82807F7F 		.ascii	"\202\200\177\177\201\202\200~~\200\201\200~~\200\201"
 1741      8182807E 
 1741      7E808180 
 1741      7E7E8081 
 1742 2636 807E7D80 		.ascii	"\200~}\200\200\200\177~\200\201\200\177~\200\200\200"
 1742      80807F7E 
 1742      8081807F 
 1742      7E808080 
 1743 2646 7F7E8081 		.ascii	"\177~\200\201\200\177~\200\200\200\200\177\200\201\202"
 1743      807F7E80 
 1743      8080807F 
 1743      808182
 1744 2655 807F8081 		.ascii	"\200\177\200\201\201\200\200\200\201\202\200\200\200"
 1744      81808080 
 1744      81828080 
 1744      80
 1745 2662 8081807F 		.ascii	"\200\201\200\177\200\201\202\200\177\177\200\200\200"
 1745      80818280 
 1745      7F7F8080 
 1745      80
 1746 266f 807F8080 		.ascii	"\200\177\200\200\200\177~\200\200\200\177\177\200\200"
 1746      807F7E80 
 1746      80807F7F 
 1746      8080
 1747 267d 807F7F80 		.ascii	"\200\177\177\200\200\200\200\200\200\200\200\200\200"
 1747      80808080 
 1747      80808080 
 1747      80
 1748 268a 80808080 		.ascii	"\200\200\200\200\200\200\201\201\200\200\200\201\201"
 1748      80808181 
 1748      80808081 
 1748      81
 1749 2697 80808082 		.ascii	"\200\200\200\202\201\200\200\200\201\201\200\200\200"
 1749      81808080 
ARM GAS  C:\Users\LY\AppData\Local\Temp\ccbRkbv2.s 			page 76


 1749      81818080 
 1749      80
 1750 26a4 81818080 		.ascii	"\201\201\200\200\200\200\201\200\200\200\201\201\200"
 1750      80808180 
 1750      80808181 
 1750      80
 1751 26b1 80808080 		.ascii	"\200\200\200\200\200\200\200\200\201\200\177\200\200"
 1751      80808080 
 1751      81807F80 
 1751      80
 1752 26be 80808080 		.ascii	"\200\200\200\200\200\200\200\200\200\200\200\200\177"
 1752      80808080 
 1752      80808080 
 1752      7F
 1753 26cb 7F808080 		.ascii	"\177\200\200\200\177~\200\200\200\177\177\200\200\200"
 1753      7F7E8080 
 1753      807F7F80 
 1753      8080
 1754 26d9 7F7E8080 		.ascii	"\177~\200\200\200\177\177\200\200\200\200\177\200\200"
 1754      807F7F80 
 1754      8080807F 
 1754      8080
 1755 26e7 807F7F80 		.ascii	"\200\177\177\200\201\201\200\200\200\200\200\200\200"
 1755      81818080 
 1755      80808080 
 1755      80
 1756 26f4 80818280 		.ascii	"\200\201\202\200\200\200\201\201\200\200\200\202\202"
 1756      80808181 
 1756      80808082 
 1756      82
 1757 2701 81808081 		.ascii	"\201\200\200\201\201\200\200\200\201\202\200\200\200"
 1757      81808080 
 1757      81828080 
 1757      80
 1758 270e 8080     		.ascii	"\200\200"
 1759 2710 80808080 		.ascii	"\200\200\200\200\201\200\177\200\200\200\200\177\177"
 1759      81807F80 
 1759      8080807F 
 1759      7F
 1760 271d 80808080 		.ascii	"\200\200\200\200\177\200\200\200\177~\200\200\200\200"
 1760      7F808080 
 1760      7F7E8080 
 1760      8080
 1761 272b 7F7F8080 		.ascii	"\177\177\200\200\200\177\200\200\200\200\177\177\200"
 1761      807F8080 
 1761      80807F7F 
 1761      80
 1762 2738 80807F80 		.ascii	"\200\200\177\200\200\201\200\200\200\200\200\200\177"
 1762      80818080 
 1762      80808080 
 1762      7F
 1763 2745 80808180 		.ascii	"\200\200\201\200\200\200\200\200\200\200\200\200\201"
 1763      80808080 
 1763      80808080 
 1763      81
 1764 2752 80808080 		.ascii	"\200\200\200\200\200\200\200\200\200\200\201\200\200"
 1764      80808080 
ARM GAS  C:\Users\LY\AppData\Local\Temp\ccbRkbv2.s 			page 77


 1764      80808180 
 1764      80
 1765 275f 80808080 		.ascii	"\200\200\200\200\200\200\201\201\200\200\200\200\200"
 1765      80808181 
 1765      80808080 
 1765      80
 1766 276c 80808080 		.ascii	"\200\200\200\200\201\200\200\200\200\200\200\200\200"
 1766      81808080 
 1766      80808080 
 1766      80
 1767 2779 80808080 		.ascii	"\200\200\200\200\200\200\200\200\200\200\200\200\200"
 1767      80808080 
 1767      80808080 
 1767      80
 1768 2786 807F7F80 		.ascii	"\200\177\177\200\200\200\177\200\200\200\200\200\177"
 1768      80807F80 
 1768      80808080 
 1768      7F
 1769 2793 80808080 		.ascii	"\200\200\200\200\200\200\200\200\200\200\200\200\200"
 1769      80808080 
 1769      80808080 
 1769      80
 1770 27a0 80808080 		.ascii	"\200\200\200\200\200\200\200\200\200\200\201\200\200"
 1770      80808080 
 1770      80808180 
 1770      80
 1771 27ad 80808180 		.ascii	"\200\200\201\200\200\200\200\201\200\200\200\200\201"
 1771      80808081 
 1771      80808080 
 1771      81
 1772 27ba 80808080 		.ascii	"\200\200\200\200\200\200\200\200\200\201\200\200\177"
 1772      80808080 
 1772      80818080 
 1772      7F
 1773 27c7 80808080 		.ascii	"\200\200\200\200\200\200\200\200\200~\177\200\200\200"
 1773      80808080 
 1773      807E7F80 
 1773      8080
 1774 27d5 7F7F8080 		.ascii	"\177\177\200\200\200~~\200\200\200\200\177\200\200\200"
 1774      807E7E80 
 1774      8080807F 
 1774      808080
 1775 27e4 7F7D8081 		.ascii	"\177}\200\201\200\177~\200\201\200\177~\177\201\202"
 1775      807F7E80 
 1775      81807F7E 
 1775      7F8182
 1776 27f3 807E8082 		.ascii	"\200~\200\202\202\200~\177\201\203\200\177\177\201\203"
 1776      82807E7F 
 1776      8183807F 
 1776      7F8183
 1777 2802 807E7E81 		.ascii	"\200~~\201\203\201\177\177\200\203\201~~\200\203\202"
 1777      83817F7F 
 1777      8083817E 
 1777      7E808382 
 1778 2812 7F7E8083 		.ascii	"\177~\200\203\202\177}\200\203\203\200}\177\203\202"
 1778      827F7D80 
 1778      8383807D 
ARM GAS  C:\Users\LY\AppData\Local\Temp\ccbRkbv2.s 			page 78


 1778      7F8382
 1779 2821 7F7C7F82 		.ascii	"\177|\177\202\203\200}~\202\203\200|}\201\204\201}}"
 1779      83807D7E 
 1779      8283807C 
 1779      7D818481 
 1779      7D7D
 1780 2833 8284817C 		.ascii	"\202\204\201||\200\204\203~}\200\204\202~|\200\205\204"
 1780      7C808483 
 1780      7E7D8084 
 1780      827E7C80 
 1780      8584
 1781 2845 7F7C8084 		.ascii	"\177|\200\204\203\177{\177\204\204\177|\177\203\204"
 1781      837F7B7F 
 1781      84847F7C 
 1781      7F8384
 1782 2854 7F7A7D83 		.ascii	"\177z}\203\205\200{}\202\204\200z{\201\205\201{{\200"
 1782      85807B7D 
 1782      8284807A 
 1782      7B818581 
 1782      7B7B80
 1783 2867 84817B7A 		.ascii	"\204\201{z\200\205\202|{\200\205\202|z\177\205\204~"
 1783      8085827C 
 1783      7B808582 
 1783      7C7A7F85 
 1783      847E
 1784 2879 7B7F8484 		.ascii	"{\177\204\204}z~\205\205\200{~\204\205\177z}\204\206"
 1784      7D7A7E85 
 1784      85807B7E 
 1784      84857F7A 
 1784      7D8486
 1785 288c 807B7D83 		.ascii	"\200{}\203\206\200z{\202\207\202|{\201\206\201zz\200"
 1785      86807A7B 
 1785      8287827C 
 1785      7B818681 
 1785      7A7A80
 1786 289f 86837C7A 		.ascii	"\206\203|z\200\205\203{x\177\205\203}y\177\205\204|"
 1786      8085837B 
 1786      787F8583 
 1786      7D797F85 
 1786      847C
 1787 28b1 787E8585 		.ascii	"x~\205\205\177z}\204\205\177y}\204\206\200z|\203\207"
 1787      7F7A7D84 
 1787      857F797D 
 1787      8486807A 
 1787      7C8387
 1788 28c4 807A7C83 		.ascii	"\200z|\203\210\202||\202\210\203{{\202\210\204}{\201"
 1788      88827C7C 
 1788      8288837B 
 1788      7B828884 
 1788      7D7B81
 1789 28d7 87847C7A 		.ascii	"\207\204|z\200\210\206\177z\177\207\206~z\177\206\207"
 1789      8088867F 
 1789      7A7F8786 
 1789      7E7A7F86 
 1789      87
 1790 28e8 807A7E85 		.ascii	"\200z~\205\206\200y}\205\210\201{}\204\207\201{|\204"
 1790      8680797D 
ARM GAS  C:\Users\LY\AppData\Local\Temp\ccbRkbv2.s 			page 79


 1790      8588817B 
 1790      7D848781 
 1790      7B7C84
 1791 28fb 89827B7C 		.ascii	"\211\202{|\202\210\203{{\201\210\204|z\200\207\204|"
 1791      8288837B 
 1791      7B818884 
 1791      7C7A8087 
 1791      847C
 1792 290d 79808785 		.ascii	"y\200\207\205}y\177\205\204|x}\205\205~x}\204\206\177"
 1792      7D797F85 
 1792      847C787D 
 1792      85857E78 
 1792      7D84867F 
 1793 2921 787C8486 		.ascii	"x|\204\206\200y{\203\206\200xz\203\207\201zz\201\206"
 1793      80797B83 
 1793      8680787A 
 1793      8387817A 
 1793      7A8186
 1794 2934 817A7A81 		.ascii	"\201zz\201\207\203{z\201\207\203|z\200\210\206~z\200"
 1794      87837B7A 
 1794      8187837C 
 1794      7A808886 
 1794      7E7A80
 1795 2947 88867E7A 		.ascii	"\210\206~z\200\210\207\200z\177\206\207\200z~\206\210"
 1795      80888780 
 1795      7A7F8687 
 1795      807A7E86 
 1795      88
 1796 2958 807A7D84 		.ascii	"\200z}\204\207\200z|\204\207\201yz\202\206\200xy\200"
 1796      87807A7C 
 1796      84878179 
 1796      7A828680 
 1796      787980
 1797 296b 86817978 		.ascii	"\206\201yx\200\204\201yw\177\205\203{x\177\205\203|"
 1797      80848179 
 1797      777F8583 
 1797      7B787F85 
 1797      837C
 1798 297d 787E8585 		.ascii	"x~\205\205}x~\205\205~x}\204\206\200z}\204\206\200y"
 1798      7D787E85 
 1798      857E787D 
 1798      8486807A 
 1798      7D848680 
 1799 2992 7C848780 		.ascii	"|\204\207\200z{\203\207\201z{\202\207\202{{\201\207"
 1799      7A7B8387 
 1799      817A7B82 
 1799      87827B7B 
 1799      8187
 1800 29a4 827B7A80 		.ascii	"\202{z\200\206\203|y\200\205\203|y\177\206\204}y~\204"
 1800      86837C79 
 1800      8085837C 
 1800      797F8684 
 1800      7D797E84 
 1801 29b8 847D797E 		.ascii	"\204}y~\205\206\177z~\204\206\200z}\204\207\201{}\204"
 1801      85867F7A 
 1801      7E848680 
 1801      7A7D8487 
ARM GAS  C:\Users\LY\AppData\Local\Temp\ccbRkbv2.s 			page 80


 1801      817B7D84 
 1802 29cc 87817C7D 		.ascii	"\207\201|}\204\211\203}}\203\210\204}}\202\211\205~"
 1802      8489837D 
 1802      7D838884 
 1802      7D7D8289 
 1802      857E
 1803 29de 7C818884 		.ascii	"|\201\210\204}{\200\206\205~{\200\205\204~z\177\205"
 1803      7D7B8086 
 1803      857E7B80 
 1803      85847E7A 
 1803      7F85
 1804 29f0 857F7A7E 		.ascii	"\205\177z~\203\204\177y}\203\205\200z}\203\205\200z"
 1804      83847F79 
 1804      7D838580 
 1804      7A7D8385 
 1804      807A
 1805 2a02 7C828581 		.ascii	"|\202\205\201||\202\205\201{|\201\206\203|{\200\205"
 1805      7C7C8285 
 1805      817B7C81 
 1805      86837C7B 
 1805      8085
 1806 2a14 837D7B80 		.ascii	"\203}{\200\206\204~|\200\205\204~|\200\205\205\200|"
 1806      86847E7C 
 1806      8085847E 
 1806      7C808585 
 1806      807C
 1807 2a26 7F84847F 		.ascii	"\177\204\204\177{~\204\205\200{}\202\204\200|}\202\205"
 1807      7B7E8485 
 1807      807B7D82 
 1807      84807C7D 
 1807      8285
 1808 2a38 817C7D81 		.ascii	"\201|}\201\204\201||\200\205\202}|\200\204\202}|\200"
 1808      84817C7C 
 1808      8085827D 
 1808      7C808482 
 1808      7D7C80
 1809 2a4b 84837E7C 		.ascii	"\204\203~|\200\203\202~{\177\204\203\177{\177\203\203"
 1809      8083827E 
 1809      7B7F8483 
 1809      7F7B7F83 
 1809      83
 1810 2a5c 7F7C7E83 		.ascii	"\177|~\203\204\200}~\202\203\200|}\202\204\201}}\200"
 1810      84807D7E 
 1810      8283807C 
 1810      7D828481 
 1810      7D7D80
 1811 2a6f 83807C7C 		.ascii	"\203\200||\200\203\200|{\200\202\200|{\177\201\201}"
 1811      8083807C 
 1811      7B808280 
 1811      7C7B7F81 
 1811      817D
 1812 2a81 7B7E8180 		.ascii	"{~\201\200}z\177\201\201~{}\200\201\177{~\201\202\177"
 1812      7D7A7F81 
 1812      817E7B7D 
 1812      80817F7B 
 1812      7E81827F 
 1813 2a95 7C7E8182 		.ascii	"|~\201\202\200}~\201\203\201~\177\202\204\201\177\177"
ARM GAS  C:\Users\LY\AppData\Local\Temp\ccbRkbv2.s 			page 81


 1813      807D7E81 
 1813      83817E7F 
 1813      8284817F 
 1813      7F
 1814 2aa6 82858280 		.ascii	"\202\205\202\200\200\201\204\203\200\200\201\204\203"
 1814      80818483 
 1814      80808184 
 1814      83
 1815 2ab3 807F8083 		.ascii	"\200\177\200\203\203\200\177\200\203\203\200~\200\202"
 1815      83807F80 
 1815      8383807E 
 1815      8082
 1816 2ac1 82807E7F 		.ascii	"\202\200~\177\202\202\200~~\200\201\200~~\200\202\200"
 1816      8282807E 
 1816      7E808180 
 1816      7E7E8082 
 1816      80
 1817 2ad2 7E7E8080 		.ascii	"~~\200\200\200~~\200\202\200\177~\200\200\200\177~\200"
 1817      807E7E80 
 1817      82807F7E 
 1817      8080807F 
 1817      7E80
 1818 2ae4 81817F7E 		.ascii	"\201\201\177~\200\201\201\200\177\200\201\201\200\177"
 1818      80818180 
 1818      7F808181 
 1818      807F
 1819 2af2 80808180 		.ascii	"\200\200\201\200\177\200\201\202\201\200\200\200\201"
 1819      7F808182 
 1819      81808080 
 1819      81
 1820 2aff 80808080 		.ascii	"\200\200\200\200\201\200\177\177\200\200\200\200\200"
 1820      81807F7F 
 1820      80808080 
 1820      80
 1821 2b0c 80808080 		.ascii	"\200\200\200\200\177\200\200\200\200\177\200\200\200"
 1821      7F808080 
 1821      807F8080 
 1821      80
 1822 2b19 807F8080 		.ascii	"\200\177\200\200\200\200\200\200\200\202\200\200\200"
 1822      80808080 
 1822      80828080 
 1822      80
 1823 2b26 80818180 		.ascii	"\200\201\201\200\200\201\202\201\200\200\200\201\201"
 1823      80818281 
 1823      80808081 
 1823      81
 1824 2b33 80808081 		.ascii	"\200\200\200\201\202\200\200\200\200\201\200\200\200"
 1824      82808080 
 1824      80818080 
 1824      80
 1825 2b40 80818080 		.ascii	"\200\201\200\200\200\200\200\200\200\200\200\200\200"
 1825      80808080 
 1825      80808080 
 1825      80
 1826 2b4d 7F7E7F80 		.ascii	"\177~\177\200\200\177~\200\200\200\200\177\177\200\200"
 1826      807F7E80 
 1826      8080807F 
ARM GAS  C:\Users\LY\AppData\Local\Temp\ccbRkbv2.s 			page 82


 1826      7F8080
 1827 2b5c 807F7F80 		.ascii	"\200\177\177\200\200\200\177\177\200\200\200\200\177"
 1827      80807F7F 
 1827      80808080 
 1827      7F
 1828 2b69 80808080 		.ascii	"\200\200\200\200\177\200\200\200\200\200\200\201\201"
 1828      7F808080 
 1828      80808081 
 1828      81
 1829 2b76 80808081 		.ascii	"\200\200\200\201\201\200\200\200\201\201\200\200\200"
 1829      81808080 
 1829      81818080 
 1829      80
 1830 2b83 81828080 		.ascii	"\201\202\200\200\200\200\200\200\177\177\200\200\200"
 1830      80808080 
 1830      7F7F8080 
 1830      80
 1831 2b90 7F7E8080 		.ascii	"\177~\200\200\200\177}\177\200\200\177~\177\200\200"
 1831      807F7D7F 
 1831      80807F7E 
 1831      7F8080
 1832 2b9f 7F7D7F80 		.ascii	"\177}\177\200\200\200\177\177\200\200\200\177\177\200"
 1832      80807F7F 
 1832      8080807F 
 1832      7F80
 1833 2bad 80807F7F 		.ascii	"\200\200\177\177\200\201\200\200\177\200\202\201\200"
 1833      80818080 
 1833      7F808281 
 1833      80
 1834 2bba 80808281 		.ascii	"\200\200\202\201\200\177\200\202\202\200\200\200\202"
 1834      807F8082 
 1834      82808080 
 1834      82
 1835 2bc7 82808080 		.ascii	"\202\200\200\200\201\202\200\177\200\201\202\200~\177"
 1835      8182807F 
 1835      80818280 
 1835      7E7F
 1836 2bd5 8082807E 		.ascii	"\200\202\200~\177\200\201\200~~\200\201\200~~\200\201"
 1836      7F808180 
 1836      7E7E8081 
 1836      807E7E80 
 1836      81
 1837 2be6 807E7E80 		.ascii	"\200~~\200\201\201\177\177\200\202\202\200~\200\202"
 1837      81817F7F 
 1837      80828280 
 1837      7E8082
 1838 2bf5 82808080 		.ascii	"\202\200\200\200\202\202\200\200\200\202\203\200\177"
 1838      82828080 
 1838      80828380 
 1838      7F
 1839 2c02 80828380 		.ascii	"\200\202\203\200\177\177\202\202\200\177\177\201\202"
 1839      7F7F8282 
 1839      807F7F81 
 1839      82
 1840 2c0f 807E7E80 		.ascii	"\200~~\200\202\200~~\200\202\201~}\200\202\201\177}"
 1840      82807E7E 
 1840      8082817E 
ARM GAS  C:\Users\LY\AppData\Local\Temp\ccbRkbv2.s 			page 83


 1840      7D808281 
 1840      7F7D
 1841 2c21 8081807E 		.ascii	"\200\201\200~|\177\201\201~}\177\201\201\177|~\201\201"
 1841      7C7F8181 
 1841      7E7D7F81 
 1841      817F7C7E 
 1841      8181
 1842 2c33 807D7F81 		.ascii	"\200}\177\201\202\200~\177\201\203\200\177\177\201\203"
 1842      82807E7F 
 1842      8183807F 
 1842      7F8183
 1843 2c42 817F7F81 		.ascii	"\201\177\177\201\204\201\200\177\201\204\202\177\177"
 1843      8481807F 
 1843      8184827F 
 1843      7F
 1844 2c4f 81848280 		.ascii	"\201\204\202\200\177\200\203\202\177~\200\203\202\200"
 1844      7F808382 
 1844      7F7E8083 
 1844      8280
 1845 2c5d 7E808282 		.ascii	"~\200\202\202\200~\177\202\202\200}\177\201\202\200"
 1845      807E7F82 
 1845      82807D7F 
 1845      818280
 1846 2c6c 7D7E8182 		.ascii	"}~\201\202\200}~\200\202\200}}\200\202\200}}\200\202"
 1846      807D7E80 
 1846      82807D7D 
 1846      8082807D 
 1846      7D8082
 1847 2c7f 817E7D80 		.ascii	"\201~}\200\202\201~~\200\202\201\177}\200\202\202\200"
 1847      82817E7E 
 1847      8082817F 
 1847      7D808282 
 1847      80
 1848 2c90 7D808282 		.ascii	"}\200\202\202\177}\177\202\202\200}\177\202\202\200"
 1848      7F7D7F82 
 1848      82807D7F 
 1848      828280
 1849 2c9f 7D7E8182 		.ascii	"}~\201\202\200}~\200\202\200}}\200\202\200}}\200\201"
 1849      807D7E80 
 1849      82807D7D 
 1849      8082807D 
 1849      7D8081
 1850 2cb2 807D7D80 		.ascii	"\200}}\200\202\200~}\200\202\200~}\200\202\201~}\177"
 1850      82807E7D 
 1850      8082807E 
 1850      7D808281 
 1850      7E7D7F
 1851 2cc5 82827F7D 		.ascii	"\202\202\177}\200\202\202\200~\200\202\202\200~\177"
 1851      80828280 
 1851      7E808282 
 1851      807E7F
 1852 2cd4 8283807E 		.ascii	"\202\203\200~\177\202\203\200~\177\201\203\201\177\177"
 1852      7F828380 
 1852      7E7F8183 
 1852      817F7F
 1853 2ce3 8183817E 		.ascii	"\201\203\201~~\200\202\201~~\200\202\201~}\200\202\201"
 1853      7E808281 
ARM GAS  C:\Users\LY\AppData\Local\Temp\ccbRkbv2.s 			page 84


 1853      7E7E8082 
 1853      817E7D80 
 1853      8281
 1854 2cf5 7F7D8081 		.ascii	"\177}\200\201\201\177}\200\202\201\177}\177\201\201"
 1854      817F7D80 
 1854      82817F7D 
 1854      7F8181
 1855 2d04 807D7F81 		.ascii	"\200}\177\201\202\200~\177\201\202\200~\177\201\203"
 1855      82807E7F 
 1855      8182807E 
 1855      7F8183
 1856 2d13 807E7F81 		.ascii	"\200~\177\201\202\200~~\200\203\201~\177\201\203\201"
 1856      82807E7E 
 1856      8083817E 
 1856      7F818381 
 1857 2d23 7F7F8083 		.ascii	"\177\177\200\203\202\177\177\200\203\202\200\177\200"
 1857      827F7F80 
 1857      8382807F 
 1857      80
 1858 2d30 8382807E 		.ascii	"\203\202\200~\200\202\202\200~\200\202\202\200~\200"
 1858      80828280 
 1858      7E808282 
 1858      807E80
 1859 2d3f 8282807F 		.ascii	"\202\202\200\177\200\201\202\200\177\177\201\202\200"
 1859      80818280 
 1859      7F7F8182 
 1859      80
 1860 2d4c 7F7F8183 		.ascii	"\177\177\201\203\201\177\200\201\203\201\200\177\201"
 1860      817F8081 
 1860      8381807F 
 1860      81
 1861 2d59 83827F7F 		.ascii	"\203\202\177\177\201\203\201\200\177\200\203\201\200"
 1861      81838180 
 1861      7F808381 
 1861      80
 1862 2d66 7E808281 		.ascii	"~\200\202\201\177~\200\201\201\200~\177\201\201\177"
 1862      7F7E8081 
 1862      81807E7F 
 1862      81817F
 1863 2d75 7D7F8181 		.ascii	"}\177\201\201\200~\177\201\201\200~\177\201\202\200"
 1863      807E7F81 
 1863      81807E7F 
 1863      818280
 1864 2d84 7E7F8182 		.ascii	"~\177\201\202\200\177\177\200\202\200\177\177\200\202"
 1864      807F7F80 
 1864      82807F7F 
 1864      8082
 1865 2d92 807F7E80 		.ascii	"\200\177~\200\202\201\200\177\200\202\201\200~\200\202"
 1865      8281807F 
 1865      80828180 
 1865      7E8082
 1866 2da1 81807F80 		.ascii	"\201\200\177\200\201\201\200\177\200\201\201\200\177"
 1866      8181807F 
 1866      80818180 
 1866      7F
 1867 2dae 80818180 		.ascii	"\200\201\201\200~\177\201\201\200~\177\200\201\200~"
 1867      7E7F8181 
ARM GAS  C:\Users\LY\AppData\Local\Temp\ccbRkbv2.s 			page 85


 1867      807E7F80 
 1867      81807E
 1868 2dbd 7E808180 		.ascii	"~\200\201\200~~\200\200\200~~\200\201\200\177\177\200"
 1868      7E7E8080 
 1868      807E7E80 
 1868      81807F7F 
 1868      80
 1869 2dce 81807F7F 		.ascii	"\201\200\177\177\200\201\201\177\177\200\201\201\200"
 1869      8081817F 
 1869      7F808181 
 1869      80
 1870 2ddb 7F808181 		.ascii	"\177\200\201\201\200\177\200\201\200\200\177\200\201"
 1870      807F8081 
 1870      80807F80 
 1870      81
 1871 2de8 81807E7F 		.ascii	"\201\200~\177\200\200\200}\177\200\200\200~~\200\200"
 1871      8080807D 
 1871      7F808080 
 1871      7E7E8080 
 1872 2df8 807E7F80 		.ascii	"\200~\177\200\200\200\177~\200\200\200\177\177\200\201"
 1872      80807F7E 
 1872      8080807F 
 1872      7F8081
 1873 2e07 80808080 		.ascii	"\200\200\200\200\202\200\200\200\200\201\201\200\200"
 1873      82808080 
 1873      80818180 
 1873      80
 1874 2e14 80818180 		.ascii	"\200\201\201\200\200\200\201\201\200\200\200\201\201"
 1874      80808181 
 1874      80808081 
 1874      81
 1875 2e21 80808081 		.ascii	"\200\200\200\201\202\200\200\200\201\201\200\200\200"
 1875      82808080 
 1875      81818080 
 1875      80
 1876 2e2e 8181807F 		.ascii	"\201\201\200\177\177\200\200\200\177\177\200\201\200"
 1876      7F808080 
 1876      7F7F8081 
 1876      80
 1877 2e3b 7F7F8080 		.ascii	"\177\177\200\200\200\177\177\200\200\200\177\177\200"
 1877      807F7F80 
 1877      80807F7F 
 1877      80
 1878 2e48 81808080 		.ascii	"\201\200\200\200\200\201\201\200\200\200\200\200\200"
 1878      80818180 
 1878      80808080 
 1878      80
 1879 2e55 7F808181 		.ascii	"\177\200\201\201\200\177\200\201\201\200\200\200\201"
 1879      807F8081 
 1879      81808080 
 1879      81
 1880 2e62 82808080 		.ascii	"\202\200\200\200\201\202\200\200\200\201\202\200\200"
 1880      81828080 
 1880      80818280 
 1880      80
 1881 2e6f 80818280 		.ascii	"\200\201\202\200\200\200\200\201\200\200\177\200\201"
 1881      80808081 
ARM GAS  C:\Users\LY\AppData\Local\Temp\ccbRkbv2.s 			page 86


 1881      80807F80 
 1881      81
 1882 2e7c 807F7F80 		.ascii	"\200\177\177\200\200\200\177\177\200\200\200\177\177"
 1882      80807F7F 
 1882      8080807F 
 1882      7F
 1883 2e89 80818080 		.ascii	"\200\201\200\200\177\200\200\200\200\177\200\200\201"
 1883      7F808080 
 1883      807F8080 
 1883      81
 1884 2e96 80808081 		.ascii	"\200\200\200\201\201\200\200\200\200\201\200\200\200"
 1884      81808080 
 1884      80818080 
 1884      80
 1885 2ea3 80818080 		.ascii	"\200\201\200\200\200\200\201\200\200\200\200\201\200"
 1885      80808180 
 1885      80808081 
 1885      80
 1886 2eb0 80808081 		.ascii	"\200\200\200\201\200\200\200\200\201\200\200\200\200"
 1886      80808080 
 1886      81808080 
 1886      80
 1887 2ebd 8080807F 		.ascii	"\200\200\200\177\200\200\200\200\177\200\200\200\200"
 1887      80808080 
 1887      7F808080 
 1887      80
 1888 2eca 7E808080 		.ascii	"~\200\200\200\200~\200\200\200\200~\177\200\200\200"
 1888      807E8080 
 1888      80807E7F 
 1888      808080
 1889 2ed9 7E7F8080 		.ascii	"~\177\200\200\200\177\177"
 1889      807F7F
 1890 2ee0 8080807F 		.ascii	"\200\200\200\177\200\200\201\200\200\200\200\201\200"
 1890      80808180 
 1890      80808081 
 1890      80
 1891 2eed 80808081 		.ascii	"\200\200\200\201\200\200\200\200\200\200\200\200\200"
 1891      80808080 
 1891      80808080 
 1891      80
 1892 2efa 8080807F 		.ascii	"\200\200\200\177\200\200\200\200\177\200\200\200\200"
 1892      80808080 
 1892      7F808080 
 1892      80
 1893 2f07 7F808080 		.ascii	"\177\200\200\200\200\177\200\200\200\200\177\200\200"
 1893      807F8080 
 1893      80807F80 
 1893      80
 1894 2f14 80807F80 		.ascii	"\200\200\177\200\200\200\200\200\177\200\200\200\200"
 1894      80808080 
 1894      7F808080 
 1894      80
 1895 2f21 80808080 		.ascii	"\200\200\200\200\200\177\200\200\200\200\177\200\200"
 1895      807F8080 
 1895      80807F80 
 1895      80
 1896 2f2e 80807F80 		.ascii	"\200\200\177\200\200\200\200\200\200\200\200\200\200"
ARM GAS  C:\Users\LY\AppData\Local\Temp\ccbRkbv2.s 			page 87


 1896      80808080 
 1896      80808080 
 1896      80
 1897 2f3b 80808180 		.ascii	"\200\200\201\200\200\200\200\201\200\200\200\200\201"
 1897      80808081 
 1897      80808080 
 1897      81
 1898 2f48 80808080 		.ascii	"\200\200\200\200\201\200\200\200\200\200\200\200\200"
 1898      81808080 
 1898      80808080 
 1898      80
 1899 2f55 80818080 		.ascii	"\200\201\200\200\200\200\201\200\200\200\200\201\200"
 1899      80808180 
 1899      80808081 
 1899      80
 1900 2f62 80808081 		.ascii	"\200\200\200\201\201\200\200\200\201\201\200\200\200"
 1900      81808080 
 1900      81818080 
 1900      80
 1901 2f6f 81818080 		.ascii	"\201\201\200\200\200\200\201\200\200\200\200\201\200"
 1901      80808180 
 1901      80808081 
 1901      80
 1902 2f7c 80808080 		.ascii	"\200\200\200\200\200\200\200\200\200\200\177\200\200"
 1902      80808080 
 1902      80807F80 
 1902      80
 1903 2f89 8080807F 		.ascii	"\200\200\200\177\200\200\200\200\177\200\200\200\200"
 1903      80808080 
 1903      7F808080 
 1903      80
 1904 2f96 80808080 		.ascii	"\200\200\200\200\200\200\200\200\200\200\200\200\200"
 1904      80808080 
 1904      80808080 
 1904      80
 1905 2fa3 80808080 		.ascii	"\200\200\200\200\200\200\200\200\200\200\201\200\200"
 1905      80808080 
 1905      80808180 
 1905      80
 1906 2fb0 80808180 		.ascii	"\200\200\201\200\200\200\200\201\200\200\200\200\201"
 1906      80808081 
 1906      80808080 
 1906      81
 1907 2fbd 80808080 		.ascii	"\200\200\200\200\200\200\200\200\200\200\200\200\200"
 1907      80808080 
 1907      80808080 
 1907      80
 1908 2fca 80808080 		.ascii	"\200\200\200\200\177\200\200\200\200\177\177\200\200"
 1908      7F808080 
 1908      807F7F80 
 1908      80
 1909 2fd7 7F807F80 		.ascii	"\177\200\177\200\200\177\200\177\200\200\177\200\177"
 1909      807F807F 
 1909      80807F80 
 1909      7F
 1910 2fe4 8080807F 		.ascii	"\200\200\200\177\177\200\200\200\177\200\200\200\200"
 1910      7F808080 
ARM GAS  C:\Users\LY\AppData\Local\Temp\ccbRkbv2.s 			page 88


 1910      7F808080 
 1910      80
 1911 2ff1 80808080 		.ascii	"\200\200\200\200\200\200\200\200\200\200\200\200\200"
 1911      80808080 
 1911      80808080 
 1911      80
 1912 2ffe 80808080 		.ascii	"\200\200\200\200\200\200\200\200\200\200\200\200\200"
 1912      80808080 
 1912      80808080 
 1912      80
 1913 300b 80808080 		.ascii	"\200\200\200\200\200\200\200\200\200\200\200\200\200"
 1913      80808080 
 1913      80808080 
 1913      80
 1914 3018 80808080 		.ascii	"\200\200\200\200\200\200\200\200\200\200\200\200\200"
 1914      80808080 
 1914      80808080 
 1914      80
 1915 3025 80808080 		.ascii	"\200\200\200\200\200\200\200\200\200\200\200\200\200"
 1915      80808080 
 1915      80808080 
 1915      80
 1916 3032 80808080 		.ascii	"\200\200\200\200\200\200\200\200\200\200\200\200\200"
 1916      80808080 
 1916      80808080 
 1916      80
 1917 303f 80808180 		.ascii	"\200\200\201\200\201\200\201\200\201\200\201\200\201"
 1917      81808180 
 1917      81808180 
 1917      81
 1918 304c 80808080 		.ascii	"\200\200\200\200\200\200\200\200\200\200\200\200\200"
 1918      80808080 
 1918      80808080 
 1918      80
 1919 3059 80808080 		.ascii	"\200\200\200\200\200\200\200\200\200\200\200\200\200"
 1919      80808080 
 1919      80808080 
 1919      80
 1920 3066 80808080 		.ascii	"\200\200\200\200\200\200\200\200\200\200\200\200\200"
 1920      80808080 
 1920      80808080 
 1920      80
 1921 3073 80808080 		.ascii	"\200\200\200\200\200\200\200\200\200\200\200\200\200"
 1921      80808080 
 1921      80808080 
 1921      80
 1922 3080 80808080 		.ascii	"\200\200\200\200\200\200\200\200\200\200\200\200\200"
 1922      80808080 
 1922      80808080 
 1922      80
 1923 308d 80808080 		.ascii	"\200\200\200\200\200\200\200\200\200\200\200\200\200"
 1923      80808080 
 1923      80808080 
 1923      80
 1924 309a 80808080 		.ascii	"\200\200\200\200\200\200\200\200\200\200\200\200\200"
 1924      80808080 
 1924      80808080 
ARM GAS  C:\Users\LY\AppData\Local\Temp\ccbRkbv2.s 			page 89


 1924      80
 1925 30a7 80808080 		.ascii	"\200\200\200\200\200\200\200\200\200\200\200\200\200"
 1925      80808080 
 1925      80808080 
 1925      80
 1926 30b4 80808080 		.ascii	"\200\200\200\200\200\200\200\200\200\200\200\200\200"
 1926      80808080 
 1926      80808080 
 1926      80
 1927 30c1 80808080 		.ascii	"\200\200\200\200\200\200\200\200\200\200\200\200\200"
 1927      80808080 
 1927      80808080 
 1927      80
 1928 30ce 80808080 		.ascii	"\200\200\200\200\200\200\200\200\200\200\200\177\200"
 1928      80808080 
 1928      8080807F 
 1928      80
 1929 30db 80808080 		.ascii	"\200\200\200\200\200\200\200\200\200\200\200\200\200"
 1929      80808080 
 1929      80808080 
 1929      80
 1930 30e8 7F808080 		.ascii	"\177\200\200\200\200\177\200\200\200\200\200\200\200"
 1930      807F8080 
 1930      80808080 
 1930      80
 1931 30f5 80808080 		.ascii	"\200\200\200\200\200\200\200\200\200\200\200\200\200"
 1931      80808080 
 1931      80808080 
 1931      80
 1932 3102 80808080 		.ascii	"\200\200\200\200\200\200\200\200\200\200\200\200\200"
 1932      80808080 
 1932      80808080 
 1932      80
 1933 310f 80808080 		.ascii	"\200\200\200\200\200\200\200\200\200\200\200\200\200"
 1933      80808080 
 1933      80808080 
 1933      80
 1934 311c 80808080 		.ascii	"\200\200\200\200\200\200\200\200\200\200\200\200\200"
 1934      80808080 
 1934      80808080 
 1934      80
 1935 3129 80808080 		.ascii	"\200\200\200\200\200\200\177\200\200\200\200\200\200"
 1935      80807F80 
 1935      80808080 
 1935      80
 1936 3136 80808080 		.ascii	"\200\200\200\200\200\200\200\200\200\200\200\201\200"
 1936      80808080 
 1936      80808081 
 1936      80
 1937 3143 80808180 		.ascii	"\200\200\201\200\201\200\201\201\201\201\200\201\200"
 1937      81808181 
 1937      81818081 
 1937      80
 1938 3150 81818080 		.ascii	"\201\201\200\200\201\200\201\200\200\200\201\200\200"
 1938      81808180 
 1938      80808180 
 1938      80
ARM GAS  C:\Users\LY\AppData\Local\Temp\ccbRkbv2.s 			page 90


 1939 315d 80808080 		.ascii	"\200\200\200\200\200\200\200\200\200\200\200\200\200"
 1939      80808080 
 1939      80808080 
 1939      80
 1940 316a 80808080 		.ascii	"\200\200\200\200\200\200\200\200\200\200\200\200\200"
 1940      80808080 
 1940      80808080 
 1940      80
 1941 3177 80808080 		.ascii	"\200\200\200\200\200\177\200\200\200\200\177\200\200"
 1941      807F8080 
 1941      80807F80 
 1941      80
 1942 3184 807F8080 		.ascii	"\200\177\200\200\200\200\177\177\200\200\200\200\177"
 1942      80807F7F 
 1942      80808080 
 1942      7F
 1943 3191 80808080 		.ascii	"\200\200\200\200\200\200\200\200\200\200\200\200\200"
 1943      80808080 
 1943      80808080 
 1943      80
 1944 319e 80808080 		.ascii	"\200\200\200\200\201\200\200\200\200\201\200\200\200"
 1944      81808080 
 1944      80818080 
 1944      80
 1945 31ab 80808080 		.ascii	"\200\200\200\200\200\200\200\200\200\200\200\200\200"
 1945      80808080 
 1945      80808080 
 1945      80
 1946 31b8 80808080 		.ascii	"\200\200\200\200\200\200\200\200\200\200\200\200\200"
 1946      80808080 
 1946      80808080 
 1946      80
 1947 31c5 80808080 		.ascii	"\200\200\200\200\200\200\201\200\200\200\200\201\200"
 1947      80808180 
 1947      80808081 
 1947      80
 1948 31d2 80808080 		.ascii	"\200\200\200\200\200\200\200\200\200\200\200\200\200"
 1948      80808080 
 1948      80808080 
 1948      80
 1949 31df 80808080 		.ascii	"\200\200\200\200\200\200\200\200\200\200\200\200\200"
 1949      80808080 
 1949      80808080 
 1949      80
 1950 31ec 80808080 		.ascii	"\200\200\200\200\200\200\200\200\200\200\200\200\200"
 1950      80808080 
 1950      80808080 
 1950      80
 1951 31f9 80807F80 		.ascii	"\200\200\177\200\200\200\200\177\200\200\200\200\200"
 1951      8080807F 
 1951      80808080 
 1951      80
 1952 3206 80808080 		.ascii	"\200\200\200\200\200\200\200\200\200\200\200\200\200"
 1952      80808080 
 1952      80808080 
 1952      80
 1953 3213 80808080 		.ascii	"\200\200\200\200\201\200\200\200\200\201\200\200\200"
ARM GAS  C:\Users\LY\AppData\Local\Temp\ccbRkbv2.s 			page 91


 1953      81808080 
 1953      80818080 
 1953      80
 1954 3220 80818080 		.ascii	"\200\201\200\200\200\200\201\200\200\200\200\200\201"
 1954      80808180 
 1954      80808080 
 1954      81
 1955 322d 80808080 		.ascii	"\200\200\200\200\200\200\200\200\200\200\200\200\200"
 1955      80808080 
 1955      80808080 
 1955      80
 1956 323a 8080807F 		.ascii	"\200\200\200\177\200\200\200\200\177\177\200\200\200"
 1956      80808080 
 1956      7F7F8080 
 1956      80
 1957 3247 7F808080 		.ascii	"\177\200\200\200\200\200\200\200\200\200\200\200\200"
 1957      80808080 
 1957      80808080 
 1957      80
 1958 3254 80808080 		.ascii	"\200\200\200\200\200\200\200\200\200\200\200\200\200"
 1958      80808080 
 1958      80808080 
 1958      80
 1959 3261 80808080 		.ascii	"\200\200\200\200\200\200\200\201\200\200\200\200\201"
 1959      80808081 
 1959      80808080 
 1959      81
 1960 326e 81808080 		.ascii	"\201\200\200\200\200\201\200\200\200\200\200\200\200"
 1960      80818080 
 1960      80808080 
 1960      80
 1961 327b 80808080 		.ascii	"\200\200\200\200\200\200\200\200\200\200\177\200\200"
 1961      80808080 
 1961      80807F80 
 1961      80
 1962 3288 807F807F 		.ascii	"\200\177\200\177\200\200\177\200\200\200\200\200\177"
 1962      80807F80 
 1962      80808080 
 1962      7F
 1963 3295 80808080 		.ascii	"\200\200\200\200\200\200\200\200\200\200\200\200\200"
 1963      80808080 
 1963      80808080 
 1963      80
 1964 32a2 80808080 		.ascii	"\200\200\200\200\201\200\200\200\200\201\200\200\200"
 1964      81808080 
 1964      80818080 
 1964      80
 1965 32af 80818080 		.ascii	"\200\201\200\200\200\200\200\200\200\200\200\200\200"
 1965      80808080 
 1965      80808080 
 1965      80
 1966 32bc 80808080 		.ascii	"\200\200\200\200\200\200\200\200\200\200\200\177\200"
 1966      80808080 
 1966      8080807F 
 1966      80
 1967 32c9 8080807F 		.ascii	"\200\200\200\177\200\200\200\200\177\200\200\200\200"
 1967      80808080 
ARM GAS  C:\Users\LY\AppData\Local\Temp\ccbRkbv2.s 			page 92


 1967      7F808080 
 1967      80
 1968 32d6 7F808080 		.ascii	"\177\200\200\200\200\200\200\200\200\200\200\200\200"
 1968      80808080 
 1968      80808080 
 1968      80
 1969 32e3 80808080 		.ascii	"\200\200\200\200\200\200\200\200\200\200\200\200\200"
 1969      80808080 
 1969      80808080 
 1969      80
 1970 32f0 80808080 		.ascii	"\200\200\200\200\200\200\200\200\200\200\200\200\200"
 1970      80808080 
 1970      80808080 
 1970      80
 1971 32fd 80808080 		.ascii	"\200\200\200\200\200\200\200\200\200\200\200\200\200"
 1971      80808080 
 1971      80808080 
 1971      80
 1972 330a 80808080 		.ascii	"\200\200\200\200\177\177\200\200\177\200\177\200\177"
 1972      7F7F8080 
 1972      7F807F80 
 1972      7F
 1973 3317 807F7F80 		.ascii	"\200\177\177\200\200\200\177\200\200\200\200\200\200"
 1973      80807F80 
 1973      80808080 
 1973      80
 1974 3324 80808080 		.ascii	"\200\200\200\200\200\200\200\200\200\200\200\201\200"
 1974      80808080 
 1974      80808081 
 1974      80
 1975 3331 80808080 		.ascii	"\200\200\200\200\201\200\200\200\201\201\200\200\200"
 1975      81808080 
 1975      81818080 
 1975      80
 1976 333e 81808080 		.ascii	"\201\200\200\200\200\200\200\200\200\200\200\200\200"
 1976      80808080 
 1976      80808080 
 1976      80
 1977 334b 80808080 		.ascii	"\200\200\200\200\200\200\200\200\200\200\200\200\200"
 1977      80808080 
 1977      80808080 
 1977      80
 1978 3358 80808080 		.ascii	"\200\200\200\200\200\200\200\200\200\200\200\200\200"
 1978      80808080 
 1978      80808080 
 1978      80
 1979 3365 80808080 		.ascii	"\200\200\200\200\200\200\200\200\200\200\200\200\200"
 1979      80808080 
 1979      80808080 
 1979      80
 1980 3372 80808080 		.ascii	"\200\200\200\200\200\201\200\200\200\201\200\201\200"
 1980      80818080 
 1980      80818081 
 1980      80
 1981 337f 80818081 		.ascii	"\200\201\200\201\200\200\200\201\200\200\200\200\200"
 1981      80808081 
 1981      80808080 
ARM GAS  C:\Users\LY\AppData\Local\Temp\ccbRkbv2.s 			page 93


 1981      80
 1982 338c 80808080 		.ascii	"\200\200\200\200\200\200\200\200\200\200\200\200\200"
 1982      80808080 
 1982      80808080 
 1982      80
 1983 3399 80808080 		.ascii	"\200\200\200\200\200\200\200\200\200\200\200\200\200"
 1983      80808080 
 1983      80808080 
 1983      80
 1984 33a6 80808080 		.ascii	"\200\200\200\200\200\200\200\200\200\200\200\200\200"
 1984      80808080 
 1984      80808080 
 1984      80
 1985 33b3 80808080 		.ascii	"\200\200\200\200\200\200\200\200\200\200\200\200\200"
 1985      80808080 
 1985      80808080 
 1985      80
 1986 33c0 80808080 		.ascii	"\200\200\200\200\200\200\200\200\200\200\200\200\200"
 1986      80808080 
 1986      80808080 
 1986      80
 1987 33cd 80808080 		.ascii	"\200\200\200\200\200\200\200\200\200\200\200\200\200"
 1987      80808080 
 1987      80808080 
 1987      80
 1988 33da 80808080 		.ascii	"\200\200\200\200\200\200\200\200\200\200\200\200\200"
 1988      80808080 
 1988      80808080 
 1988      80
 1989 33e7 80808080 		.ascii	"\200\200\200\200\200\200\200\200\200\200\200\200\200"
 1989      80808080 
 1989      80808080 
 1989      80
 1990 33f4 80808080 		.ascii	"\200\200\200\200\200\200\200\200\200\200\200\200\200"
 1990      80808080 
 1990      80808080 
 1990      80
 1991 3401 80808080 		.ascii	"\200\200\200\200\200\200\200\200\200\200\200\200\200"
 1991      80808080 
 1991      80808080 
 1991      80
 1992 340e 80808080 		.ascii	"\200\200\200\200\200\200\200\200\200\200\200\200\200"
 1992      80808080 
 1992      80808080 
 1992      80
 1993 341b 80808080 		.ascii	"\200\200\200\200\200\200\200\200\200\200\200\200\200"
 1993      80808080 
 1993      80808080 
 1993      80
 1994 3428 80808080 		.ascii	"\200\200\200\200\200\200\200\200\200\200\200\200\200"
 1994      80808080 
 1994      80808080 
 1994      80
 1995 3435 80808080 		.ascii	"\200\200\200\200\200\200\200\200\200\200\200\200\200"
 1995      80808080 
 1995      80808080 
 1995      80
ARM GAS  C:\Users\LY\AppData\Local\Temp\ccbRkbv2.s 			page 94


 1996 3442 80808080 		.ascii	"\200\200\200\200\200\200\200\200\200\200\200\200\200"
 1996      80808080 
 1996      80808080 
 1996      80
 1997 344f 80808080 		.ascii	"\200\200\200\200\200\200\200\200\200\200\200\200\200"
 1997      80808080 
 1997      80808080 
 1997      80
 1998 345c 80808080 		.ascii	"\200\200\200\200\200\200\200\200\200\200\200\200\200"
 1998      80808080 
 1998      80808080 
 1998      80
 1999 3469 80808080 		.ascii	"\200\200\200\200\200\200\200\200\200\200\200\200\200"
 1999      80808080 
 1999      80808080 
 1999      80
 2000 3476 80808080 		.ascii	"\200\200\200\200\200\200\200\200\200\200\200\200\200"
 2000      80808080 
 2000      80808080 
 2000      80
 2001 3483 80808080 		.ascii	"\200\200\200\200\200\200\200\200\200\200\200\200\200"
 2001      80808080 
 2001      80808080 
 2001      80
 2002 3490 80808080 		.ascii	"\200\200\200\200\200\200\200\200\200\200\200\200\200"
 2002      80808080 
 2002      80808080 
 2002      80
 2003 349d 80808080 		.ascii	"\200\200\200\200\200\200\200\200\200\200\200\200\200"
 2003      80808080 
 2003      80808080 
 2003      80
 2004 34aa 80808080 		.ascii	"\200\200\200\200\200\200\200\200\200\200\200\200\200"
 2004      80808080 
 2004      80808080 
 2004      80
 2005 34b7 80808080 		.ascii	"\200\200\200\200\200\200\200\200\200\200\200\200\200"
 2005      80808080 
 2005      80808080 
 2005      80
 2006 34c4 80808080 		.ascii	"\200\200\200\200\200\200\200\200\200\200\201\200\201"
 2006      80808080 
 2006      80808180 
 2006      81
 2007 34d1 80818081 		.ascii	"\200\201\200\201\200\201\200\201\200\201\200\201\200"
 2007      80818081 
 2007      80818081 
 2007      80
 2008 34de 81808080 		.ascii	"\201\200\200\200\200\200\200\200\200\200\200\200\200"
 2008      80808080 
 2008      80808080 
 2008      80
 2009 34eb 80808080 		.ascii	"\200\200\200\200\200\200\200\200\200\200\200\200\200"
 2009      80808080 
 2009      80808080 
 2009      80
 2010 34f8 7F808080 		.ascii	"\177\200\200\200\200\200\200\200\200\200\200\200\200"
ARM GAS  C:\Users\LY\AppData\Local\Temp\ccbRkbv2.s 			page 95


 2010      80808080 
 2010      80808080 
 2010      80
 2011 3505 80808080 		.ascii	"\200\200\200\200\200\200\200\200\200\200\200\200\200"
 2011      80808080 
 2011      80808080 
 2011      80
 2012 3512 80808080 		.ascii	"\200\200\200\200\200\200\200\200\200\200\200\200\200"
 2012      80808080 
 2012      80808080 
 2012      80
 2013 351f 80808080 		.ascii	"\200\200\200\200\200\200\200\200\200\200\200\200\200"
 2013      80808080 
 2013      80808080 
 2013      80
 2014 352c 80808080 		.ascii	"\200\200\200\200\200\200\200\200\200\200\200\200\200"
 2014      80808080 
 2014      80808080 
 2014      80
 2015 3539 80807F80 		.ascii	"\200\200\177\200\177\200\177\200\177\200\200\177\200"
 2015      7F807F80 
 2015      7F80807F 
 2015      80
 2016 3546 80808080 		.ascii	"\200\200\200\200\200\200\200\200\200\200\200\200\200"
 2016      80808080 
 2016      80808080 
 2016      80
 2017 3553 80808080 		.ascii	"\200\200\200\200\200\200\200\200\200\200\200\200\200"
 2017      80808080 
 2017      80808080 
 2017      80
 2018 3560 80808080 		.ascii	"\200\200\200\200\200\200\200\200\200\200\200\200\200"
 2018      80808080 
 2018      80808080 
 2018      80
 2019 356d 80808080 		.ascii	"\200\200\200\200\200\200\200\200\200\200\200\200\200"
 2019      80808080 
 2019      80808080 
 2019      80
 2020 357a 80808080 		.ascii	"\200\200\200\200\200\200\200\200\200\200\200\200\200"
 2020      80808080 
 2020      80808080 
 2020      80
 2021 3587 80808080 		.ascii	"\200\200\200\200\200\200\200\200\200\200\200\200\201"
 2021      80808080 
 2021      80808080 
 2021      81
 2022 3594 80818081 		.ascii	"\200\201\200\201\200\200\200\200\200\200\200\200\200"
 2022      80808080 
 2022      80808080 
 2022      80
 2023 35a1 80808080 		.ascii	"\200\200\200\200\200\200\200\200\200\200\200\200\200"
 2023      80808080 
 2023      80808080 
 2023      80
 2024 35ae 80808080 		.ascii	"\200\200\200\200\200\200\200\200\200\200\200\200\200"
 2024      80808080 
ARM GAS  C:\Users\LY\AppData\Local\Temp\ccbRkbv2.s 			page 96


 2024      80808080 
 2024      80
 2025 35bb 80808080 		.ascii	"\200\200\200\200\200\200\200\200\200\200\200\200\200"
 2025      80808080 
 2025      80808080 
 2025      80
 2026 35c8 80808080 		.ascii	"\200\200\200\200\200\200\200\200\200\200\200\200\200"
 2026      80808080 
 2026      80808080 
 2026      80
 2027 35d5 80808080 		.ascii	"\200\200\200\200\200\200\200\200\200\200\200\200\200"
 2027      80808080 
 2027      80808080 
 2027      80
 2028 35e2 80808080 		.ascii	"\200\200\200\200\200\200\200\200\200\200\200\200\200"
 2028      80808080 
 2028      80808080 
 2028      80
 2029 35ef 80808080 		.ascii	"\200\200\200\200\200\200\200\200\200\200\200\200\200"
 2029      80808080 
 2029      80808080 
 2029      80
 2030 35fc 80808080 		.ascii	"\200\200\200\200\200\200\200\200\200\200\200\200\200"
 2030      80808080 
 2030      80808080 
 2030      80
 2031 3609 80808080 		.ascii	"\200\200\200\200\200\200\200\200\200\200\200\200\200"
 2031      80808080 
 2031      80808080 
 2031      80
 2032 3616 80808080 		.ascii	"\200\200\200\200\200\200\200\200\200\200\200\200\200"
 2032      80808080 
 2032      80808080 
 2032      80
 2033 3623 80808080 		.ascii	"\200\200\200\200\200\200\200\200\200\200\200\200\200"
 2033      80808080 
 2033      80808080 
 2033      80
 2034 3630 80808080 		.ascii	"\200\200\200\200\200\200\200\200\200\200\200\200\200"
 2034      80808080 
 2034      80808080 
 2034      80
 2035 363d 80808080 		.ascii	"\200\200\200\200\200\200\200\200\200\200\177\200\177"
 2035      80808080 
 2035      80807F80 
 2035      7F
 2036 364a 807F8080 		.ascii	"\200\177\200\200\177\200\177\200\177\200\200\200\200"
 2036      7F807F80 
 2036      7F808080 
 2036      80
 2037 3657 80808080 		.ascii	"\200\200\200\200\200\200\200\200\200\200\200\200\200"
 2037      80808080 
 2037      80808080 
 2037      80
 2038 3664 80808080 		.ascii	"\200\200\200\200\200\200\200\200\200\200\200\200\200"
 2038      80808080 
 2038      80808080 
ARM GAS  C:\Users\LY\AppData\Local\Temp\ccbRkbv2.s 			page 97


 2038      80
 2039 3671 80808080 		.ascii	"\200\200\200\200\200\200\200\200\200\200\200\200\200"
 2039      80808080 
 2039      80808080 
 2039      80
 2040 367e 80808080 		.ascii	"\200\200\200\200\200\200\200\200\200\200\200\200\200"
 2040      80808080 
 2040      80808080 
 2040      80
 2041 368b 80808080 		.ascii	"\200\200\200\200\200\200\200\200\200\200\200\200\200"
 2041      80808080 
 2041      80808080 
 2041      80
 2042 3698 80808080 		.ascii	"\200\200\200\200\200\200\200\200\200\200\200\200\200"
 2042      80808080 
 2042      80808080 
 2042      80
 2043 36a5 80808080 		.ascii	"\200\200\200\200\200\200\200\200\200\200\200"
 2043      80808080 
 2043      808080
 2044 36b0 80808080 		.ascii	"\200\200\200\200\200\200\200\200\200\200\200\200\200"
 2044      80808080 
 2044      80808080 
 2044      80
 2045 36bd 80808080 		.ascii	"\200\200\200\200\200\200\200\200\200\200\200\200\200"
 2045      80808080 
 2045      80808080 
 2045      80
 2046 36ca 80808080 		.ascii	"\200\200\200\200\200\200\200\200\200\200\200\200\200"
 2046      80808080 
 2046      80808080 
 2046      80
 2047 36d7 80808080 		.ascii	"\200\200\200\200\200\200\200\200\200\200\200\200\200"
 2047      80808080 
 2047      80808080 
 2047      80
 2048 36e4 80808080 		.ascii	"\200\200\200\200\200\200\200\200\200\200\200\200\200"
 2048      80808080 
 2048      80808080 
 2048      80
 2049 36f1 80808080 		.ascii	"\200\200\200\200\200\200\200\200\200\200\200\200\200"
 2049      80808080 
 2049      80808080 
 2049      80
 2050 36fe 80808080 		.ascii	"\200\200\200\200\200\200\200\200\200\200\200\200\200"
 2050      80808080 
 2050      80808080 
 2050      80
 2051 370b 80808080 		.ascii	"\200\200\200\200\200\200\200\200\200\200\200\200\200"
 2051      80808080 
 2051      80808080 
 2051      80
 2052 3718 80808080 		.ascii	"\200\200\200\200\200\200\200\200\200\200\200\200\200"
 2052      80808080 
 2052      80808080 
 2052      80
 2053 3725 80808080 		.ascii	"\200\200\200\200\200\200\200\200\200\200\200\200\200"
ARM GAS  C:\Users\LY\AppData\Local\Temp\ccbRkbv2.s 			page 98


 2053      80808080 
 2053      80808080 
 2053      80
 2054 3732 80808080 		.ascii	"\200\200\200\200\200\200\200\200\200\200\200\200\200"
 2054      80808080 
 2054      80808080 
 2054      80
 2055 373f 80808080 		.ascii	"\200\200\200\200\200\200\200\200\200\200\200\200\200"
 2055      80808080 
 2055      80808080 
 2055      80
 2056 374c 80808080 		.ascii	"\200\200\200\200\200\200\200\200\200\200\200\200\200"
 2056      80808080 
 2056      80808080 
 2056      80
 2057 3759 80808080 		.ascii	"\200\200\200\200\200\200\200\200\200\200\200\200\200"
 2057      80808080 
 2057      80808080 
 2057      80
 2058 3766 80808080 		.ascii	"\200\200\200\200\200\200\200\200\200\200\200\200\200"
 2058      80808080 
 2058      80808080 
 2058      80
 2059 3773 80808080 		.ascii	"\200\200\200\200\200\200\200\200\200\200\200\200\200"
 2059      80808080 
 2059      80808080 
 2059      80
 2060 3780 80808080 		.ascii	"\200\200\200\200\200\200\200\200\200\200\200\200\200"
 2060      80808080 
 2060      80808080 
 2060      80
 2061 378d 80808080 		.ascii	"\200\200\200\200\200\200\200\200\200\200\200\200\200"
 2061      80808080 
 2061      80808080 
 2061      80
 2062 379a 80808080 		.ascii	"\200\200\200\200\200\200\177\200\177\200\177\200\177"
 2062      80807F80 
 2062      7F807F80 
 2062      7F
 2063 37a7 807F807F 		.ascii	"\200\177\200\177\200\177\200\177\200\200\200\200\200"
 2063      807F807F 
 2063      80808080 
 2063      80
 2064 37b4 80808080 		.ascii	"\200\200\200\200\200\200\200\200\200\200\200\200\200"
 2064      80808080 
 2064      80808080 
 2064      80
 2065 37c1 80808080 		.ascii	"\200\200\200\200\201\200\201\200\201\200\201\200\201"
 2065      81808180 
 2065      81808180 
 2065      81
 2066 37ce 80818081 		.ascii	"\200\201\200\201\200\201\200\201\200\200\200\200\200"
 2066      80818081 
 2066      80808080 
 2066      80
 2067 37db 80808080 		.ascii	"\200\200\200\200\200\200\200\200\200\200\200\200\200"
 2067      80808080 
ARM GAS  C:\Users\LY\AppData\Local\Temp\ccbRkbv2.s 			page 99


 2067      80808080 
 2067      80
 2068 37e8 80808080 		.ascii	"\200\200\200\200\200\200\200\200\200\200\200\200\200"
 2068      80808080 
 2068      80808080 
 2068      80
 2069 37f5 80808080 		.ascii	"\200\200\200\200\200\200\177\200\177\200\200\200\200"
 2069      80807F80 
 2069      7F808080 
 2069      80
 2070 3802 80808080 		.ascii	"\200\200\200\200\200\200\200\200\200\200\200\200\200"
 2070      80808080 
 2070      80808080 
 2070      80
 2071 380f 80808080 		.ascii	"\200\200\200\200\200\200\200\200\200\200\200\200\200"
 2071      80808080 
 2071      80808080 
 2071      80
 2072 381c 80808080 		.ascii	"\200\200\200\200\200\200\200\200\200\200\200\200\200"
 2072      80808080 
 2072      80808080 
 2072      80
 2073 3829 80808080 		.ascii	"\200\200\200\200\200\200\200\200\200\200\200\200\200"
 2073      80808080 
 2073      80808080 
 2073      80
 2074 3836 80808080 		.ascii	"\200\200\200\200\200\200\200\200\200\200\200\200\200"
 2074      80808080 
 2074      80808080 
 2074      80
 2075 3843 80808080 		.ascii	"\200\200\200\200\200\200\200\200\200\200\200\200\200"
 2075      80808080 
 2075      80808080 
 2075      80
 2076 3850 80808080 		.ascii	"\200\200\200\200\200\200\200\200\200\200\200\200\200"
 2076      80808080 
 2076      80808080 
 2076      80
 2077 385d 80808080 		.ascii	"\200\200\200\200\200\200\200\200\200\200\200\200\200"
 2077      80808080 
 2077      80808080 
 2077      80
 2078 386a 80808080 		.ascii	"\200\200\200\200\200\200\200\200\200\200\200\200\200"
 2078      80808080 
 2078      80808080 
 2078      80
 2079 3877 80808080 		.ascii	"\200\200\200\200\200\200\200\200\200\200\200\200\200"
 2079      80808080 
 2079      80808080 
 2079      80
 2080 3884 80808080 		.ascii	"\200\200\200\200\200\200\200\200\200\200\200\200\200"
 2080      80808080 
 2080      80808080 
 2080      80
 2081 3891 80808180 		.ascii	"\200\200\201\200\201\200\201\200\201\200\201\200\201"
 2081      81808180 
 2081      81808180 
ARM GAS  C:\Users\LY\AppData\Local\Temp\ccbRkbv2.s 			page 100


 2081      81
 2082 389e 80808080 		.ascii	"\200\200\200\200\200\200\200\200\200\200\200\200\200"
 2082      80808080 
 2082      80808080 
 2082      80
 2083 38ab 80808080 		.ascii	"\200\200\200\200\200\200\200\200\200\200\200\200\200"
 2083      80808080 
 2083      80808080 
 2083      80
 2084 38b8 80808080 		.ascii	"\200\200\200\200\200\200\200\200\200\200\200\200\200"
 2084      80808080 
 2084      80808080 
 2084      80
 2085 38c5 80808080 		.ascii	"\200\200\200\200\200\200\200\200\200\200\200\200\200"
 2085      80808080 
 2085      80808080 
 2085      80
 2086 38d2 80808080 		.ascii	"\200\200\200\200\200\200\200\200\200\200\201\200\201"
 2086      80808080 
 2086      80808180 
 2086      81
 2087 38df 80818081 		.ascii	"\200\201\200\201\200\201\200\201\200\201\200\201\200"
 2087      80818081 
 2087      80818081 
 2087      80
 2088 38ec 81808080 		.ascii	"\201\200\200\200\200\200\200\200\200\200\200\200\200"
 2088      80808080 
 2088      80808080 
 2088      80
 2089 38f9 80808080 		.ascii	"\200\200\200\200\200\200\200\200\177\200\177\200\177"
 2089      80808080 
 2089      7F807F80 
 2089      7F
 2090 3906 807F807F 		.ascii	"\200\177\200\177\200\177\200\177\200\177\200\177\200"
 2090      807F807F 
 2090      807F807F 
 2090      80
 2091 3913 80808080 		.ascii	"\200\200\200\200\200\200\200\200\200\200\200\200\200"
 2091      80808080 
 2091      80808080 
 2091      80
 2092 3920 80808080 		.ascii	"\200\200\200\200\200\200\200\200\200\200\200\200\200"
 2092      80808080 
 2092      80808080 
 2092      80
 2093 392d 80808080 		.ascii	"\200\200\200\200\200\200\200\200\200\200\200\200\200"
 2093      80808080 
 2093      80808080 
 2093      80
 2094 393a 80808080 		.ascii	"\200\200\200\200\200\200\200\200\200\200\200\200\200"
 2094      80808080 
 2094      80808080 
 2094      80
 2095 3947 80808080 		.ascii	"\200\200\200\200\200\200\200\200\200\200\200\200\200"
 2095      80808080 
 2095      80808080 
 2095      80
ARM GAS  C:\Users\LY\AppData\Local\Temp\ccbRkbv2.s 			page 101


 2096 3954 80808080 		.ascii	"\200\200\200\200\200\200\200\200\200\200\200\200\200"
 2096      80808080 
 2096      80808080 
 2096      80
 2097 3961 80808080 		.ascii	"\200\200\200\200\200\200\200\200\200\200\200\200\200"
 2097      80808080 
 2097      80808080 
 2097      80
 2098 396e 81808180 		.ascii	"\201\200\201\200\200\200\200\200\200\200\200\200\200"
 2098      80808080 
 2098      80808080 
 2098      80
 2099 397b 80808080 		.ascii	"\200\200\200\200\200\200\200\200\200\200\200\200\177"
 2099      80808080 
 2099      80808080 
 2099      7F
 2100 3988 807F807F 		.ascii	"\200\177\200\177\200\177\200\177\200\177\200\200\200"
 2100      807F807F 
 2100      807F8080 
 2100      80
 2101 3995 80808080 		.ascii	"\200\200\200\200\200\200\200\200\200\200\200\200\200"
 2101      80808080 
 2101      80808080 
 2101      80
 2102 39a2 80808080 		.ascii	"\200\200\200\200\200\200\200\201\200\201\200\201\200"
 2102      80808081 
 2102      80818081 
 2102      80
 2103 39af 81808180 		.ascii	"\201\200\201\200\200\200\200\200\200\200\200\200\200"
 2103      80808080 
 2103      80808080 
 2103      80
 2104 39bc 80808080 		.ascii	"\200\200\200\200\200\200\200\200\200\177\200\177\200"
 2104      80808080 
 2104      807F807F 
 2104      80
 2105 39c9 7F807F80 		.ascii	"\177\200\177\200\177\200\177\200\177\200\177\200\177"
 2105      7F807F80 
 2105      7F807F80 
 2105      7F
 2106 39d6 807F807F 		.ascii	"\200\177\200\177\200\177\200\200\200\200\200\200\200"
 2106      807F8080 
 2106      80808080 
 2106      80
 2107 39e3 80808080 		.ascii	"\200\200\200\200\200\200\200\200\200\200\200\200\200"
 2107      80808080 
 2107      80808080 
 2107      80
 2108 39f0 80808080 		.ascii	"\200\200\200\200\200\200\200\200\200\200\200\200\200"
 2108      80808080 
 2108      80808080 
 2108      80
 2109 39fd 80808080 		.ascii	"\200\200\200\200\200\200\200\200\200\200\200\200\200"
 2109      80808080 
 2109      80808080 
 2109      80
 2110 3a0a 80808080 		.ascii	"\200\200\200\200\200\200\200\200\200\200\200\200\200"
ARM GAS  C:\Users\LY\AppData\Local\Temp\ccbRkbv2.s 			page 102


 2110      80808080 
 2110      80808080 
 2110      80
 2111 3a17 80808080 		.ascii	"\200\200\200\200\200\200\200\200\200\200\200\200\200"
 2111      80808080 
 2111      80808080 
 2111      80
 2112 3a24 80808080 		.ascii	"\200\200\200\200\200\200\200\200\200\200\200\200\200"
 2112      80808080 
 2112      80808080 
 2112      80
 2113 3a31 80808080 		.ascii	"\200\200\200\200\200\200\200\200\200\200\200\200\200"
 2113      80808080 
 2113      80808080 
 2113      80
 2114 3a3e 80808080 		.ascii	"\200\200\200\200\200\200\200\200\200\200\200\200\200"
 2114      80808080 
 2114      80808080 
 2114      80
 2115 3a4b 80808080 		.ascii	"\200\200\200\200\200\200\200\200\200\200\200\200\200"
 2115      80808080 
 2115      80808080 
 2115      80
 2116 3a58 80808080 		.ascii	"\200\200\200\200\200\200\200\200\200\200\200\200\200"
 2116      80808080 
 2116      80808080 
 2116      80
 2117 3a65 80808080 		.ascii	"\200\200\200\200\200\200\200\200\200\200\200\200\200"
 2117      80808080 
 2117      80808080 
 2117      80
 2118 3a72 80808080 		.ascii	"\200\200\200\200\200\200\200\200\200\200\200\200\200"
 2118      80808080 
 2118      80808080 
 2118      80
 2119 3a7f 80808080 		.ascii	"\200\200\200\200\200\200\200\200\200\200\200\200\200"
 2119      80808080 
 2119      80808080 
 2119      80
 2120 3a8c 80808080 		.ascii	"\200\200\200\200\200\200\200\200\200\177\200\177\200"
 2120      80808080 
 2120      807F807F 
 2120      80
 2121 3a99 7F807F80 		.ascii	"\177\200\177\200\177\200\177\200\177\200\177\200\177"
 2121      7F807F80 
 2121      7F807F80 
 2121      7F
 2122 3aa6 807F8080 		.ascii	"\200\177\200\200\177\200\177\200\200\200\200\200\200"
 2122      7F807F80 
 2122      80808080 
 2122      80
 2123 3ab3 80808080 		.ascii	"\200\200\200\200\200\200\200\200\201\200\201\200\201"
 2123      80808080 
 2123      81808180 
 2123      81
 2124 3ac0 80818081 		.ascii	"\200\201\200\201\200\201\200\201\200\201\200\201\200"
 2124      80818081 
ARM GAS  C:\Users\LY\AppData\Local\Temp\ccbRkbv2.s 			page 103


 2124      80818081 
 2124      80
 2125 3acd 80808080 		.ascii	"\200\200\200\200\200\200\200\200\200\200\200\200\200"
 2125      80808080 
 2125      80808080 
 2125      80
 2126 3ada 80808080 		.ascii	"\200\200\200\200\200\200\200\200\200\200\177\200\177"
 2126      80808080 
 2126      80807F80 
 2126      7F
 2127 3ae7 807F8080 		.ascii	"\200\177\200\200\200\200\200\200\200\200\200\200\200"
 2127      80808080 
 2127      80808080 
 2127      80
 2128 3af4 80808080 		.ascii	"\200\200\200\200\200\200\200\200\200\200\200\200\200"
 2128      80808080 
 2128      80808080 
 2128      80
 2129 3b01 80808080 		.ascii	"\200\200\200\200\200\200\200\200\200\200\200\200\200"
 2129      80808080 
 2129      80808080 
 2129      80
 2130 3b0e 80808080 		.ascii	"\200\200\200\200\200\200\200\200\200\200\200\200\200"
 2130      80808080 
 2130      80808080 
 2130      80
 2131 3b1b 80808080 		.ascii	"\200\200\200\200\200\200\200\200\200\177\200\200\200"
 2131      80808080 
 2131      807F8080 
 2131      80
 2132 3b28 80808080 		.ascii	"\200\200\200\200\200\200\200\200\200\200\200\200\200"
 2132      80808080 
 2132      80808080 
 2132      80
 2133 3b35 80808080 		.ascii	"\200\200\200\200\201\200\201\200\201\200\201\200\201"
 2133      81808180 
 2133      81808180 
 2133      81
 2134 3b42 81818282 		.ascii	"\201\201\202\202\201\200\201\200\201\200\201\200\201"
 2134      81808180 
 2134      81808180 
 2134      81
 2135 3b4f 80818080 		.ascii	"\200\201\200\200\200\200\200\200\200\200\200\200\200"
 2135      80808080 
 2135      80808080 
 2135      80
 2136 3b5c 80808080 		.ascii	"\200\200\200\200\200\200\200\200\200\200\200\200\200"
 2136      80808080 
 2136      80808080 
 2136      80
 2137 3b69 80808080 		.ascii	"\200\200\200\200\200\200\200\200\200\200\200\200\200"
 2137      80808080 
 2137      80808080 
 2137      80
 2138 3b76 80808080 		.ascii	"\200\200\200\200\200\200\200\200\200\200\200\200\200"
 2138      80808080 
 2138      80808080 
ARM GAS  C:\Users\LY\AppData\Local\Temp\ccbRkbv2.s 			page 104


 2138      80
 2139 3b83 80808080 		.ascii	"\200\200\200\200\200\200\200\200\200\200\200\200\200"
 2139      80808080 
 2139      80808080 
 2139      80
 2140 3b90 80808080 		.ascii	"\200\200\200\200\200\200\200\200\200\200\200\200\200"
 2140      80808080 
 2140      80808080 
 2140      80
 2141 3b9d 80808080 		.ascii	"\200\200\200\200\177\200\177\200\177\200\177\200\177"
 2141      7F807F80 
 2141      7F807F80 
 2141      7F
 2142 3baa 807F807F 		.ascii	"\200\177\200\177\200\177\200\177\200\177\200\177\200"
 2142      807F807F 
 2142      807F807F 
 2142      80
 2143 3bb7 7F807F80 		.ascii	"\177\200\177\200\177\200\200\200\200\200\200\200\200"
 2143      7F808080 
 2143      80808080 
 2143      80
 2144 3bc4 80808080 		.ascii	"\200\200\200\200\200\200\200\200\200\200\200\200\200"
 2144      80808080 
 2144      80808080 
 2144      80
 2145 3bd1 80808080 		.ascii	"\200\200\200\200\200\200\200\200\200\200\200\200\200"
 2145      80808080 
 2145      80808080 
 2145      80
 2146 3bde 80808080 		.ascii	"\200\200\200\200\200\200\200\200\200\200\200\200\200"
 2146      80808080 
 2146      80808080 
 2146      80
 2147 3beb 80808080 		.ascii	"\200\200\200\200\200\200\200\200\200\200\200\200\200"
 2147      80808080 
 2147      80808080 
 2147      80
 2148 3bf8 80808080 		.ascii	"\200\200\200\200\200\200\200\200\200\200\200\200\200"
 2148      80808080 
 2148      80808080 
 2148      80
 2149 3c05 80808080 		.ascii	"\200\200\200\200\200\200\200\200\200\200\200\200\200"
 2149      80808080 
 2149      80808080 
 2149      80
 2150 3c12 80808080 		.ascii	"\200\200\200\200\200\200\200\200\200\200\200\200\200"
 2150      80808080 
 2150      80808080 
 2150      80
 2151 3c1f 80808080 		.ascii	"\200\200\200\200\200\200\200\200\200\200\200\200\200"
 2151      80808080 
 2151      80808080 
 2151      80
 2152 3c2c 80808080 		.ascii	"\200\200\200\200\200\200\200\200\200\200\200\200\201"
 2152      80808080 
 2152      80808080 
 2152      81
ARM GAS  C:\Users\LY\AppData\Local\Temp\ccbRkbv2.s 			page 105


 2153 3c39 80818080 		.ascii	"\200\201\200\200\200\201\200\200\200\200\200\200\200"
 2153      80818080 
 2153      80808080 
 2153      80
 2154 3c46 80808080 		.ascii	"\200\200\200\200\200\200\200\200\200\200\200\200\200"
 2154      80808080 
 2154      80808080 
 2154      80
 2155 3c53 80808080 		.ascii	"\200\200\200\200\200\200\200\200\200\200\200\200\200"
 2155      80808080 
 2155      80808080 
 2155      80
 2156 3c60 80808080 		.ascii	"\200\200\200\200\200\200\200\200\200\200\200\200\200"
 2156      80808080 
 2156      80808080 
 2156      80
 2157 3c6d 80808080 		.ascii	"\200\200\200\200\200\200\200\200\200\200\200\200\200"
 2157      80808080 
 2157      80808080 
 2157      80
 2158 3c7a 80808080 		.ascii	"\200\200\200\200\200\200\200\200\200\200\200\200\200"
 2158      80808080 
 2158      80808080 
 2158      80
 2159 3c87 80808080 		.ascii	"\200\200\200\200\200\200\200\200\200\200\200\200\200"
 2159      80808080 
 2159      80808080 
 2159      80
 2160 3c94 80808080 		.ascii	"\200\200\200\200\200\200\200\200\200\200\200\200\200"
 2160      80808080 
 2160      80808080 
 2160      80
 2161 3ca1 80808080 		.ascii	"\200\200\200\200\200\200\200\200\200\200\200\200\200"
 2161      80808080 
 2161      80808080 
 2161      80
 2162 3cae 80808080 		.ascii	"\200\200\200\200\200\200\200\200\200\200\200\200\200"
 2162      80808080 
 2162      80808080 
 2162      80
 2163 3cbb 80808080 		.ascii	"\200\200\200\200\200\200\200\200\200\200\200\200\200"
 2163      80808080 
 2163      80808080 
 2163      80
 2164 3cc8 80808080 		.ascii	"\200\200\200\200\200\200\200\200\200\200\200\200\200"
 2164      80808080 
 2164      80808080 
 2164      80
 2165 3cd5 80818081 		.ascii	"\200\201\200\201\200\201\200\201\200\201\200\201\200"
 2165      80818081 
 2165      80818081 
 2165      80
 2166 3ce2 81808080 		.ascii	"\201\200\200\200\200\200\200\200\200\200\200\200\200"
 2166      80808080 
 2166      80808080 
 2166      80
 2167 3cef 80808080 		.ascii	"\200\200\200\200\200\200\200\200\200\200\200\200\200"
ARM GAS  C:\Users\LY\AppData\Local\Temp\ccbRkbv2.s 			page 106


 2167      80808080 
 2167      80808080 
 2167      80
 2168 3cfc 80808080 		.ascii	"\200\200\200\200\200\200\200\200\200\200\200\200\200"
 2168      80808080 
 2168      80808080 
 2168      80
 2169 3d09 80808080 		.ascii	"\200\200\200\200\200\200\200\200\200\200\200\200\200"
 2169      80808080 
 2169      80808080 
 2169      80
 2170 3d16 80808080 		.ascii	"\200\200\200\200\200\200\200\200\200\200\200\200\200"
 2170      80808080 
 2170      80808080 
 2170      80
 2171 3d23 80808080 		.ascii	"\200\200\200\200\200\200\200\200\200\200\200\200\200"
 2171      80808080 
 2171      80808080 
 2171      80
 2172 3d30 80808080 		.ascii	"\200\200\200\200\200\200\200\200\200\200\200\200\200"
 2172      80808080 
 2172      80808080 
 2172      80
 2173 3d3d 80808080 		.ascii	"\200\200\200\200\200\200\200\200\200\200\200\200\200"
 2173      80808080 
 2173      80808080 
 2173      80
 2174 3d4a 80808080 		.ascii	"\200\200\200\200\200\200\200\200\200\200\200\200\200"
 2174      80808080 
 2174      80808080 
 2174      80
 2175 3d57 80808080 		.ascii	"\200\200\200\200\200\200\200\200\200\200\200\200\200"
 2175      80808080 
 2175      80808080 
 2175      80
 2176 3d64 80808080 		.ascii	"\200\200\200\200\200\200\200\200\200\200\200\200\200"
 2176      80808080 
 2176      80808080 
 2176      80
 2177 3d71 80808080 		.ascii	"\200\200\200\200\200\200\200\200\200\200\200\200\200"
 2177      80808080 
 2177      80808080 
 2177      80
 2178 3d7e 80808080 		.ascii	"\200\200\200\200\200\200\200\200\200\200\200\200\200"
 2178      80808080 
 2178      80808080 
 2178      80
 2179 3d8b 80808080 		.ascii	"\200\200\200\200\200\200\200\200\200\200\200\200\200"
 2179      80808080 
 2179      80808080 
 2179      80
 2180 3d98 80808080 		.ascii	"\200\200\200\200\200\200\200\200\200\200\200\200\200"
 2180      80808080 
 2180      80808080 
 2180      80
 2181 3da5 80808080 		.ascii	"\200\200\200\200\200\200\200\200\200\200\200\200\200"
 2181      80808080 
ARM GAS  C:\Users\LY\AppData\Local\Temp\ccbRkbv2.s 			page 107


 2181      80808080 
 2181      80
 2182 3db2 80808080 		.ascii	"\200\200\200\200\200\200\200\200\200\200\200\200\200"
 2182      80808080 
 2182      80808080 
 2182      80
 2183 3dbf 80808080 		.ascii	"\200\200\200\200\200\200\200\200\200\200\200\200\200"
 2183      80808080 
 2183      80808080 
 2183      80
 2184 3dcc 80808080 		.ascii	"\200\200\200\200\200\200\200\200\200\200\200\200\200"
 2184      80808080 
 2184      80808080 
 2184      80
 2185 3dd9 80808080 		.ascii	"\200\200\200\200\200\200\200\200\200\200\200\200\200"
 2185      80808080 
 2185      80808080 
 2185      80
 2186 3de6 80808080 		.ascii	"\200\200\200\200\200\200\200\200\200\200\200\200\200"
 2186      80808080 
 2186      80808080 
 2186      80
 2187 3df3 80808080 		.ascii	"\200\200\200\200\200\200\200\200\200\200\200\200\200"
 2187      80808080 
 2187      80808080 
 2187      80
 2188 3e00 80808080 		.ascii	"\200\200\200\200\200\200\200\200\200\200\200\200\200"
 2188      80808080 
 2188      80808080 
 2188      80
 2189 3e0d 80808080 		.ascii	"\200\200\200\200\200\200\200\200\200\200\200\200\200"
 2189      80808080 
 2189      80808080 
 2189      80
 2190 3e1a 80808080 		.ascii	"\200\200\200\200\200\200\200\200\200\200\200\200\200"
 2190      80808080 
 2190      80808080 
 2190      80
 2191 3e27 80808080 		.ascii	"\200\200\200\200\200\200\200\200\200\200\200\200\200"
 2191      80808080 
 2191      80808080 
 2191      80
 2192 3e34 80808080 		.ascii	"\200\200\200\200\200\200\200\200\200\200\200\200\200"
 2192      80808080 
 2192      80808080 
 2192      80
 2193 3e41 80808080 		.ascii	"\200\200\200\200\200\200\200\200\200\200\200\200\200"
 2193      80808080 
 2193      80808080 
 2193      80
 2194 3e4e 80808080 		.ascii	"\200\200\200\200\200\200\200\200\200\200\200\200\200"
 2194      80808080 
 2194      80808080 
 2194      80
 2195 3e5b 80808080 		.ascii	"\200\200\200\200\200\200\200\200\200\200\200\200\200"
 2195      80808080 
 2195      80808080 
ARM GAS  C:\Users\LY\AppData\Local\Temp\ccbRkbv2.s 			page 108


 2195      80
 2196 3e68 80808080 		.ascii	"\200\200\200\200\200\200\200\200\200\200\200\200\200"
 2196      80808080 
 2196      80808080 
 2196      80
 2197 3e75 81808180 		.ascii	"\201\200\201\200\201\200\201\200\201\200\201"
 2197      81808180 
 2197      818081
 2198 3e80 80818180 		.ascii	"\200\201\201\200\201\200\201\200\200\200\200\200\200"
 2198      81808180 
 2198      80808080 
 2198      80
 2199 3e8d 80808080 		.ascii	"\200\200\200\200\200\200\200\200\200\200\200\200\200"
 2199      80808080 
 2199      80808080 
 2199      80
 2200 3e9a 80808080 		.ascii	"\200\200\200\200\200\200\200\200\200\200\200\200\200"
 2200      80808080 
 2200      80808080 
 2200      80
 2201 3ea7 80808080 		.ascii	"\200\200\200\200\200\200\200\200\200\200\200\200\200"
 2201      80808080 
 2201      80808080 
 2201      80
 2202 3eb4 80808080 		.ascii	"\200\200\200\200\200\200\200\200\200\200\200\200\200"
 2202      80808080 
 2202      80808080 
 2202      80
 2203 3ec1 80808080 		.ascii	"\200\200\200\200\200\200\200\200\200\200\200\200\200"
 2203      80808080 
 2203      80808080 
 2203      80
 2204 3ece 80808080 		.ascii	"\200\200\200\200\200\200\200\200\200\200\200\200\200"
 2204      80808080 
 2204      80808080 
 2204      80
 2205 3edb 7F807F80 		.ascii	"\177\200\177\200\200\200\200\200\200\200\200\200\200"
 2205      80808080 
 2205      80808080 
 2205      80
 2206 3ee8 80808080 		.ascii	"\200\200\200\200\200\200\200\200\200\200\200\200\200"
 2206      80808080 
 2206      80808080 
 2206      80
 2207 3ef5 80808080 		.ascii	"\200\200\200\200\200\201\200\201\200\200\200\200\200"
 2207      80818081 
 2207      80808080 
 2207      80
 2208 3f02 80808080 		.ascii	"\200\200\200\200\200\200\200\200\200\200\200\200\200"
 2208      80808080 
 2208      80808080 
 2208      80
 2209 3f0f 80808080 		.ascii	"\200\200\200\200\200\200\200\200\200\200\200\200\200"
 2209      80808080 
 2209      80808080 
 2209      80
 2210 3f1c 80808080 		.ascii	"\200\200\200\200\200\177\200\177\200\177\200\177\200"
ARM GAS  C:\Users\LY\AppData\Local\Temp\ccbRkbv2.s 			page 109


 2210      807F807F 
 2210      807F807F 
 2210      80
 2211 3f29 7F807F80 		.ascii	"\177\200\177\200\177\200\200\200\200\200\200\200\200"
 2211      7F808080 
 2211      80808080 
 2211      80
 2212 3f36 80808080 		.ascii	"\200\200\200\200\200\200\200\200\200\200\200\200\200"
 2212      80808080 
 2212      80808080 
 2212      80
 2213 3f43 80818081 		.ascii	"\200\201\200\201\200\201\200\201\201\200\201\200\201"
 2213      80818081 
 2213      81808180 
 2213      81
 2214 3f50 80808080 		.ascii	"\200\200\200\200\200\200\200\200\200\200\200\200\200"
 2214      80808080 
 2214      80808080 
 2214      80
 2215 3f5d 80808080 		.ascii	"\200\200\200\200\200\200\200\200\200\200\200\200\200"
 2215      80808080 
 2215      80808080 
 2215      80
 2216 3f6a 80808080 		.ascii	"\200\200\200\200\200\200\200\200\200\200\200\200\200"
 2216      80808080 
 2216      80808080 
 2216      80
 2217 3f77 80808080 		.ascii	"\200\200\200\200\200\200\200\200\200\200\200\200\200"
 2217      80808080 
 2217      80808080 
 2217      80
 2218 3f84 80808080 		.ascii	"\200\200\200\200\200\200\200\200\200\200\200\200\200"
 2218      80808080 
 2218      80808080 
 2218      80
 2219 3f91 80808080 		.ascii	"\200\200\200\200\200\200\200\200\200\200\200\200\200"
 2219      80808080 
 2219      80808080 
 2219      80
 2220 3f9e 80808080 		.ascii	"\200\200\200\200\200\200\200\200\200\200\200\200\200"
 2220      80808080 
 2220      80808080 
 2220      80
 2221 3fab 80808080 		.ascii	"\200\200\200\200\200\200\200\200\200\200\200\200\200"
 2221      80808080 
 2221      80808080 
 2221      80
 2222 3fb8 7F807F80 		.ascii	"\177\200\177\200\177\200\177\200\200\200\200\200\200"
 2222      7F807F80 
 2222      80808080 
 2222      80
 2223 3fc5 80808080 		.ascii	"\200\200\200\200\200\200\200\200\200\200\200\200\200"
 2223      80808080 
 2223      80808080 
 2223      80
 2224 3fd2 80808080 		.ascii	"\200\200\200\200\200\200\200\200\200\200\200\200\200"
 2224      80808080 
ARM GAS  C:\Users\LY\AppData\Local\Temp\ccbRkbv2.s 			page 110


 2224      80808080 
 2224      80
 2225 3fdf 80808080 		.ascii	"\200\200\200\200\200\200\200\200\200\200\200\200\200"
 2225      80808080 
 2225      80808080 
 2225      80
 2226 3fec 80808080 		.ascii	"\200\200\200\200\200\200\200\200\200\200\200\200\200"
 2226      80808080 
 2226      80808080 
 2226      80
 2227 3ff9 80808080 		.ascii	"\200\200\200\200\200\200\200\200\200\200\200\200\200"
 2227      80808080 
 2227      80808080 
 2227      80
 2228 4006 80808080 		.ascii	"\200\200\200\200\200\200\200\200\200\200\200\200\200"
 2228      80808080 
 2228      80808080 
 2228      80
 2229 4013 80808080 		.ascii	"\200\200\200\200\201\200\201\200\201\200\201\200\201"
 2229      81808180 
 2229      81808180 
 2229      81
 2230 4020 80818081 		.ascii	"\200\201\200\201\200\200\200\200\200\200\200\200\200"
 2230      80808080 
 2230      80808080 
 2230      80
 2231 402d 80808080 		.ascii	"\200\200\200\200\200\200\200\200\200\200\200\200\200"
 2231      80808080 
 2231      80808080 
 2231      80
 2232 403a 80808080 		.ascii	"\200\200\200\200\200\200\200\200\200\200\200\200\200"
 2232      80808080 
 2232      80808080 
 2232      80
 2233 4047 80808080 		.ascii	"\200\200\200\200\200\200\200\200\200\200\200\200\200"
 2233      80808080 
 2233      80808080 
 2233      80
 2234 4054 80808080 		.ascii	"\200\200\200\200\200\200\200\200\200\200\200\200\200"
 2234      80808080 
 2234      80808080 
 2234      80
 2235 4061 80808080 		.ascii	"\200\200\200\200\200\200\200\200\200\200\200\200\200"
 2235      80808080 
 2235      80808080 
 2235      80
 2236 406e 80808080 		.ascii	"\200\200\200\200\200\200\200\200\200\200\200\200\200"
 2236      80808080 
 2236      80808080 
 2236      80
 2237 407b 80808080 		.ascii	"\200\200\200\200\200\200\200\200\200\200\200\200\200"
 2237      80808080 
 2237      80808080 
 2237      80
 2238 4088 80808080 		.ascii	"\200\200\200\200\200\200\200\200\200\200\200\200\200"
 2238      80808080 
 2238      80808080 
ARM GAS  C:\Users\LY\AppData\Local\Temp\ccbRkbv2.s 			page 111


 2238      80
 2239 4095 80808080 		.ascii	"\200\200\200\200\200\200\200\200\200\200\200\200\200"
 2239      80808080 
 2239      80808080 
 2239      80
 2240 40a2 80808080 		.ascii	"\200\200\200\200\200\200\200\200\200\200\200\200\200"
 2240      80808080 
 2240      80808080 
 2240      80
 2241 40af 80808080 		.ascii	"\200\200\200\200\200\200\200\200\200\200\200\200\200"
 2241      80808080 
 2241      80808080 
 2241      80
 2242 40bc 7F807F7F 		.ascii	"\177\200\177\177\200\177\200\177\200\177\200\177\200"
 2242      807F807F 
 2242      807F807F 
 2242      80
 2243 40c9 7F808080 		.ascii	"\177\200\200\200\200\200\200\200\200\200\200\200\200"
 2243      80808080 
 2243      80808080 
 2243      80
 2244 40d6 80808080 		.ascii	"\200\200\200\200\200\200\200\200\200\200\200\200\200"
 2244      80808080 
 2244      80808080 
 2244      80
 2245 40e3 80808080 		.ascii	"\200\200\200\200\200\200\200\200\200\200\200\200\200"
 2245      80808080 
 2245      80808080 
 2245      80
 2246 40f0 80808080 		.ascii	"\200\200\200\200\200\200\200\200\200\200\200\200\200"
 2246      80808080 
 2246      80808080 
 2246      80
 2247 40fd 80808080 		.ascii	"\200\200\200\200\200\200\200\200\200\200\200\200\200"
 2247      80808080 
 2247      80808080 
 2247      80
 2248 410a 80808080 		.ascii	"\200\200\200\200\200\200\200\200\200\200\200\200\177"
 2248      80808080 
 2248      80808080 
 2248      7F
 2249 4117 80808080 		.ascii	"\200\200\200\200\200\200\200\200\200\200\200\200\200"
 2249      80808080 
 2249      80808080 
 2249      80
 2250 4124 80808080 		.ascii	"\200\200\200\200\200\200\200\200\200\200\200\200\200"
 2250      80808080 
 2250      80808080 
 2250      80
 2251 4131 80808081 		.ascii	"\200\200\200\201\200\201\200\201\200\201\200\201\200"
 2251      80818081 
 2251      80818081 
 2251      80
 2252 413e 81808180 		.ascii	"\201\200\201\200\201\200\200\200\200\200\200\200\200"
 2252      81808080 
 2252      80808080 
 2252      80
ARM GAS  C:\Users\LY\AppData\Local\Temp\ccbRkbv2.s 			page 112


 2253 414b 80808080 		.ascii	"\200\200\200\200\200\200\200\200\200\200\200\200\200"
 2253      80808080 
 2253      80808080 
 2253      80
 2254 4158 80808080 		.ascii	"\200\200\200\200\200\200\200\200\200\200\200\200\200"
 2254      80808080 
 2254      80808080 
 2254      80
 2255 4165 80808080 		.ascii	"\200\200\200\200\200\200\200\200\200\200\200\200\200"
 2255      80808080 
 2255      80808080 
 2255      80
 2256 4172 80808180 		.ascii	"\200\200\201\200\201\200\201\200\201\200\201\200\201"
 2256      81808180 
 2256      81808180 
 2256      81
 2257 417f 80808080 		.ascii	"\200\200\200\200\200\200\200\200\200\200\200\200\200"
 2257      80808080 
 2257      80808080 
 2257      80
 2258 418c 80808080 		.ascii	"\200\200\200\200\200\200\200\200\200\200\177\200\177"
 2258      80808080 
 2258      80807F80 
 2258      7F
 2259 4199 807F807F 		.ascii	"\200\177\200\177\200\177\200\177\200\200\200\200\200"
 2259      807F807F 
 2259      80808080 
 2259      80
 2260 41a6 80808080 		.ascii	"\200\200\200\200\200\200\200\200\200\200\200\200\200"
 2260      80808080 
 2260      80808080 
 2260      80
 2261 41b3 80808080 		.ascii	"\200\200\200\200\200\200\200\200\200\200\200\200\200"
 2261      80808080 
 2261      80808080 
 2261      80
 2262 41c0 80808080 		.ascii	"\200\200\200\200\200\200\200\200\200\200\200\200\200"
 2262      80808080 
 2262      80808080 
 2262      80
 2263 41cd 80808080 		.ascii	"\200\200\200\200\200\200\200\200\200\200\200\200\200"
 2263      80808080 
 2263      80808080 
 2263      80
 2264 41da 80808080 		.ascii	"\200\200\200\200\200\200\177\200\177\200\177\200\200"
 2264      80807F80 
 2264      7F807F80 
 2264      80
 2265 41e7 80808080 		.ascii	"\200\200\200\200\200\200\200\200\200\200\200\200\200"
 2265      80808080 
 2265      80808080 
 2265      80
 2266 41f4 80808080 		.ascii	"\200\200\200\200\200\200\200\200\200\200\200\200\200"
 2266      80808080 
 2266      80808080 
 2266      80
 2267 4201 80808080 		.ascii	"\200\200\200\200\200\200\200\200\200\200\200\200\200"
ARM GAS  C:\Users\LY\AppData\Local\Temp\ccbRkbv2.s 			page 113


 2267      80808080 
 2267      80808080 
 2267      80
 2268 420e 80808080 		.ascii	"\200\200\200\200\200\200\200\200\200\200\200\200\200"
 2268      80808080 
 2268      80808080 
 2268      80
 2269 421b 8080807F 		.ascii	"\200\200\200\177\200\177\200\177\200\177\200\200\200"
 2269      807F807F 
 2269      807F8080 
 2269      80
 2270 4228 80808080 		.ascii	"\200\200\200\200\200\200\200\200\200\200\200\200\200"
 2270      80808080 
 2270      80808080 
 2270      80
 2271 4235 80808080 		.ascii	"\200\200\200\200\200\200\200\200\200\200\200\200\201"
 2271      80808080 
 2271      80808080 
 2271      81
 2272 4242 80818081 		.ascii	"\200\201\200\201\200\201\200\201\200\201\200\201\200"
 2272      80818081 
 2272      80818081 
 2272      80
 2273 424f 80808080 		.ascii	"\200\200\200\200\200\200\200\200\200\200\200\200\200"
 2273      80808080 
 2273      80808080 
 2273      80
 2274 425c 80808080 		.ascii	"\200\200\200\200\200\200\200\200\200\200\200\200\200"
 2274      80808080 
 2274      80808080 
 2274      80
 2275 4269 80808080 		.ascii	"\200\200\200\200\200\200\200\200\200\200\200\200\200"
 2275      80808080 
 2275      80808080 
 2275      80
 2276 4276 80808080 		.ascii	"\200\200\200\200\200\200\200\200\200\200\200\200\200"
 2276      80808080 
 2276      80808080 
 2276      80
 2277 4283 80808080 		.ascii	"\200\200\200\200\200\200\201\200\201\200\200\200\200"
 2277      80808180 
 2277      81808080 
 2277      80
 2278 4290 80808080 		.ascii	"\200\200\200\200\200\200\200\200\200\200\200\200\200"
 2278      80808080 
 2278      80808080 
 2278      80
 2279 429d 80808080 		.ascii	"\200\200\200\200\200\200\200\200\200\200\200\200\200"
 2279      80808080 
 2279      80808080 
 2279      80
 2280 42aa 80808080 		.ascii	"\200\200\200\200\200\200\200\200\200\200\200\200\200"
 2280      80808080 
 2280      80808080 
 2280      80
 2281 42b7 80808080 		.ascii	"\200\200\200\200\200\200\200\200\200\200\200\200\200"
 2281      80808080 
ARM GAS  C:\Users\LY\AppData\Local\Temp\ccbRkbv2.s 			page 114


 2281      80808080 
 2281      80
 2282 42c4 80808080 		.ascii	"\200\200\200\200\200\200\200\200\200\200\200\200\200"
 2282      80808080 
 2282      80808080 
 2282      80
 2283 42d1 80808080 		.ascii	"\200\200\200\200\200\200\200\200\200\200\200\200\200"
 2283      80808080 
 2283      80808080 
 2283      80
 2284 42de 80808080 		.ascii	"\200\200\200\200\200\200\200\200\200\200\200\200\200"
 2284      80808080 
 2284      80808080 
 2284      80
 2285 42eb 80808080 		.ascii	"\200\200\200\200\200\200\200\200\200\200\200\200\200"
 2285      80808080 
 2285      80808080 
 2285      80
 2286 42f8 80808080 		.ascii	"\200\200\200\200\200\200\200\200\200\200\200\200\200"
 2286      80808080 
 2286      80808080 
 2286      80
 2287 4305 80808080 		.ascii	"\200\200\200\200\200\200\200\200\200\200\200\200\200"
 2287      80808080 
 2287      80808080 
 2287      80
 2288 4312 80808080 		.ascii	"\200\200\200\200\200\200\200\200\200\200\200\200\200"
 2288      80808080 
 2288      80808080 
 2288      80
 2289 431f 80808080 		.ascii	"\200\200\200\200\200\200\200\200\200\200\200\200\200"
 2289      80808080 
 2289      80808080 
 2289      80
 2290 432c 80808080 		.ascii	"\200\200\200\200\200\200\200\200\200\200\200\200\200"
 2290      80808080 
 2290      80808080 
 2290      80
 2291 4339 80808080 		.ascii	"\200\200\200\200\200\200\200\200\200\200\200\200\200"
 2291      80808080 
 2291      80808080 
 2291      80
 2292 4346 80808180 		.ascii	"\200\200\201\200\201\200\201\200\200\200\200\200\200"
 2292      81808180 
 2292      80808080 
 2292      80
 2293 4353 80808080 		.ascii	"\200\200\200\200\200\200\200\200\200\200\200\200\200"
 2293      80808080 
 2293      80808080 
 2293      80
 2294 4360 80808080 		.ascii	"\200\200\200\200\200\200\200\200\200\200\200\200\200"
 2294      80808080 
 2294      80808080 
 2294      80
 2295 436d 80808080 		.ascii	"\200\200\200\200\200\200\200\200\200\200\200\200\200"
 2295      80808080 
 2295      80808080 
ARM GAS  C:\Users\LY\AppData\Local\Temp\ccbRkbv2.s 			page 115


 2295      80
 2296 437a 80808080 		.ascii	"\200\200\200\200\200\200\200\200\200\200\200\200\200"
 2296      80808080 
 2296      80808080 
 2296      80
 2297 4387 80808080 		.ascii	"\200\200\200\200\200\200\200\200\200\200\200\200\200"
 2297      80808080 
 2297      80808080 
 2297      80
 2298 4394 80808080 		.ascii	"\200\200\200\200\200\200\200\200\200\200\200\200\200"
 2298      80808080 
 2298      80808080 
 2298      80
 2299 43a1 80808080 		.ascii	"\200\200\200\200\200\177\200\177\200\177\177\200\177"
 2299      807F807F 
 2299      807F7F80 
 2299      7F
 2300 43ae 807F807F 		.ascii	"\200\177\200\177\200\177\200\177\200\177\200\200\200"
 2300      807F807F 
 2300      807F8080 
 2300      80
 2301 43bb 80808080 		.ascii	"\200\200\200\200\200\200\200\200\200\200\200\200\200"
 2301      80808080 
 2301      80808080 
 2301      80
 2302 43c8 81808180 		.ascii	"\201\200\201\200\201\200\201\200\201\200\201\200\201"
 2302      81808180 
 2302      81808180 
 2302      81
 2303 43d5 80818081 		.ascii	"\200\201\200\201\200\201\200\201\200\201\200\200\200"
 2303      80818081 
 2303      80818080 
 2303      80
 2304 43e2 80808080 		.ascii	"\200\200\200\200\200\200\200\200\200\200\200\200\200"
 2304      80808080 
 2304      80808080 
 2304      80
 2305 43ef 80808080 		.ascii	"\200\200\200\200\200\177\200\177\200\177\200\177\200"
 2305      807F807F 
 2305      807F807F 
 2305      80
 2306 43fc 7F807F80 		.ascii	"\177\200\177\200\177\200\177\200\177\200\200\200\200"
 2306      7F807F80 
 2306      7F808080 
 2306      80
 2307 4409 80808080 		.ascii	"\200\200\200\200\200\200\200\200\200\200\200\200\200"
 2307      80808080 
 2307      80808080 
 2307      80
 2308 4416 80808080 		.ascii	"\200\200\200\200\200\200\200\200\200\200\200\200\200"
 2308      80808080 
 2308      80808080 
 2308      80
 2309 4423 80808080 		.ascii	"\200\200\200\200\200\200\200\200\200\200\200\200\200"
 2309      80808080 
 2309      80808080 
 2309      80
ARM GAS  C:\Users\LY\AppData\Local\Temp\ccbRkbv2.s 			page 116


 2310 4430 80808080 		.ascii	"\200\200\200\200\200\200\200\200\200\200\200\200\200"
 2310      80808080 
 2310      80808080 
