ARM GAS  C:\Users\123\AppData\Local\Temp\ccWgqIzz.s 			page 1


   1              		.cpu cortex-m4
   2              		.eabi_attribute 27, 1
   3              		.eabi_attribute 28, 1
   4              		.eabi_attribute 20, 1
   5              		.eabi_attribute 21, 1
   6              		.eabi_attribute 23, 3
   7              		.eabi_attribute 24, 1
   8              		.eabi_attribute 25, 1
   9              		.eabi_attribute 26, 1
  10              		.eabi_attribute 30, 1
  11              		.eabi_attribute 34, 1
  12              		.eabi_attribute 18, 4
  13              		.file	"user_gpio.c"
  14              		.text
  15              	.Ltext0:
  16              		.cfi_sections	.debug_frame
  17              		.section	.rodata.HAL_GPIO_EXTI_Callback.str1.4,"aMS",%progbits,1
  18              		.align	2
  19              	.LC0:
  20 0000 626C6520 		.ascii	"ble disconnected!\000"
  20      64697363 
  20      6F6E6E65 
  20      63746564 
  20      2100
  21 0012 0000     		.align	2
  22              	.LC1:
  23 0014 626C6520 		.ascii	"ble connected!\000"
  23      636F6E6E 
  23      65637465 
  23      642100
  24 0023 00       		.align	2
  25              	.LC2:
  26 0024 6C697332 		.ascii	"lis2dh interrupt!\000"
  26      64682069 
  26      6E746572 
  26      72757074 
  26      2100
  27 0036 0000     		.align	2
  28              	.LC3:
  29 0038 616C6172 		.ascii	"alarm interrupt!\000"
  29      6D20696E 
  29      74657272 
  29      75707421 
  29      00
  30              		.section	.text.HAL_GPIO_EXTI_Callback,"ax",%progbits
  31              		.align	1
  32              		.global	HAL_GPIO_EXTI_Callback
  33              		.arch armv7e-m
  34              		.syntax unified
  35              		.thumb
  36              		.thumb_func
  37              		.fpu fpv4-sp-d16
  39              	HAL_GPIO_EXTI_Callback:
  40              	.LVL0:
  41              	.LFB316:
  42              		.file 1 "Src/user_gpio.c"
   1:Src/user_gpio.c **** /*
ARM GAS  C:\Users\123\AppData\Local\Temp\ccWgqIzz.s 			page 2


   2:Src/user_gpio.c ****     Copyright 2019 SHENZHEN ZHILAI SCI AND TECH CO., LTD,
   3:Src/user_gpio.c ****     15th floor, C3 building, Nanshan ipark,Xueyuan road 1001,
   4:Src/user_gpio.c **** 	Nanshan District, Shenzhen 518052, China.
   5:Src/user_gpio.c ****     All rights are reserved. Reproduction in whole or in part is prohibited
   6:Src/user_gpio.c ****     without the prior written consent of the copyright owner.
   7:Src/user_gpio.c **** 
   8:Src/user_gpio.c ****     COMPANY CONFIDENTIAL
   9:Src/user_gpio.c **** 
  10:Src/user_gpio.c **** Filename  :  user_gpio.c
  11:Src/user_gpio.c **** 
  12:Src/user_gpio.c **** 
  13:Src/user_gpio.c **** Rev     Date    Author  Comments
  14:Src/user_gpio.c **** -------------------------------------------------------------------------------
  15:Src/user_gpio.c **** 001  2021.3.27   zjs
  16:Src/user_gpio.c **** 002
  17:Src/user_gpio.c **** 003
  18:Src/user_gpio.c **** 004
  19:Src/user_gpio.c **** -------------------------------------------------------------------------------
  20:Src/user_gpio.c **** 
  21:Src/user_gpio.c **** @Begin
  22:Src/user_gpio.c **** @module
  23:Src/user_gpio.c ****         Module name
  24:Src/user_gpio.c ****         Module description (bottom GPIO pin package)
  25:Src/user_gpio.c **** @end
  26:Src/user_gpio.c **** */
  27:Src/user_gpio.c **** 
  28:Src/user_gpio.c **** /* Includes ------------------------------------------------------------------*/
  29:Src/user_gpio.c **** #include "user_gpio.h"
  30:Src/user_gpio.c **** 
  31:Src/user_gpio.c **** 
  32:Src/user_gpio.c **** /* USER CODE BEGIN 0 */
  33:Src/user_gpio.c **** uint8_t read_sn74lvc_statua(uint8_t bus_num, uint8_t goods_or_doors);
  34:Src/user_gpio.c **** /*storage door status*/
  35:Src/user_gpio.c **** uint8_t g_stdoor_stat[MAX_DOOR_NUM] = {I_ZERO};
  36:Src/user_gpio.c **** /*storage all doors status, One bit denotes a slot status*/
  37:Src/user_gpio.c **** uint8_t g_door_stat[V_THREE] = {I_ZERO};
  38:Src/user_gpio.c **** /*storage goods status*/
  39:Src/user_gpio.c **** uint8_t g_item_stat[MAX_DOOR_NUM] = {I_ZERO};
  40:Src/user_gpio.c **** /*storage all goods status, One bit denotes a slot status*/
  41:Src/user_gpio.c **** uint8_t g_all_goods_status[V_THREE] = {I_ZERO};
  42:Src/user_gpio.c **** /*open door count*/
  43:Src/user_gpio.c **** volatile uint16_t g_open_luck_time = I_ZERO;
  44:Src/user_gpio.c **** 
  45:Src/user_gpio.c **** /*lock number*/
  46:Src/user_gpio.c **** volatile uint8_t g_lock_number = I_ZERO;
  47:Src/user_gpio.c **** volatile uint8_t g_lock_open_flag = I_ZERO;
  48:Src/user_gpio.c **** 
  49:Src/user_gpio.c **** /*0:e95 disconnected;1:e95 connected*/
  50:Src/user_gpio.c **** volatile uint8_t g_ble_connect_flag = BLE_E95_DISCONNECTED;
  51:Src/user_gpio.c **** /*ble connection timeout,no data in 30s*/
  52:Src/user_gpio.c **** volatile uint32_t g_ble_connect_count = I_ZERO;
  53:Src/user_gpio.c **** 
  54:Src/user_gpio.c **** /*rtc闹钟中断标志位*/
  55:Src/user_gpio.c **** uint8_t g_rtc_alarm_flag = I_ZERO;
  56:Src/user_gpio.c **** 
  57:Src/user_gpio.c **** /**
  58:Src/user_gpio.c ****   * @brief  The application entry point.
ARM GAS  C:\Users\123\AppData\Local\Temp\ccWgqIzz.s 			page 3


  59:Src/user_gpio.c ****   * @retval int
  60:Src/user_gpio.c ****   */
  61:Src/user_gpio.c **** void HAL_GPIO_EXTI_Callback(uint16_t GPIO_Pin)
  62:Src/user_gpio.c **** {
  43              		.loc 1 62 1 view -0
  44              		.cfi_startproc
  45              		@ args = 0, pretend = 0, frame = 0
  46              		@ frame_needed = 0, uses_anonymous_args = 0
  47              		.loc 1 62 1 is_stmt 0 view .LVU1
  48 0000 10B5     		push	{r4, lr}
  49              	.LCFI0:
  50              		.cfi_def_cfa_offset 8
  51              		.cfi_offset 4, -8
  52              		.cfi_offset 14, -4
  53 0002 0446     		mov	r4, r0
  63:Src/user_gpio.c ****     if(GPIO_Pin == GPIO_PIN_0)     /*双边沿触发*/
  54              		.loc 1 63 5 is_stmt 1 view .LVU2
  55              		.loc 1 63 7 is_stmt 0 view .LVU3
  56 0004 0128     		cmp	r0, #1
  57 0006 05D0     		beq	.L7
  58              	.LVL1:
  59              	.L2:
  64:Src/user_gpio.c ****     { 
  65:Src/user_gpio.c ****         if(HAL_GPIO_ReadPin(GPIOA, CONN_IND_Pin) == GPIO_PIN_SET) /*E95连接指令引脚*/
  66:Src/user_gpio.c ****         {
  67:Src/user_gpio.c ****             g_ble_connect_flag = BLE_E95_DISCONNECTED;     /*未连接*/
  68:Src/user_gpio.c ****             printf("ble disconnected!\n");
  69:Src/user_gpio.c ****         }
  70:Src/user_gpio.c ****         else    /*e95 connected*/
  71:Src/user_gpio.c ****         {
  72:Src/user_gpio.c ****             g_ble_connect_flag = BLE_E95_CONNECTED;     /*连接*/
  73:Src/user_gpio.c ****             printf("ble connected!\n");
  74:Src/user_gpio.c ****         }
  75:Src/user_gpio.c ****     }
  76:Src/user_gpio.c ****     if(GPIO_Pin == GPIO_PIN_2)     /*震动传感器中断*/
  60              		.loc 1 76 5 is_stmt 1 view .LVU4
  61              		.loc 1 76 7 is_stmt 0 view .LVU5
  62 0008 042C     		cmp	r4, #4
  63 000a 18D0     		beq	.L8
  64              	.L4:
  77:Src/user_gpio.c ****     {
  78:Src/user_gpio.c ****         printf("lis2dh interrupt!\n");
  79:Src/user_gpio.c ****     }
  80:Src/user_gpio.c ****     if(GPIO_Pin == PCF85263_INT_Pin)
  65              		.loc 1 80 5 is_stmt 1 view .LVU6
  66              		.loc 1 80 7 is_stmt 0 view .LVU7
  67 000c B4F5807F 		cmp	r4, #256
  68 0010 19D0     		beq	.L9
  69              	.L1:
  81:Src/user_gpio.c ****     {
  82:Src/user_gpio.c ****         printf("alarm interrupt!\n");
  83:Src/user_gpio.c ****         g_rtc_alarm_flag = V_ONE;
  84:Src/user_gpio.c ****     }
  85:Src/user_gpio.c **** }
  70              		.loc 1 85 1 view .LVU8
  71 0012 10BD     		pop	{r4, pc}
  72              	.LVL2:
ARM GAS  C:\Users\123\AppData\Local\Temp\ccWgqIzz.s 			page 4


  73              	.L7:
  65:Src/user_gpio.c ****         {
  74              		.loc 1 65 9 is_stmt 1 view .LVU9
  65:Src/user_gpio.c ****         {
  75              		.loc 1 65 12 is_stmt 0 view .LVU10
  76 0014 0121     		movs	r1, #1
  77 0016 4FF09040 		mov	r0, #1207959552
  78              	.LVL3:
  65:Src/user_gpio.c ****         {
  79              		.loc 1 65 12 view .LVU11
  80 001a FFF7FEFF 		bl	HAL_GPIO_ReadPin
  81              	.LVL4:
  65:Src/user_gpio.c ****         {
  82              		.loc 1 65 11 view .LVU12
  83 001e 0128     		cmp	r0, #1
  84 0020 06D0     		beq	.L10
  72:Src/user_gpio.c ****             printf("ble connected!\n");
  85              		.loc 1 72 13 is_stmt 1 view .LVU13
  72:Src/user_gpio.c ****             printf("ble connected!\n");
  86              		.loc 1 72 32 is_stmt 0 view .LVU14
  87 0022 0C4B     		ldr	r3, .L11
  88 0024 0122     		movs	r2, #1
  89 0026 1A70     		strb	r2, [r3]
  73:Src/user_gpio.c ****         }
  90              		.loc 1 73 13 is_stmt 1 view .LVU15
  91 0028 0B48     		ldr	r0, .L11+4
  92 002a FFF7FEFF 		bl	puts
  93              	.LVL5:
  94 002e EBE7     		b	.L2
  95              	.L10:
  67:Src/user_gpio.c ****             printf("ble disconnected!\n");
  96              		.loc 1 67 13 view .LVU16
  67:Src/user_gpio.c ****             printf("ble disconnected!\n");
  97              		.loc 1 67 32 is_stmt 0 view .LVU17
  98 0030 084B     		ldr	r3, .L11
  99 0032 0022     		movs	r2, #0
 100 0034 1A70     		strb	r2, [r3]
  68:Src/user_gpio.c ****         }
 101              		.loc 1 68 13 is_stmt 1 view .LVU18
 102 0036 0948     		ldr	r0, .L11+8
 103 0038 FFF7FEFF 		bl	puts
 104              	.LVL6:
 105 003c E4E7     		b	.L2
 106              	.L8:
  78:Src/user_gpio.c ****     }
 107              		.loc 1 78 9 view .LVU19
 108 003e 0848     		ldr	r0, .L11+12
 109 0040 FFF7FEFF 		bl	puts
 110              	.LVL7:
 111 0044 E2E7     		b	.L4
 112              	.L9:
  82:Src/user_gpio.c ****         g_rtc_alarm_flag = V_ONE;
 113              		.loc 1 82 9 view .LVU20
 114 0046 0748     		ldr	r0, .L11+16
 115 0048 FFF7FEFF 		bl	puts
 116              	.LVL8:
  83:Src/user_gpio.c ****     }
ARM GAS  C:\Users\123\AppData\Local\Temp\ccWgqIzz.s 			page 5


 117              		.loc 1 83 9 view .LVU21
  83:Src/user_gpio.c ****     }
 118              		.loc 1 83 26 is_stmt 0 view .LVU22
 119 004c 064B     		ldr	r3, .L11+20
 120 004e 0122     		movs	r2, #1
 121 0050 1A70     		strb	r2, [r3]
 122              		.loc 1 85 1 view .LVU23
 123 0052 DEE7     		b	.L1
 124              	.L12:
 125              		.align	2
 126              	.L11:
 127 0054 00000000 		.word	.LANCHOR0
 128 0058 14000000 		.word	.LC1
 129 005c 00000000 		.word	.LC0
 130 0060 24000000 		.word	.LC2
 131 0064 38000000 		.word	.LC3
 132 0068 00000000 		.word	.LANCHOR1
 133              		.cfi_endproc
 134              	.LFE316:
 136              		.section	.rodata.extend_ic_74hc245_ctrl_lock.str1.4,"aMS",%progbits,1
 137              		.align	2
 138              	.LC4:
 139 0000 646F6F72 		.ascii	"door number error!\000"
 139      206E756D 
 139      62657220 
 139      6572726F 
 139      722100
 140 0013 00       		.align	2
 141              	.LC5:
 142 0014 756E6B6E 		.ascii	"unknown error!\000"
 142      6F776E20 
 142      6572726F 
 142      722100
 143 0023 00       		.align	2
 144              	.LC6:
 145 0024 62757320 		.ascii	"bus ctrl error!\000"
 145      6374726C 
 145      20657272 
 145      6F722100 
 146              		.align	2
 147              	.LC7:
 148 0034 6C6F636B 		.ascii	"lock number error!\000"
 148      206E756D 
 148      62657220 
 148      6572726F 
 148      722100
 149              		.section	.text.extend_ic_74hc245_ctrl_lock,"ax",%progbits
 150              		.align	1
 151              		.global	extend_ic_74hc245_ctrl_lock
 152              		.syntax unified
 153              		.thumb
 154              		.thumb_func
 155              		.fpu fpv4-sp-d16
 157              	extend_ic_74hc245_ctrl_lock:
 158              	.LVL9:
 159              	.LFB317:
  86:Src/user_gpio.c **** 
ARM GAS  C:\Users\123\AppData\Local\Temp\ccWgqIzz.s 			page 6


  87:Src/user_gpio.c **** /*********************************************************************
  88:Src/user_gpio.c ****  *	function name: ctrl extend in 74hc245
  89:Src/user_gpio.c ****  *	describe:  
  90:Src/user_gpio.c ****  *	input: door_num 0-23; en_or_dis:open or close slot
  91:Src/user_gpio.c ****  *	output:
  92:Src/user_gpio.c ****  *	return:lock_ctrl_return_type_t:	LOCK_CTRL_OK,
  93:Src/user_gpio.c ****  *                                    LOCK_CTRL_FIALED,
  94:Src/user_gpio.c ****                                         LOCK_NUM_ERR
  95:Src/user_gpio.c ****  *	revision histroy :   1.
  96:Src/user_gpio.c ****  *                      2.
  97:Src/user_gpio.c ****  **********************************************************************/
  98:Src/user_gpio.c **** lock_ctrl_return_type_t extend_ic_74hc245_ctrl_lock(uint8_t door_num, uint8_t en_or_dis)
  99:Src/user_gpio.c **** {
 160              		.loc 1 99 1 is_stmt 1 view -0
 161              		.cfi_startproc
 162              		@ args = 0, pretend = 0, frame = 0
 163              		@ frame_needed = 0, uses_anonymous_args = 0
 164              		.loc 1 99 1 is_stmt 0 view .LVU25
 165 0000 38B5     		push	{r3, r4, r5, lr}
 166              	.LCFI1:
 167              		.cfi_def_cfa_offset 16
 168              		.cfi_offset 3, -16
 169              		.cfi_offset 4, -12
 170              		.cfi_offset 5, -8
 171              		.cfi_offset 14, -4
 172 0002 0446     		mov	r4, r0
 173 0004 0D46     		mov	r5, r1
 100:Src/user_gpio.c ****     /*74HC245的B1、B2、B3、B4、B6、B7用于控制开锁，B0、B5用于控制红外电源
 101:Src/user_gpio.c ****       将格口锁号对应到相应的控制线上*/
 102:Src/user_gpio.c ****     lock_ctrl_return_type_t m_door_num_result = LOCK_CTRL_OK;
 174              		.loc 1 102 5 is_stmt 1 view .LVU26
 175              	.LVL10:
 103:Src/user_gpio.c ****     uint8_t m_select_ctrl = I_ZERO;
 176              		.loc 1 103 5 view .LVU27
 104:Src/user_gpio.c ****     if(door_num <= V_FIVE)
 177              		.loc 1 104 5 view .LVU28
 178              		.loc 1 104 7 is_stmt 0 view .LVU29
 179 0006 0528     		cmp	r0, #5
 180 0008 18D9     		bls	.L48
 105:Src/user_gpio.c ****     {
 106:Src/user_gpio.c ****         m_select_ctrl = V_ONE;
 107:Src/user_gpio.c ****     }
 108:Src/user_gpio.c ****     else if(door_num <= V_ELEVEN)
 181              		.loc 1 108 10 is_stmt 1 view .LVU30
 182              		.loc 1 108 12 is_stmt 0 view .LVU31
 183 000a 0B28     		cmp	r0, #11
 184 000c 03D8     		bhi	.L15
 109:Src/user_gpio.c ****     {
 110:Src/user_gpio.c ****         door_num -= V_SIX;
 185              		.loc 1 110 9 is_stmt 1 view .LVU32
 186              		.loc 1 110 18 is_stmt 0 view .LVU33
 187 000e 0638     		subs	r0, r0, #6
 188              	.LVL11:
 189              		.loc 1 110 18 view .LVU34
 190 0010 C4B2     		uxtb	r4, r0
 191              	.LVL12:
 111:Src/user_gpio.c ****         m_select_ctrl = V_TWO;
ARM GAS  C:\Users\123\AppData\Local\Temp\ccWgqIzz.s 			page 7


 192              		.loc 1 111 9 is_stmt 1 view .LVU35
 193              		.loc 1 111 23 is_stmt 0 view .LVU36
 194 0012 0223     		movs	r3, #2
 195 0014 13E0     		b	.L14
 196              	.LVL13:
 197              	.L15:
 112:Src/user_gpio.c ****     }
 113:Src/user_gpio.c ****     else if(door_num <= V_SEVENTEEN)
 198              		.loc 1 113 10 is_stmt 1 view .LVU37
 199              		.loc 1 113 12 is_stmt 0 view .LVU38
 200 0016 1128     		cmp	r0, #17
 201 0018 04D8     		bhi	.L16
 114:Src/user_gpio.c ****     {
 115:Src/user_gpio.c ****         door_num -= V_TWELVE;
 202              		.loc 1 115 9 is_stmt 1 view .LVU39
 203              		.loc 1 115 18 is_stmt 0 view .LVU40
 204 001a A0F10C03 		sub	r3, r0, #12
 205 001e DCB2     		uxtb	r4, r3
 206              	.LVL14:
 116:Src/user_gpio.c ****         m_select_ctrl = V_ONE;
 207              		.loc 1 116 9 is_stmt 1 view .LVU41
 208              		.loc 1 116 23 is_stmt 0 view .LVU42
 209 0020 0123     		movs	r3, #1
 210 0022 0CE0     		b	.L14
 211              	.LVL15:
 212              	.L16:
 117:Src/user_gpio.c ****     }
 118:Src/user_gpio.c ****     else if(door_num <= V_TWENTY_THREE)
 213              		.loc 1 118 10 is_stmt 1 view .LVU43
 214              		.loc 1 118 12 is_stmt 0 view .LVU44
 215 0024 1728     		cmp	r0, #23
 216 0026 04D8     		bhi	.L17
 119:Src/user_gpio.c ****     {
 120:Src/user_gpio.c ****         door_num -= V_EIGHTTEEN;
 217              		.loc 1 120 9 is_stmt 1 view .LVU45
 218              		.loc 1 120 18 is_stmt 0 view .LVU46
 219 0028 A0F11203 		sub	r3, r0, #18
 220 002c DCB2     		uxtb	r4, r3
 221              	.LVL16:
 121:Src/user_gpio.c ****         m_select_ctrl = V_TWO;
 222              		.loc 1 121 9 is_stmt 1 view .LVU47
 223              		.loc 1 121 23 is_stmt 0 view .LVU48
 224 002e 0223     		movs	r3, #2
 225 0030 05E0     		b	.L14
 226              	.LVL17:
 227              	.L17:
 122:Src/user_gpio.c ****     }
 123:Src/user_gpio.c ****     else
 124:Src/user_gpio.c ****     {
 125:Src/user_gpio.c ****         printf("door number error!");
 228              		.loc 1 125 9 is_stmt 1 view .LVU49
 229 0032 8048     		ldr	r0, .L65
 230              	.LVL18:
 231              		.loc 1 125 9 is_stmt 0 view .LVU50
 232 0034 FFF7FEFF 		bl	printf
 233              	.LVL19:
 126:Src/user_gpio.c ****         return LOCK_NUM_ERR;
ARM GAS  C:\Users\123\AppData\Local\Temp\ccWgqIzz.s 			page 8


 234              		.loc 1 126 9 is_stmt 1 view .LVU51
 235              		.loc 1 126 16 is_stmt 0 view .LVU52
 236 0038 0220     		movs	r0, #2
 237 003a F2E0     		b	.L18
 238              	.LVL20:
 239              	.L48:
 106:Src/user_gpio.c ****     }
 240              		.loc 1 106 23 view .LVU53
 241 003c 0123     		movs	r3, #1
 242              	.LVL21:
 243              	.L14:
 127:Src/user_gpio.c ****     }
 128:Src/user_gpio.c ****     if(door_num < EXTEND_IC_CTRL_MAX_LOCK_NUM)     /*一片74HC245控制6个格口锁*/
 244              		.loc 1 128 5 is_stmt 1 view .LVU54
 245              		.loc 1 128 7 is_stmt 0 view .LVU55
 246 003e 052C     		cmp	r4, #5
 247 0040 00F2F080 		bhi	.L19
 129:Src/user_gpio.c ****     {
 130:Src/user_gpio.c ****         if((en_or_dis == HC245_BUS_EN) || (en_or_dis == HC245_BUS_DIS))     /*开锁或者关锁*/
 248              		.loc 1 130 9 is_stmt 1 view .LVU56
 249              		.loc 1 130 11 is_stmt 0 view .LVU57
 250 0044 012D     		cmp	r5, #1
 251 0046 00F2E880 		bhi	.L20
 131:Src/user_gpio.c ****         {
 132:Src/user_gpio.c ****             switch(door_num)     /*锁号*/
 252              		.loc 1 132 13 is_stmt 1 view .LVU58
 253 004a 052C     		cmp	r4, #5
 254 004c 00F2EF80 		bhi	.L49
 255 0050 DFE804F0 		tbb	[pc, r4]
 256              	.L22:
 257 0054 03       		.byte	(.L27-.L22)/2
 258 0055 2F       		.byte	(.L26-.L22)/2
 259 0056 5B       		.byte	(.L25-.L22)/2
 260 0057 73       		.byte	(.L24-.L22)/2
 261 0058 8B       		.byte	(.L23-.L22)/2
 262 0059 B7       		.byte	(.L21-.L22)/2
 263              		.p2align 1
 264              	.L27:
 133:Src/user_gpio.c ****             {
 134:Src/user_gpio.c ****                 case V_ZERO:
 135:Src/user_gpio.c ****                 {
 136:Src/user_gpio.c ****                     if(en_or_dis == HC245_BUS_EN)
 265              		.loc 1 136 21 view .LVU59
 266              		.loc 1 136 23 is_stmt 0 view .LVU60
 267 005a 012D     		cmp	r5, #1
 268 005c 0AD0     		beq	.L51
 137:Src/user_gpio.c ****                     {
 138:Src/user_gpio.c ****                         if(m_select_ctrl == V_ONE)
 139:Src/user_gpio.c ****                         {
 140:Src/user_gpio.c ****                             CTRL_BUS_A1_HIGH;
 141:Src/user_gpio.c ****                         }
 142:Src/user_gpio.c ****                         else
 143:Src/user_gpio.c ****                         {
 144:Src/user_gpio.c ****                             CTRL_BUS_AO_HIGH;
 145:Src/user_gpio.c ****                         }
 146:Src/user_gpio.c ****                     }
 147:Src/user_gpio.c ****                     else if(en_or_dis == HC245_BUS_DIS)
ARM GAS  C:\Users\123\AppData\Local\Temp\ccWgqIzz.s 			page 9


 269              		.loc 1 147 26 is_stmt 1 view .LVU61
 270              		.loc 1 147 28 is_stmt 0 view .LVU62
 271 005e 1DBB     		cbnz	r5, .L30
 148:Src/user_gpio.c ****                     {
 149:Src/user_gpio.c ****                         if(m_select_ctrl == V_ONE)
 272              		.loc 1 149 25 is_stmt 1 view .LVU63
 273              		.loc 1 149 27 is_stmt 0 view .LVU64
 274 0060 012B     		cmp	r3, #1
 275 0062 19D0     		beq	.L52
 150:Src/user_gpio.c ****                         {
 151:Src/user_gpio.c ****                             CTRL_BUS_A1_LOW;
 152:Src/user_gpio.c ****                         }
 153:Src/user_gpio.c ****                         else
 154:Src/user_gpio.c ****                         {
 155:Src/user_gpio.c ****                             CTRL_BUS_AO_LOW;
 276              		.loc 1 155 29 is_stmt 1 view .LVU65
 277 0064 0022     		movs	r2, #0
 278 0066 4FF48051 		mov	r1, #4096
 279              	.LVL22:
 280              		.loc 1 155 29 is_stmt 0 view .LVU66
 281 006a 7348     		ldr	r0, .L65+4
 282 006c FFF7FEFF 		bl	HAL_GPIO_WritePin
 283              	.LVL23:
 102:Src/user_gpio.c ****     uint8_t m_select_ctrl = I_ZERO;
 284              		.loc 1 102 29 view .LVU67
 285 0070 2846     		mov	r0, r5
 286 0072 D6E0     		b	.L18
 287              	.LVL24:
 288              	.L51:
 138:Src/user_gpio.c ****                         {
 289              		.loc 1 138 25 is_stmt 1 view .LVU68
 138:Src/user_gpio.c ****                         {
 290              		.loc 1 138 27 is_stmt 0 view .LVU69
 291 0074 012B     		cmp	r3, #1
 292 0076 07D0     		beq	.L53
 144:Src/user_gpio.c ****                         }
 293              		.loc 1 144 29 is_stmt 1 view .LVU70
 294 0078 0122     		movs	r2, #1
 295 007a 4FF48051 		mov	r1, #4096
 296              	.LVL25:
 144:Src/user_gpio.c ****                         }
 297              		.loc 1 144 29 is_stmt 0 view .LVU71
 298 007e 6E48     		ldr	r0, .L65+4
 299 0080 FFF7FEFF 		bl	HAL_GPIO_WritePin
 300              	.LVL26:
 102:Src/user_gpio.c ****     uint8_t m_select_ctrl = I_ZERO;
 301              		.loc 1 102 29 view .LVU72
 302 0084 2046     		mov	r0, r4
 303 0086 CCE0     		b	.L18
 304              	.LVL27:
 305              	.L53:
 140:Src/user_gpio.c ****                         }
 306              		.loc 1 140 29 is_stmt 1 view .LVU73
 307 0088 0122     		movs	r2, #1
 308 008a 4FF40061 		mov	r1, #2048
 309              	.LVL28:
 140:Src/user_gpio.c ****                         }
ARM GAS  C:\Users\123\AppData\Local\Temp\ccWgqIzz.s 			page 10


 310              		.loc 1 140 29 is_stmt 0 view .LVU74
 311 008e 6A48     		ldr	r0, .L65+4
 312 0090 FFF7FEFF 		bl	HAL_GPIO_WritePin
 313              	.LVL29:
 102:Src/user_gpio.c ****     uint8_t m_select_ctrl = I_ZERO;
 314              		.loc 1 102 29 view .LVU75
 315 0094 2046     		mov	r0, r4
 316 0096 C4E0     		b	.L18
 317              	.LVL30:
 318              	.L52:
 151:Src/user_gpio.c ****                         }
 319              		.loc 1 151 29 is_stmt 1 view .LVU76
 320 0098 0022     		movs	r2, #0
 321 009a 4FF40061 		mov	r1, #2048
 322              	.LVL31:
 151:Src/user_gpio.c ****                         }
 323              		.loc 1 151 29 is_stmt 0 view .LVU77
 324 009e 6648     		ldr	r0, .L65+4
 325 00a0 FFF7FEFF 		bl	HAL_GPIO_WritePin
 326              	.LVL32:
 102:Src/user_gpio.c ****     uint8_t m_select_ctrl = I_ZERO;
 327              		.loc 1 102 29 view .LVU78
 328 00a4 2846     		mov	r0, r5
 329 00a6 BCE0     		b	.L18
 330              	.LVL33:
 331              	.L30:
 156:Src/user_gpio.c ****                         }
 157:Src/user_gpio.c ****                     }
 158:Src/user_gpio.c ****                     else
 159:Src/user_gpio.c ****                     {
 160:Src/user_gpio.c ****                         printf("unknown error!");
 332              		.loc 1 160 25 is_stmt 1 view .LVU79
 333 00a8 6448     		ldr	r0, .L65+8
 334 00aa FFF7FEFF 		bl	printf
 335              	.LVL34:
 102:Src/user_gpio.c ****     uint8_t m_select_ctrl = I_ZERO;
 336              		.loc 1 102 29 is_stmt 0 view .LVU80
 337 00ae 2046     		mov	r0, r4
 338 00b0 B7E0     		b	.L18
 339              	.LVL35:
 340              	.L26:
 161:Src/user_gpio.c ****                     }
 162:Src/user_gpio.c ****                     break;
 163:Src/user_gpio.c ****                 }
 164:Src/user_gpio.c ****                 case V_ONE:
 165:Src/user_gpio.c ****                 {
 166:Src/user_gpio.c ****                     if(en_or_dis == HC245_BUS_EN)
 341              		.loc 1 166 21 is_stmt 1 view .LVU81
 342              		.loc 1 166 23 is_stmt 0 view .LVU82
 343 00b2 012D     		cmp	r5, #1
 344 00b4 0AD0     		beq	.L54
 167:Src/user_gpio.c ****                     {
 168:Src/user_gpio.c ****                         if(m_select_ctrl == V_ONE)
 169:Src/user_gpio.c ****                         {
 170:Src/user_gpio.c ****                             CTRL_BUS_A2_HIGH;
 171:Src/user_gpio.c ****                         }
 172:Src/user_gpio.c ****                         else
ARM GAS  C:\Users\123\AppData\Local\Temp\ccWgqIzz.s 			page 11


 173:Src/user_gpio.c ****                         {
 174:Src/user_gpio.c ****                             CTRL_BUS_A1_HIGH;
 175:Src/user_gpio.c ****                         }
 176:Src/user_gpio.c ****                     }
 177:Src/user_gpio.c ****                     else if(en_or_dis == HC245_BUS_DIS)
 345              		.loc 1 177 26 is_stmt 1 view .LVU83
 346              		.loc 1 177 28 is_stmt 0 view .LVU84
 347 00b6 1DBB     		cbnz	r5, .L34
 178:Src/user_gpio.c ****                     {
 179:Src/user_gpio.c ****                         if(m_select_ctrl == V_ONE)
 348              		.loc 1 179 25 is_stmt 1 view .LVU85
 349              		.loc 1 179 27 is_stmt 0 view .LVU86
 350 00b8 012B     		cmp	r3, #1
 351 00ba 19D0     		beq	.L55
 180:Src/user_gpio.c ****                         {
 181:Src/user_gpio.c ****                             CTRL_BUS_A2_LOW;
 182:Src/user_gpio.c ****                         }
 183:Src/user_gpio.c ****                         else
 184:Src/user_gpio.c ****                         {
 185:Src/user_gpio.c ****                             CTRL_BUS_A1_LOW;
 352              		.loc 1 185 29 is_stmt 1 view .LVU87
 353 00bc 0022     		movs	r2, #0
 354 00be 4FF40061 		mov	r1, #2048
 355              	.LVL36:
 356              		.loc 1 185 29 is_stmt 0 view .LVU88
 357 00c2 5D48     		ldr	r0, .L65+4
 358 00c4 FFF7FEFF 		bl	HAL_GPIO_WritePin
 359              	.LVL37:
 102:Src/user_gpio.c ****     uint8_t m_select_ctrl = I_ZERO;
 360              		.loc 1 102 29 view .LVU89
 361 00c8 2846     		mov	r0, r5
 362 00ca AAE0     		b	.L18
 363              	.LVL38:
 364              	.L54:
 168:Src/user_gpio.c ****                         {
 365              		.loc 1 168 25 is_stmt 1 view .LVU90
 168:Src/user_gpio.c ****                         {
 366              		.loc 1 168 27 is_stmt 0 view .LVU91
 367 00cc 012B     		cmp	r3, #1
 368 00ce 07D0     		beq	.L56
 174:Src/user_gpio.c ****                         }
 369              		.loc 1 174 29 is_stmt 1 view .LVU92
 370 00d0 0122     		movs	r2, #1
 371 00d2 4FF40061 		mov	r1, #2048
 372              	.LVL39:
 174:Src/user_gpio.c ****                         }
 373              		.loc 1 174 29 is_stmt 0 view .LVU93
 374 00d6 5848     		ldr	r0, .L65+4
 375 00d8 FFF7FEFF 		bl	HAL_GPIO_WritePin
 376              	.LVL40:
 102:Src/user_gpio.c ****     uint8_t m_select_ctrl = I_ZERO;
 377              		.loc 1 102 29 view .LVU94
 378 00dc 0020     		movs	r0, #0
 379 00de A0E0     		b	.L18
 380              	.LVL41:
 381              	.L56:
 170:Src/user_gpio.c ****                         }
ARM GAS  C:\Users\123\AppData\Local\Temp\ccWgqIzz.s 			page 12


 382              		.loc 1 170 29 is_stmt 1 view .LVU95
 383 00e0 0122     		movs	r2, #1
 384 00e2 4FF48061 		mov	r1, #1024
 385              	.LVL42:
 170:Src/user_gpio.c ****                         }
 386              		.loc 1 170 29 is_stmt 0 view .LVU96
 387 00e6 5448     		ldr	r0, .L65+4
 388 00e8 FFF7FEFF 		bl	HAL_GPIO_WritePin
 389              	.LVL43:
 102:Src/user_gpio.c ****     uint8_t m_select_ctrl = I_ZERO;
 390              		.loc 1 102 29 view .LVU97
 391 00ec 0020     		movs	r0, #0
 392 00ee 98E0     		b	.L18
 393              	.LVL44:
 394              	.L55:
 181:Src/user_gpio.c ****                         }
 395              		.loc 1 181 29 is_stmt 1 view .LVU98
 396 00f0 0022     		movs	r2, #0
 397 00f2 4FF48061 		mov	r1, #1024
 398              	.LVL45:
 181:Src/user_gpio.c ****                         }
 399              		.loc 1 181 29 is_stmt 0 view .LVU99
 400 00f6 5048     		ldr	r0, .L65+4
 401 00f8 FFF7FEFF 		bl	HAL_GPIO_WritePin
 402              	.LVL46:
 102:Src/user_gpio.c ****     uint8_t m_select_ctrl = I_ZERO;
 403              		.loc 1 102 29 view .LVU100
 404 00fc 2846     		mov	r0, r5
 405 00fe 90E0     		b	.L18
 406              	.LVL47:
 407              	.L34:
 186:Src/user_gpio.c ****                         }
 187:Src/user_gpio.c ****                     }
 188:Src/user_gpio.c ****                     else
 189:Src/user_gpio.c ****                     {
 190:Src/user_gpio.c ****                         printf("unknown error!");
 408              		.loc 1 190 25 is_stmt 1 view .LVU101
 409 0100 4E48     		ldr	r0, .L65+8
 410 0102 FFF7FEFF 		bl	printf
 411              	.LVL48:
 102:Src/user_gpio.c ****     uint8_t m_select_ctrl = I_ZERO;
 412              		.loc 1 102 29 is_stmt 0 view .LVU102
 413 0106 0020     		movs	r0, #0
 414 0108 8BE0     		b	.L18
 415              	.LVL49:
 416              	.L25:
 191:Src/user_gpio.c ****                     }
 192:Src/user_gpio.c ****                     break;
 193:Src/user_gpio.c ****                 }
 194:Src/user_gpio.c ****                 case V_TWO:
 195:Src/user_gpio.c ****                 {
 196:Src/user_gpio.c ****                     if(en_or_dis == HC245_BUS_EN)
 417              		.loc 1 196 21 is_stmt 1 view .LVU103
 418              		.loc 1 196 23 is_stmt 0 view .LVU104
 419 010a 012D     		cmp	r5, #1
 420 010c 08D0     		beq	.L57
 197:Src/user_gpio.c ****                     {
ARM GAS  C:\Users\123\AppData\Local\Temp\ccWgqIzz.s 			page 13


 198:Src/user_gpio.c ****                         CTRL_BUS_A3_HIGH;
 199:Src/user_gpio.c ****                     }
 200:Src/user_gpio.c ****                     else if(en_or_dis == HC245_BUS_DIS)
 421              		.loc 1 200 26 is_stmt 1 view .LVU105
 422              		.loc 1 200 28 is_stmt 0 view .LVU106
 423 010e 7DB9     		cbnz	r5, .L37
 201:Src/user_gpio.c ****                     {
 202:Src/user_gpio.c ****                         CTRL_BUS_A3_LOW;
 424              		.loc 1 202 25 is_stmt 1 view .LVU107
 425 0110 0022     		movs	r2, #0
 426 0112 4FF40071 		mov	r1, #512
 427              	.LVL50:
 428              		.loc 1 202 25 is_stmt 0 view .LVU108
 429 0116 4848     		ldr	r0, .L65+4
 430 0118 FFF7FEFF 		bl	HAL_GPIO_WritePin
 431              	.LVL51:
 102:Src/user_gpio.c ****     uint8_t m_select_ctrl = I_ZERO;
 432              		.loc 1 102 29 view .LVU109
 433 011c 2846     		mov	r0, r5
 434 011e 80E0     		b	.L18
 435              	.LVL52:
 436              	.L57:
 198:Src/user_gpio.c ****                     }
 437              		.loc 1 198 25 is_stmt 1 view .LVU110
 438 0120 0122     		movs	r2, #1
 439 0122 4FF40071 		mov	r1, #512
 440              	.LVL53:
 198:Src/user_gpio.c ****                     }
 441              		.loc 1 198 25 is_stmt 0 view .LVU111
 442 0126 4448     		ldr	r0, .L65+4
 443 0128 FFF7FEFF 		bl	HAL_GPIO_WritePin
 444              	.LVL54:
 102:Src/user_gpio.c ****     uint8_t m_select_ctrl = I_ZERO;
 445              		.loc 1 102 29 view .LVU112
 446 012c 0020     		movs	r0, #0
 447 012e 78E0     		b	.L18
 448              	.LVL55:
 449              	.L37:
 203:Src/user_gpio.c ****                     }
 204:Src/user_gpio.c ****                     else
 205:Src/user_gpio.c ****                     {
 206:Src/user_gpio.c ****                         printf("unknown error!");
 450              		.loc 1 206 25 is_stmt 1 view .LVU113
 451 0130 4248     		ldr	r0, .L65+8
 452 0132 FFF7FEFF 		bl	printf
 453              	.LVL56:
 102:Src/user_gpio.c ****     uint8_t m_select_ctrl = I_ZERO;
 454              		.loc 1 102 29 is_stmt 0 view .LVU114
 455 0136 0020     		movs	r0, #0
 456 0138 73E0     		b	.L18
 457              	.LVL57:
 458              	.L24:
 207:Src/user_gpio.c ****                     }
 208:Src/user_gpio.c ****                     break;
 209:Src/user_gpio.c ****                 }
 210:Src/user_gpio.c ****                 case V_THREE:
 211:Src/user_gpio.c ****                 {
ARM GAS  C:\Users\123\AppData\Local\Temp\ccWgqIzz.s 			page 14


 212:Src/user_gpio.c ****                     if(en_or_dis == HC245_BUS_EN)
 459              		.loc 1 212 21 is_stmt 1 view .LVU115
 460              		.loc 1 212 23 is_stmt 0 view .LVU116
 461 013a 012D     		cmp	r5, #1
 462 013c 08D0     		beq	.L58
 213:Src/user_gpio.c ****                     {
 214:Src/user_gpio.c ****                         CTRL_BUS_A4_HIGH;
 215:Src/user_gpio.c ****                     }
 216:Src/user_gpio.c ****                     else if(en_or_dis == HC245_BUS_DIS)
 463              		.loc 1 216 26 is_stmt 1 view .LVU117
 464              		.loc 1 216 28 is_stmt 0 view .LVU118
 465 013e 7DB9     		cbnz	r5, .L39
 217:Src/user_gpio.c ****                     {
 218:Src/user_gpio.c ****                         CTRL_BUS_A4_LOW;
 466              		.loc 1 218 25 is_stmt 1 view .LVU119
 467 0140 0022     		movs	r2, #0
 468 0142 4FF48071 		mov	r1, #256
 469              	.LVL58:
 470              		.loc 1 218 25 is_stmt 0 view .LVU120
 471 0146 3C48     		ldr	r0, .L65+4
 472 0148 FFF7FEFF 		bl	HAL_GPIO_WritePin
 473              	.LVL59:
 102:Src/user_gpio.c ****     uint8_t m_select_ctrl = I_ZERO;
 474              		.loc 1 102 29 view .LVU121
 475 014c 2846     		mov	r0, r5
 476 014e 68E0     		b	.L18
 477              	.LVL60:
 478              	.L58:
 214:Src/user_gpio.c ****                     }
 479              		.loc 1 214 25 is_stmt 1 view .LVU122
 480 0150 0122     		movs	r2, #1
 481 0152 4FF48071 		mov	r1, #256
 482              	.LVL61:
 214:Src/user_gpio.c ****                     }
 483              		.loc 1 214 25 is_stmt 0 view .LVU123
 484 0156 3848     		ldr	r0, .L65+4
 485 0158 FFF7FEFF 		bl	HAL_GPIO_WritePin
 486              	.LVL62:
 102:Src/user_gpio.c ****     uint8_t m_select_ctrl = I_ZERO;
 487              		.loc 1 102 29 view .LVU124
 488 015c 0020     		movs	r0, #0
 489 015e 60E0     		b	.L18
 490              	.LVL63:
 491              	.L39:
 219:Src/user_gpio.c ****                     }
 220:Src/user_gpio.c ****                     else
 221:Src/user_gpio.c ****                     {
 222:Src/user_gpio.c ****                         printf("unknown error!");
 492              		.loc 1 222 25 is_stmt 1 view .LVU125
 493 0160 3648     		ldr	r0, .L65+8
 494 0162 FFF7FEFF 		bl	printf
 495              	.LVL64:
 102:Src/user_gpio.c ****     uint8_t m_select_ctrl = I_ZERO;
 496              		.loc 1 102 29 is_stmt 0 view .LVU126
 497 0166 0020     		movs	r0, #0
 498 0168 5BE0     		b	.L18
 499              	.LVL65:
ARM GAS  C:\Users\123\AppData\Local\Temp\ccWgqIzz.s 			page 15


 500              	.L23:
 223:Src/user_gpio.c ****                     }
 224:Src/user_gpio.c ****                     break;
 225:Src/user_gpio.c ****                 }
 226:Src/user_gpio.c ****                 case V_FOUR:
 227:Src/user_gpio.c ****                 {
 228:Src/user_gpio.c ****                     if(en_or_dis == HC245_BUS_EN)
 501              		.loc 1 228 21 is_stmt 1 view .LVU127
 502              		.loc 1 228 23 is_stmt 0 view .LVU128
 503 016a 012D     		cmp	r5, #1
 504 016c 0AD0     		beq	.L59
 229:Src/user_gpio.c ****                     {
 230:Src/user_gpio.c ****                         if(m_select_ctrl == V_ONE)
 231:Src/user_gpio.c ****                         {
 232:Src/user_gpio.c ****                             CTRL_BUS_A6_HIGH;
 233:Src/user_gpio.c ****                         }
 234:Src/user_gpio.c ****                         else
 235:Src/user_gpio.c ****                         {
 236:Src/user_gpio.c ****                             CTRL_BUS_A5_HIGH;
 237:Src/user_gpio.c ****                         }
 238:Src/user_gpio.c ****                     }
 239:Src/user_gpio.c ****                     else if(en_or_dis == HC245_BUS_DIS)
 505              		.loc 1 239 26 is_stmt 1 view .LVU129
 506              		.loc 1 239 28 is_stmt 0 view .LVU130
 507 016e 1DBB     		cbnz	r5, .L42
 240:Src/user_gpio.c ****                     {
 241:Src/user_gpio.c ****                         if(m_select_ctrl == V_ONE)
 508              		.loc 1 241 25 is_stmt 1 view .LVU131
 509              		.loc 1 241 27 is_stmt 0 view .LVU132
 510 0170 012B     		cmp	r3, #1
 511 0172 19D0     		beq	.L60
 242:Src/user_gpio.c ****                         {
 243:Src/user_gpio.c ****                             CTRL_BUS_A6_LOW;
 244:Src/user_gpio.c ****                         }
 245:Src/user_gpio.c ****                         else
 246:Src/user_gpio.c ****                         {
 247:Src/user_gpio.c ****                             CTRL_BUS_A5_LOW;
 512              		.loc 1 247 29 is_stmt 1 view .LVU133
 513 0174 0022     		movs	r2, #0
 514 0176 4FF40041 		mov	r1, #32768
 515              	.LVL66:
 516              		.loc 1 247 29 is_stmt 0 view .LVU134
 517 017a 3148     		ldr	r0, .L65+12
 518 017c FFF7FEFF 		bl	HAL_GPIO_WritePin
 519              	.LVL67:
 102:Src/user_gpio.c ****     uint8_t m_select_ctrl = I_ZERO;
 520              		.loc 1 102 29 view .LVU135
 521 0180 2846     		mov	r0, r5
 522 0182 4EE0     		b	.L18
 523              	.LVL68:
 524              	.L59:
 230:Src/user_gpio.c ****                         {
 525              		.loc 1 230 25 is_stmt 1 view .LVU136
 230:Src/user_gpio.c ****                         {
 526              		.loc 1 230 27 is_stmt 0 view .LVU137
 527 0184 012B     		cmp	r3, #1
 528 0186 07D0     		beq	.L61
ARM GAS  C:\Users\123\AppData\Local\Temp\ccWgqIzz.s 			page 16


 236:Src/user_gpio.c ****                         }
 529              		.loc 1 236 29 is_stmt 1 view .LVU138
 530 0188 0122     		movs	r2, #1
 531 018a 4FF40041 		mov	r1, #32768
 532              	.LVL69:
 236:Src/user_gpio.c ****                         }
 533              		.loc 1 236 29 is_stmt 0 view .LVU139
 534 018e 2C48     		ldr	r0, .L65+12
 535 0190 FFF7FEFF 		bl	HAL_GPIO_WritePin
 536              	.LVL70:
 102:Src/user_gpio.c ****     uint8_t m_select_ctrl = I_ZERO;
 537              		.loc 1 102 29 view .LVU140
 538 0194 0020     		movs	r0, #0
 539 0196 44E0     		b	.L18
 540              	.LVL71:
 541              	.L61:
 232:Src/user_gpio.c ****                         }
 542              		.loc 1 232 29 is_stmt 1 view .LVU141
 543 0198 0122     		movs	r2, #1
 544 019a 4FF48041 		mov	r1, #16384
 545              	.LVL72:
 232:Src/user_gpio.c ****                         }
 546              		.loc 1 232 29 is_stmt 0 view .LVU142
 547 019e 2848     		ldr	r0, .L65+12
 548 01a0 FFF7FEFF 		bl	HAL_GPIO_WritePin
 549              	.LVL73:
 102:Src/user_gpio.c ****     uint8_t m_select_ctrl = I_ZERO;
 550              		.loc 1 102 29 view .LVU143
 551 01a4 0020     		movs	r0, #0
 552 01a6 3CE0     		b	.L18
 553              	.LVL74:
 554              	.L60:
 243:Src/user_gpio.c ****                         }
 555              		.loc 1 243 29 is_stmt 1 view .LVU144
 556 01a8 0022     		movs	r2, #0
 557 01aa 4FF48041 		mov	r1, #16384
 558              	.LVL75:
 243:Src/user_gpio.c ****                         }
 559              		.loc 1 243 29 is_stmt 0 view .LVU145
 560 01ae 2448     		ldr	r0, .L65+12
 561 01b0 FFF7FEFF 		bl	HAL_GPIO_WritePin
 562              	.LVL76:
 102:Src/user_gpio.c ****     uint8_t m_select_ctrl = I_ZERO;
 563              		.loc 1 102 29 view .LVU146
 564 01b4 2846     		mov	r0, r5
 565 01b6 34E0     		b	.L18
 566              	.LVL77:
 567              	.L42:
 248:Src/user_gpio.c ****                         }
 249:Src/user_gpio.c ****                     }
 250:Src/user_gpio.c ****                     else
 251:Src/user_gpio.c ****                     {
 252:Src/user_gpio.c ****                         printf("unknown error!");
 568              		.loc 1 252 25 is_stmt 1 view .LVU147
 569 01b8 2048     		ldr	r0, .L65+8
 570 01ba FFF7FEFF 		bl	printf
 571              	.LVL78:
ARM GAS  C:\Users\123\AppData\Local\Temp\ccWgqIzz.s 			page 17


 102:Src/user_gpio.c ****     uint8_t m_select_ctrl = I_ZERO;
 572              		.loc 1 102 29 is_stmt 0 view .LVU148
 573 01be 0020     		movs	r0, #0
 574 01c0 2FE0     		b	.L18
 575              	.LVL79:
 576              	.L21:
 253:Src/user_gpio.c ****                     }
 254:Src/user_gpio.c ****                     break;
 255:Src/user_gpio.c ****                 }
 256:Src/user_gpio.c ****                 case V_FIVE:
 257:Src/user_gpio.c ****                 {
 258:Src/user_gpio.c ****                     if(en_or_dis == HC245_BUS_EN)
 577              		.loc 1 258 21 is_stmt 1 view .LVU149
 578              		.loc 1 258 23 is_stmt 0 view .LVU150
 579 01c2 012D     		cmp	r5, #1
 580 01c4 0AD0     		beq	.L62
 259:Src/user_gpio.c ****                     {
 260:Src/user_gpio.c ****                         if(m_select_ctrl == V_ONE)
 261:Src/user_gpio.c ****                         {
 262:Src/user_gpio.c ****                             CTRL_BUS_A7_HIGH;
 263:Src/user_gpio.c ****                         }
 264:Src/user_gpio.c ****                         else
 265:Src/user_gpio.c ****                         {
 266:Src/user_gpio.c ****                             CTRL_BUS_A6_HIGH;
 267:Src/user_gpio.c ****                         }
 268:Src/user_gpio.c ****                     }
 269:Src/user_gpio.c ****                     else if(en_or_dis == HC245_BUS_DIS)
 581              		.loc 1 269 26 is_stmt 1 view .LVU151
 582              		.loc 1 269 28 is_stmt 0 view .LVU152
 583 01c6 1DBB     		cbnz	r5, .L46
 270:Src/user_gpio.c ****                     {
 271:Src/user_gpio.c ****                         if(m_select_ctrl == V_ONE)
 584              		.loc 1 271 25 is_stmt 1 view .LVU153
 585              		.loc 1 271 27 is_stmt 0 view .LVU154
 586 01c8 012B     		cmp	r3, #1
 587 01ca 19D0     		beq	.L63
 272:Src/user_gpio.c ****                         {
 273:Src/user_gpio.c ****                             CTRL_BUS_A7_LOW;
 274:Src/user_gpio.c ****                         }
 275:Src/user_gpio.c ****                         else
 276:Src/user_gpio.c ****                         {
 277:Src/user_gpio.c ****                             CTRL_BUS_A6_LOW;
 588              		.loc 1 277 29 is_stmt 1 view .LVU155
 589 01cc 0022     		movs	r2, #0
 590 01ce 4FF48041 		mov	r1, #16384
 591              	.LVL80:
 592              		.loc 1 277 29 is_stmt 0 view .LVU156
 593 01d2 1B48     		ldr	r0, .L65+12
 594 01d4 FFF7FEFF 		bl	HAL_GPIO_WritePin
 595              	.LVL81:
 102:Src/user_gpio.c ****     uint8_t m_select_ctrl = I_ZERO;
 596              		.loc 1 102 29 view .LVU157
 597 01d8 2846     		mov	r0, r5
 598 01da 22E0     		b	.L18
 599              	.LVL82:
 600              	.L62:
 260:Src/user_gpio.c ****                         {
ARM GAS  C:\Users\123\AppData\Local\Temp\ccWgqIzz.s 			page 18


 601              		.loc 1 260 25 is_stmt 1 view .LVU158
 260:Src/user_gpio.c ****                         {
 602              		.loc 1 260 27 is_stmt 0 view .LVU159
 603 01dc 012B     		cmp	r3, #1
 604 01de 07D0     		beq	.L64
 266:Src/user_gpio.c ****                         }
 605              		.loc 1 266 29 is_stmt 1 view .LVU160
 606 01e0 0122     		movs	r2, #1
 607 01e2 4FF48041 		mov	r1, #16384
 608              	.LVL83:
 266:Src/user_gpio.c ****                         }
 609              		.loc 1 266 29 is_stmt 0 view .LVU161
 610 01e6 1648     		ldr	r0, .L65+12
 611 01e8 FFF7FEFF 		bl	HAL_GPIO_WritePin
 612              	.LVL84:
 102:Src/user_gpio.c ****     uint8_t m_select_ctrl = I_ZERO;
 613              		.loc 1 102 29 view .LVU162
 614 01ec 0020     		movs	r0, #0
 615 01ee 18E0     		b	.L18
 616              	.LVL85:
 617              	.L64:
 262:Src/user_gpio.c ****                         }
 618              		.loc 1 262 29 is_stmt 1 view .LVU163
 619 01f0 0122     		movs	r2, #1
 620 01f2 4FF40051 		mov	r1, #8192
 621              	.LVL86:
 262:Src/user_gpio.c ****                         }
 622              		.loc 1 262 29 is_stmt 0 view .LVU164
 623 01f6 1248     		ldr	r0, .L65+12
 624 01f8 FFF7FEFF 		bl	HAL_GPIO_WritePin
 625              	.LVL87:
 102:Src/user_gpio.c ****     uint8_t m_select_ctrl = I_ZERO;
 626              		.loc 1 102 29 view .LVU165
 627 01fc 0020     		movs	r0, #0
 628 01fe 10E0     		b	.L18
 629              	.LVL88:
 630              	.L63:
 273:Src/user_gpio.c ****                         }
 631              		.loc 1 273 29 is_stmt 1 view .LVU166
 632 0200 0022     		movs	r2, #0
 633 0202 4FF40051 		mov	r1, #8192
 634              	.LVL89:
 273:Src/user_gpio.c ****                         }
 635              		.loc 1 273 29 is_stmt 0 view .LVU167
 636 0206 0E48     		ldr	r0, .L65+12
 637 0208 FFF7FEFF 		bl	HAL_GPIO_WritePin
 638              	.LVL90:
 102:Src/user_gpio.c ****     uint8_t m_select_ctrl = I_ZERO;
 639              		.loc 1 102 29 view .LVU168
 640 020c 2846     		mov	r0, r5
 641 020e 08E0     		b	.L18
 642              	.LVL91:
 643              	.L46:
 278:Src/user_gpio.c ****                         }
 279:Src/user_gpio.c ****                     }
 280:Src/user_gpio.c ****                     else
 281:Src/user_gpio.c ****                     {
ARM GAS  C:\Users\123\AppData\Local\Temp\ccWgqIzz.s 			page 19


 282:Src/user_gpio.c ****                         printf("unknown error!");
 644              		.loc 1 282 25 is_stmt 1 view .LVU169
 645 0210 0A48     		ldr	r0, .L65+8
 646 0212 FFF7FEFF 		bl	printf
 647              	.LVL92:
 102:Src/user_gpio.c ****     uint8_t m_select_ctrl = I_ZERO;
 648              		.loc 1 102 29 is_stmt 0 view .LVU170
 649 0216 0020     		movs	r0, #0
 650 0218 03E0     		b	.L18
 651              	.LVL93:
 652              	.L20:
 283:Src/user_gpio.c ****                     }
 284:Src/user_gpio.c ****                     break;
 285:Src/user_gpio.c ****                 }
 286:Src/user_gpio.c ****                 default:
 287:Src/user_gpio.c ****                     break;
 288:Src/user_gpio.c ****             }
 289:Src/user_gpio.c ****         }
 290:Src/user_gpio.c ****         else
 291:Src/user_gpio.c ****         {
 292:Src/user_gpio.c ****             printf("bus ctrl error!");
 653              		.loc 1 292 13 is_stmt 1 view .LVU171
 654 021a 0A48     		ldr	r0, .L65+16
 655 021c FFF7FEFF 		bl	printf
 656              	.LVL94:
 293:Src/user_gpio.c ****             m_door_num_result = LOCK_CTRL_FIALED;
 657              		.loc 1 293 13 view .LVU172
 658              		.loc 1 293 31 is_stmt 0 view .LVU173
 659 0220 0120     		movs	r0, #1
 660              	.LVL95:
 661              	.L18:
 294:Src/user_gpio.c ****         }
 295:Src/user_gpio.c ****     }
 296:Src/user_gpio.c ****     else
 297:Src/user_gpio.c ****     {
 298:Src/user_gpio.c ****         printf("lock number error!");
 299:Src/user_gpio.c ****         m_door_num_result = LOCK_NUM_ERR;
 300:Src/user_gpio.c ****     }
 301:Src/user_gpio.c **** 
 302:Src/user_gpio.c ****     return m_door_num_result;
 303:Src/user_gpio.c **** }
 662              		.loc 1 303 1 view .LVU174
 663 0222 38BD     		pop	{r3, r4, r5, pc}
 664              	.LVL96:
 665              	.L19:
 298:Src/user_gpio.c ****         m_door_num_result = LOCK_NUM_ERR;
 666              		.loc 1 298 9 is_stmt 1 view .LVU175
 667 0224 0848     		ldr	r0, .L65+20
 668 0226 FFF7FEFF 		bl	printf
 669              	.LVL97:
 299:Src/user_gpio.c ****     }
 670              		.loc 1 299 9 view .LVU176
 299:Src/user_gpio.c ****     }
 671              		.loc 1 299 27 is_stmt 0 view .LVU177
 672 022a 0220     		movs	r0, #2
 673 022c F9E7     		b	.L18
 674              	.LVL98:
ARM GAS  C:\Users\123\AppData\Local\Temp\ccWgqIzz.s 			page 20


 675              	.L49:
 130:Src/user_gpio.c ****         {
 676              		.loc 1 130 11 view .LVU178
 677 022e 0020     		movs	r0, #0
 678 0230 F7E7     		b	.L18
 679              	.L66:
 680 0232 00BF     		.align	2
 681              	.L65:
 682 0234 00000000 		.word	.LC4
 683 0238 000C0048 		.word	1207962624
 684 023c 14000000 		.word	.LC5
 685 0240 00040048 		.word	1207960576
 686 0244 24000000 		.word	.LC6
 687 0248 34000000 		.word	.LC7
 688              		.cfi_endproc
 689              	.LFE317:
 691              		.section	.rodata.door_control_index.str1.4,"aMS",%progbits,1
 692              		.align	2
 693              	.LC8:
 694 0000 6D5F696E 		.ascii	"m_index = %d\015\012\000"
 694      64657820 
 694      3D202564 
 694      0D0A00
 695 000f 00       		.align	2
 696              	.LC9:
 697 0010 636C6F73 		.ascii	"close door num err!\000"
 697      6520646F 
 697      6F72206E 
 697      756D2065 
 697      72722100 
 698              		.align	2
 699              	.LC10:
 700 0024 646F6F72 		.ascii	"door action err!\000"
 700      20616374 
 700      696F6E20 
 700      65727221 
 700      00
 701 0035 000000   		.align	2
 702              	.LC11:
 703 0038 646F6F72 		.ascii	"door num err!\000"
 703      206E756D 
 703      20657272 
 703      2100
 704              		.section	.text.door_control_index,"ax",%progbits
 705              		.align	1
 706              		.global	door_control_index
 707              		.syntax unified
 708              		.thumb
 709              		.thumb_func
 710              		.fpu fpv4-sp-d16
 712              	door_control_index:
 713              	.LVL99:
 714              	.LFB318:
 304:Src/user_gpio.c **** 
 305:Src/user_gpio.c **** 
 306:Src/user_gpio.c **** 
 307:Src/user_gpio.c **** /*********************************************************************
ARM GAS  C:\Users\123\AppData\Local\Temp\ccWgqIzz.s 			page 21


 308:Src/user_gpio.c ****  *	function name: door_control_index
 309:Src/user_gpio.c ****  *	describe:  control the opening and closing of lock
 310:Src/user_gpio.c ****  *	input: inputval:door numbet 0-23；opentime：open lock time,default 500ms；
 311:Src/user_gpio.c ****  *         ctrl_door_action：open or close
 312:Src/user_gpio.c ****  *	output: void
 313:Src/user_gpio.c ****  *	return:lock_ctrl_return_type_t:	LOCK_CTRL_OK,
 314:Src/user_gpio.c **** 	                                 LOCK_CTRL_FIALED,
 315:Src/user_gpio.c ****                                        LOCK_NUM_ERR
 316:Src/user_gpio.c ****  *	revision histroy :   1.
 317:Src/user_gpio.c ****  *                      2.
 318:Src/user_gpio.c ****  **********************************************************************/
 319:Src/user_gpio.c **** lock_ctrl_return_type_t door_control_index(uint8_t inputval, uint16_t opentime, uint8_t ctrl_door_a
 320:Src/user_gpio.c **** {
 715              		.loc 1 320 1 is_stmt 1 view -0
 716              		.cfi_startproc
 717              		@ args = 0, pretend = 0, frame = 0
 718              		@ frame_needed = 0, uses_anonymous_args = 0
 719              		.loc 1 320 1 is_stmt 0 view .LVU180
 720 0000 70B5     		push	{r4, r5, r6, lr}
 721              	.LCFI2:
 722              		.cfi_def_cfa_offset 16
 723              		.cfi_offset 4, -16
 724              		.cfi_offset 5, -12
 725              		.cfi_offset 6, -8
 726              		.cfi_offset 14, -4
 321:Src/user_gpio.c ****     /*控制开、关锁*/
 322:Src/user_gpio.c ****     uint8_t m_index  = inputval;
 727              		.loc 1 322 5 is_stmt 1 view .LVU181
 728              	.LVL100:
 323:Src/user_gpio.c ****     lock_ctrl_return_type_t m_lock_ctrl_result = LOCK_CTRL_OK;
 729              		.loc 1 323 5 view .LVU182
 324:Src/user_gpio.c ****     g_open_luck_time = opentime;
 730              		.loc 1 324 5 view .LVU183
 731              		.loc 1 324 22 is_stmt 0 view .LVU184
 732 0002 544B     		ldr	r3, .L91
 733 0004 1980     		strh	r1, [r3]	@ movhi
 325:Src/user_gpio.c ****     g_lock_number = inputval;
 734              		.loc 1 325 5 is_stmt 1 view .LVU185
 735              		.loc 1 325 19 is_stmt 0 view .LVU186
 736 0006 544B     		ldr	r3, .L91+4
 737 0008 1870     		strb	r0, [r3]
 326:Src/user_gpio.c **** 
 327:Src/user_gpio.c ****     if((m_index <  MAX_DOOR_NUM) && (g_open_luck_time != V_ZERO))     /*判断锁号已经开锁时
 738              		.loc 1 327 5 is_stmt 1 view .LVU187
 739              		.loc 1 327 7 is_stmt 0 view .LVU188
 740 000a 1728     		cmp	r0, #23
 741 000c 00F29D80 		bhi	.L68
 742 0010 0546     		mov	r5, r0
 743 0012 1446     		mov	r4, r2
 744              		.loc 1 327 55 discriminator 1 view .LVU189
 745 0014 4F4B     		ldr	r3, .L91
 746 0016 1B88     		ldrh	r3, [r3]
 747 0018 9BB2     		uxth	r3, r3
 748              		.loc 1 327 34 discriminator 1 view .LVU190
 749 001a 002B     		cmp	r3, #0
 750 001c 00F09580 		beq	.L68
 328:Src/user_gpio.c ****     {
ARM GAS  C:\Users\123\AppData\Local\Temp\ccWgqIzz.s 			page 22


 329:Src/user_gpio.c ****         if((ctrl_door_action == OPEN_DOOR) || (ctrl_door_action == CLOSE_DOOR))     /*控制锁动
 751              		.loc 1 329 9 is_stmt 1 view .LVU191
 752              		.loc 1 329 11 is_stmt 0 view .LVU192
 753 0020 012A     		cmp	r2, #1
 754 0022 00F28D80 		bhi	.L69
 330:Src/user_gpio.c ****         {
 331:Src/user_gpio.c ****             if(ctrl_door_action == OPEN_DOOR)     /*开锁*/
 755              		.loc 1 331 13 is_stmt 1 view .LVU193
 756              		.loc 1 331 15 is_stmt 0 view .LVU194
 757 0026 04D0     		beq	.L84
 322:Src/user_gpio.c ****     lock_ctrl_return_type_t m_lock_ctrl_result = LOCK_CTRL_OK;
 758              		.loc 1 322 13 view .LVU195
 759 0028 0646     		mov	r6, r0
 760              	.LVL101:
 761              	.L70:
 332:Src/user_gpio.c ****             {
 333:Src/user_gpio.c ****                 g_lock_open_flag = START_OPEN_DOOR_FLAG;
 334:Src/user_gpio.c ****                 BAT_POWER_EN;    /*先开启锁电源*/
 335:Src/user_gpio.c ****                 CTRL_BUS_POWER_EN;    /*开启74HC245芯片电源*/   
 336:Src/user_gpio.c ****                 if(m_index <= V_FIVE)     /*0-5号锁，就使能第一片74hc245*/
 337:Src/user_gpio.c ****                 {
 338:Src/user_gpio.c ****                     CHIP_SELECT_01EN;    
 339:Src/user_gpio.c ****                 }
 340:Src/user_gpio.c ****                 else if(m_index <= V_ELEVEN)/*6-11号锁，就使能第二片74hc245*/
 341:Src/user_gpio.c ****                 {
 342:Src/user_gpio.c ****                     CHIP_SELECT_02EN;
 343:Src/user_gpio.c ****                     m_index -= V_SIX;     /*因为每片74hc245只控6把锁，所以需要把格
 344:Src/user_gpio.c ****                     printf("m_index = %d\r\n", m_index);
 345:Src/user_gpio.c ****                 }
 346:Src/user_gpio.c ****                 else if(m_index <= V_SEVENTEEN)/*12-17号锁，就使能第三片74hc245*/
 347:Src/user_gpio.c ****                 {
 348:Src/user_gpio.c ****                     CHIP_SELECT_03EN;
 349:Src/user_gpio.c ****                     m_index -= V_TWELVE;     /*因为每片74hc245只控6把锁，所以需要把
 350:Src/user_gpio.c ****                 }
 351:Src/user_gpio.c ****                 else if(m_index <= V_TWENTY_THREE)/*18-23号锁，就使能第四片74hc245*/
 352:Src/user_gpio.c ****                 {
 353:Src/user_gpio.c ****                     CHIP_SELECT_04EN;
 354:Src/user_gpio.c ****                     m_index -= V_EIGHTTEEN;    /*因为每片74hc245只控6把锁，所以需要把
 355:Src/user_gpio.c ****                 }
 356:Src/user_gpio.c ****                 else
 357:Src/user_gpio.c ****                 {
 358:Src/user_gpio.c ****                     printf("open door num err!");
 359:Src/user_gpio.c ****                     return LOCK_NUM_ERR;
 360:Src/user_gpio.c ****                 }
 361:Src/user_gpio.c ****                 HAL_Delay(5); /*开启电源以及使能芯片后延时5ms等待稳定，然后再
 362:Src/user_gpio.c ****                 extend_ic_74hc245_ctrl_lock(inputval, HC245_BUS_EN);
 363:Src/user_gpio.c ****             }
 364:Src/user_gpio.c ****             if(ctrl_door_action == CLOSE_DOOR)     /*关锁*/
 762              		.loc 1 364 13 is_stmt 1 view .LVU196
 763              		.loc 1 364 15 is_stmt 0 view .LVU197
 764 002a 002C     		cmp	r4, #0
 765 002c 44D0     		beq	.L85
 323:Src/user_gpio.c ****     g_open_luck_time = opentime;
 766              		.loc 1 323 29 view .LVU198
 767 002e 0020     		movs	r0, #0
 768 0030 8FE0     		b	.L75
 769              	.LVL102:
ARM GAS  C:\Users\123\AppData\Local\Temp\ccWgqIzz.s 			page 23


 770              	.L84:
 333:Src/user_gpio.c ****                 BAT_POWER_EN;    /*先开启锁电源*/
 771              		.loc 1 333 17 is_stmt 1 view .LVU199
 333:Src/user_gpio.c ****                 BAT_POWER_EN;    /*先开启锁电源*/
 772              		.loc 1 333 34 is_stmt 0 view .LVU200
 773 0032 0126     		movs	r6, #1
 774 0034 494B     		ldr	r3, .L91+8
 775 0036 1E70     		strb	r6, [r3]
 334:Src/user_gpio.c ****                 CTRL_BUS_POWER_EN;    /*开启74HC245芯片电源*/   
 776              		.loc 1 334 17 is_stmt 1 view .LVU201
 777 0038 0022     		movs	r2, #0
 778              	.LVL103:
 334:Src/user_gpio.c ****                 CTRL_BUS_POWER_EN;    /*开启74HC245芯片电源*/   
 779              		.loc 1 334 17 is_stmt 0 view .LVU202
 780 003a 8021     		movs	r1, #128
 781              	.LVL104:
 334:Src/user_gpio.c ****                 CTRL_BUS_POWER_EN;    /*开启74HC245芯片电源*/   
 782              		.loc 1 334 17 view .LVU203
 783 003c 4FF09040 		mov	r0, #1207959552
 784              	.LVL105:
 334:Src/user_gpio.c ****                 CTRL_BUS_POWER_EN;    /*开启74HC245芯片电源*/   
 785              		.loc 1 334 17 view .LVU204
 786 0040 FFF7FEFF 		bl	HAL_GPIO_WritePin
 787              	.LVL106:
 335:Src/user_gpio.c ****                 if(m_index <= V_FIVE)     /*0-5号锁，就使能第一片74hc245*/
 788              		.loc 1 335 17 is_stmt 1 view .LVU205
 789 0044 3246     		mov	r2, r6
 790 0046 4FF48041 		mov	r1, #16384
 791 004a 4548     		ldr	r0, .L91+12
 792 004c FFF7FEFF 		bl	HAL_GPIO_WritePin
 793              	.LVL107:
 336:Src/user_gpio.c ****                 {
 794              		.loc 1 336 17 view .LVU206
 336:Src/user_gpio.c ****                 {
 795              		.loc 1 336 19 is_stmt 0 view .LVU207
 796 0050 052D     		cmp	r5, #5
 797 0052 0CD9     		bls	.L86
 340:Src/user_gpio.c ****                 {
 798              		.loc 1 340 22 is_stmt 1 view .LVU208
 340:Src/user_gpio.c ****                 {
 799              		.loc 1 340 24 is_stmt 0 view .LVU209
 800 0054 0B2D     		cmp	r5, #11
 801 0056 19D9     		bls	.L87
 346:Src/user_gpio.c ****                 {
 802              		.loc 1 346 22 is_stmt 1 view .LVU210
 346:Src/user_gpio.c ****                 {
 803              		.loc 1 346 24 is_stmt 0 view .LVU211
 804 0058 112D     		cmp	r5, #17
 805 005a 24D8     		bhi	.L74
 348:Src/user_gpio.c ****                     m_index -= V_TWELVE;     /*因为每片74hc245只控6把锁，所以需要把
 806              		.loc 1 348 21 is_stmt 1 view .LVU212
 807 005c 0022     		movs	r2, #0
 808 005e 0121     		movs	r1, #1
 809 0060 3F48     		ldr	r0, .L91+12
 810 0062 FFF7FEFF 		bl	HAL_GPIO_WritePin
 811              	.LVL108:
 349:Src/user_gpio.c ****                 }
ARM GAS  C:\Users\123\AppData\Local\Temp\ccWgqIzz.s 			page 24


 812              		.loc 1 349 21 view .LVU213
 349:Src/user_gpio.c ****                 }
 813              		.loc 1 349 29 is_stmt 0 view .LVU214
 814 0066 A5F10C06 		sub	r6, r5, #12
 815 006a F6B2     		uxtb	r6, r6
 816              	.LVL109:
 349:Src/user_gpio.c ****                 }
 817              		.loc 1 349 29 view .LVU215
 818 006c 06E0     		b	.L72
 819              	.LVL110:
 820              	.L86:
 338:Src/user_gpio.c ****                 }
 821              		.loc 1 338 21 is_stmt 1 view .LVU216
 822 006e 0022     		movs	r2, #0
 823 0070 4FF40051 		mov	r1, #8192
 824 0074 3A48     		ldr	r0, .L91+12
 825 0076 FFF7FEFF 		bl	HAL_GPIO_WritePin
 826              	.LVL111:
 322:Src/user_gpio.c ****     lock_ctrl_return_type_t m_lock_ctrl_result = LOCK_CTRL_OK;
 827              		.loc 1 322 13 is_stmt 0 view .LVU217
 828 007a 2E46     		mov	r6, r5
 829              	.LVL112:
 830              	.L72:
 361:Src/user_gpio.c ****                 extend_ic_74hc245_ctrl_lock(inputval, HC245_BUS_EN);
 831              		.loc 1 361 17 is_stmt 1 view .LVU218
 832 007c 0520     		movs	r0, #5
 833 007e FFF7FEFF 		bl	HAL_Delay
 834              	.LVL113:
 362:Src/user_gpio.c ****             }
 835              		.loc 1 362 17 view .LVU219
 836 0082 0121     		movs	r1, #1
 837 0084 2846     		mov	r0, r5
 838 0086 FFF7FEFF 		bl	extend_ic_74hc245_ctrl_lock
 839              	.LVL114:
 840 008a CEE7     		b	.L70
 841              	.LVL115:
 842              	.L87:
 342:Src/user_gpio.c ****                     m_index -= V_SIX;     /*因为每片74hc245只控6把锁，所以需要把格
 843              		.loc 1 342 21 view .LVU220
 844 008c 0022     		movs	r2, #0
 845 008e 4FF40041 		mov	r1, #32768
 846 0092 3348     		ldr	r0, .L91+12
 847 0094 FFF7FEFF 		bl	HAL_GPIO_WritePin
 848              	.LVL116:
 343:Src/user_gpio.c ****                     printf("m_index = %d\r\n", m_index);
 849              		.loc 1 343 21 view .LVU221
 343:Src/user_gpio.c ****                     printf("m_index = %d\r\n", m_index);
 850              		.loc 1 343 29 is_stmt 0 view .LVU222
 851 0098 AE1F     		subs	r6, r5, #6
 852 009a F6B2     		uxtb	r6, r6
 853              	.LVL117:
 344:Src/user_gpio.c ****                 }
 854              		.loc 1 344 21 is_stmt 1 view .LVU223
 855 009c 3146     		mov	r1, r6
 856 009e 3148     		ldr	r0, .L91+16
 857 00a0 FFF7FEFF 		bl	printf
 858              	.LVL118:
ARM GAS  C:\Users\123\AppData\Local\Temp\ccWgqIzz.s 			page 25


 859 00a4 EAE7     		b	.L72
 860              	.LVL119:
 861              	.L74:
 351:Src/user_gpio.c ****                 {
 862              		.loc 1 351 22 view .LVU224
 353:Src/user_gpio.c ****                     m_index -= V_EIGHTTEEN;    /*因为每片74hc245只控6把锁，所以需要把
 863              		.loc 1 353 21 view .LVU225
 864 00a6 0022     		movs	r2, #0
 865 00a8 0221     		movs	r1, #2
 866 00aa 2D48     		ldr	r0, .L91+12
 867 00ac FFF7FEFF 		bl	HAL_GPIO_WritePin
 868              	.LVL120:
 354:Src/user_gpio.c ****                 }
 869              		.loc 1 354 21 view .LVU226
 354:Src/user_gpio.c ****                 }
 870              		.loc 1 354 29 is_stmt 0 view .LVU227
 871 00b0 A5F11206 		sub	r6, r5, #18
 872 00b4 F6B2     		uxtb	r6, r6
 873              	.LVL121:
 354:Src/user_gpio.c ****                 }
 874              		.loc 1 354 29 view .LVU228
 875 00b6 E1E7     		b	.L72
 876              	.L85:
 365:Src/user_gpio.c ****             {
 366:Src/user_gpio.c ****                 extend_ic_74hc245_ctrl_lock(inputval, HC245_BUS_DIS);     /*控制关锁*/
 877              		.loc 1 366 17 is_stmt 1 view .LVU229
 878 00b8 0021     		movs	r1, #0
 879 00ba 2846     		mov	r0, r5
 880 00bc FFF7FEFF 		bl	extend_ic_74hc245_ctrl_lock
 881              	.LVL122:
 367:Src/user_gpio.c ****                 if(m_index <= V_FIVE)    /*0-5号锁，就失能第一片74hc245*/
 882              		.loc 1 367 17 view .LVU230
 883              		.loc 1 367 19 is_stmt 0 view .LVU231
 884 00c0 052E     		cmp	r6, #5
 885 00c2 0BD9     		bls	.L88
 368:Src/user_gpio.c ****                 {
 369:Src/user_gpio.c ****                     CHIP_SELECT_01DIS;
 370:Src/user_gpio.c ****                 }
 371:Src/user_gpio.c ****                 else if(m_index <= V_ELEVEN)     /*6-11号锁，就失能第二片74hc245*/
 886              		.loc 1 371 22 is_stmt 1 view .LVU232
 887              		.loc 1 371 24 is_stmt 0 view .LVU233
 888 00c4 0B2E     		cmp	r6, #11
 889 00c6 1DD9     		bls	.L89
 372:Src/user_gpio.c ****                 {
 373:Src/user_gpio.c ****                     CHIP_SELECT_02DIS;
 374:Src/user_gpio.c ****                     m_index -= V_FIVE;
 375:Src/user_gpio.c ****                 }
 376:Src/user_gpio.c ****                 else if(m_index <= V_SEVENTEEN)     /*12-17号锁，就失能第三片74hc245*/
 890              		.loc 1 376 22 is_stmt 1 view .LVU234
 891              		.loc 1 376 24 is_stmt 0 view .LVU235
 892 00c8 112E     		cmp	r6, #17
 893 00ca 22D9     		bls	.L90
 377:Src/user_gpio.c ****                 {
 378:Src/user_gpio.c ****                     CHIP_SELECT_03DIS;
 379:Src/user_gpio.c ****                     m_index -= V_ELEVEN;
 380:Src/user_gpio.c ****                 }
 381:Src/user_gpio.c ****                 else if(m_index <= V_TWENTY_THREE)     /*18-23号锁，就失能第四片74hc245*/
ARM GAS  C:\Users\123\AppData\Local\Temp\ccWgqIzz.s 			page 26


 894              		.loc 1 381 22 is_stmt 1 view .LVU236
 895              		.loc 1 381 24 is_stmt 0 view .LVU237
 896 00cc 172E     		cmp	r6, #23
 897 00ce 26D8     		bhi	.L80
 382:Src/user_gpio.c ****                 {
 383:Src/user_gpio.c ****                     CHIP_SELECT_04DIS;
 898              		.loc 1 383 21 is_stmt 1 view .LVU238
 899 00d0 0122     		movs	r2, #1
 900 00d2 0221     		movs	r1, #2
 901 00d4 2248     		ldr	r0, .L91+12
 902 00d6 FFF7FEFF 		bl	HAL_GPIO_WritePin
 903              	.LVL123:
 384:Src/user_gpio.c ****                     m_index -= V_SEVENTEEN;
 904              		.loc 1 384 21 view .LVU239
 905              		.loc 1 384 21 is_stmt 0 view .LVU240
 906 00da 05E0     		b	.L77
 907              	.LVL124:
 908              	.L88:
 369:Src/user_gpio.c ****                 }
 909              		.loc 1 369 21 is_stmt 1 view .LVU241
 910 00dc 0122     		movs	r2, #1
 911 00de 4FF40051 		mov	r1, #8192
 912 00e2 1F48     		ldr	r0, .L91+12
 913 00e4 FFF7FEFF 		bl	HAL_GPIO_WritePin
 914              	.LVL125:
 915              	.L77:
 385:Src/user_gpio.c ****                 }
 386:Src/user_gpio.c ****                 else
 387:Src/user_gpio.c ****                 {
 388:Src/user_gpio.c ****                     printf("close door num err!");
 389:Src/user_gpio.c ****                     BAT_POWER_DIS;
 390:Src/user_gpio.c ****                     CTRL_BUS_POWER_DIS;
 391:Src/user_gpio.c ****                     return LOCK_NUM_ERR;
 392:Src/user_gpio.c ****                 }
 393:Src/user_gpio.c ****                 BAT_POWER_DIS;     /*关闭锁电源*/
 916              		.loc 1 393 17 view .LVU242
 917 00e8 0122     		movs	r2, #1
 918 00ea 8021     		movs	r1, #128
 919 00ec 4FF09040 		mov	r0, #1207959552
 920 00f0 FFF7FEFF 		bl	HAL_GPIO_WritePin
 921              	.LVL126:
 394:Src/user_gpio.c ****                 CTRL_BUS_POWER_DIS;     /*关闭74HC245芯片电源*/
 922              		.loc 1 394 17 view .LVU243
 923 00f4 0022     		movs	r2, #0
 924 00f6 4FF48041 		mov	r1, #16384
 925 00fa 1948     		ldr	r0, .L91+12
 926 00fc FFF7FEFF 		bl	HAL_GPIO_WritePin
 927              	.LVL127:
 323:Src/user_gpio.c ****     g_open_luck_time = opentime;
 928              		.loc 1 323 29 is_stmt 0 view .LVU244
 929 0100 2046     		mov	r0, r4
 930 0102 26E0     		b	.L75
 931              	.LVL128:
 932              	.L89:
 373:Src/user_gpio.c ****                     m_index -= V_FIVE;
 933              		.loc 1 373 21 is_stmt 1 view .LVU245
 934 0104 0122     		movs	r2, #1
ARM GAS  C:\Users\123\AppData\Local\Temp\ccWgqIzz.s 			page 27


 935 0106 4FF40041 		mov	r1, #32768
 936 010a 1548     		ldr	r0, .L91+12
 937 010c FFF7FEFF 		bl	HAL_GPIO_WritePin
 938              	.LVL129:
 374:Src/user_gpio.c ****                 }
 939              		.loc 1 374 21 view .LVU246
 374:Src/user_gpio.c ****                 }
 940              		.loc 1 374 21 is_stmt 0 view .LVU247
 941 0110 EAE7     		b	.L77
 942              	.LVL130:
 943              	.L90:
 378:Src/user_gpio.c ****                     m_index -= V_ELEVEN;
 944              		.loc 1 378 21 is_stmt 1 view .LVU248
 945 0112 0122     		movs	r2, #1
 946 0114 1146     		mov	r1, r2
 947 0116 1248     		ldr	r0, .L91+12
 948 0118 FFF7FEFF 		bl	HAL_GPIO_WritePin
 949              	.LVL131:
 379:Src/user_gpio.c ****                 }
 950              		.loc 1 379 21 view .LVU249
 379:Src/user_gpio.c ****                 }
 951              		.loc 1 379 21 is_stmt 0 view .LVU250
 952 011c E4E7     		b	.L77
 953              	.LVL132:
 954              	.L80:
 388:Src/user_gpio.c ****                     BAT_POWER_DIS;
 955              		.loc 1 388 21 is_stmt 1 view .LVU251
 956 011e 1248     		ldr	r0, .L91+20
 957 0120 FFF7FEFF 		bl	printf
 958              	.LVL133:
 389:Src/user_gpio.c ****                     CTRL_BUS_POWER_DIS;
 959              		.loc 1 389 21 view .LVU252
 960 0124 0122     		movs	r2, #1
 961 0126 8021     		movs	r1, #128
 962 0128 4FF09040 		mov	r0, #1207959552
 963 012c FFF7FEFF 		bl	HAL_GPIO_WritePin
 964              	.LVL134:
 390:Src/user_gpio.c ****                     return LOCK_NUM_ERR;
 965              		.loc 1 390 21 view .LVU253
 966 0130 0022     		movs	r2, #0
 967 0132 4FF48041 		mov	r1, #16384
 968 0136 0A48     		ldr	r0, .L91+12
 969 0138 FFF7FEFF 		bl	HAL_GPIO_WritePin
 970              	.LVL135:
 391:Src/user_gpio.c ****                 }
 971              		.loc 1 391 21 view .LVU254
 391:Src/user_gpio.c ****                 }
 972              		.loc 1 391 28 is_stmt 0 view .LVU255
 973 013c 0220     		movs	r0, #2
 974 013e 08E0     		b	.L75
 975              	.LVL136:
 976              	.L69:
 395:Src/user_gpio.c ****             }
 396:Src/user_gpio.c ****         }
 397:Src/user_gpio.c ****         else
 398:Src/user_gpio.c ****         {
 399:Src/user_gpio.c ****             m_lock_ctrl_result = LOCK_CTRL_FIALED;
ARM GAS  C:\Users\123\AppData\Local\Temp\ccWgqIzz.s 			page 28


 977              		.loc 1 399 13 is_stmt 1 view .LVU256
 400:Src/user_gpio.c ****             printf("door action err!");
 978              		.loc 1 400 13 view .LVU257
 979 0140 0A48     		ldr	r0, .L91+24
 980              	.LVL137:
 981              		.loc 1 400 13 is_stmt 0 view .LVU258
 982 0142 FFF7FEFF 		bl	printf
 983              	.LVL138:
 399:Src/user_gpio.c ****             printf("door action err!");
 984              		.loc 1 399 32 view .LVU259
 985 0146 0120     		movs	r0, #1
 986 0148 03E0     		b	.L75
 987              	.LVL139:
 988              	.L68:
 401:Src/user_gpio.c ****         }
 402:Src/user_gpio.c ****     }
 403:Src/user_gpio.c ****     else
 404:Src/user_gpio.c ****     {
 405:Src/user_gpio.c ****         m_lock_ctrl_result = LOCK_NUM_ERR;
 989              		.loc 1 405 9 is_stmt 1 view .LVU260
 406:Src/user_gpio.c ****         printf("door num err!");
 990              		.loc 1 406 9 view .LVU261
 991 014a 0948     		ldr	r0, .L91+28
 992              	.LVL140:
 993              		.loc 1 406 9 is_stmt 0 view .LVU262
 994 014c FFF7FEFF 		bl	printf
 995              	.LVL141:
 405:Src/user_gpio.c ****         printf("door num err!");
 996              		.loc 1 405 28 view .LVU263
 997 0150 0220     		movs	r0, #2
 998              	.LVL142:
 999              	.L75:
 407:Src/user_gpio.c ****     }
 408:Src/user_gpio.c **** 
 409:Src/user_gpio.c ****     return m_lock_ctrl_result;
 410:Src/user_gpio.c **** }
 1000              		.loc 1 410 1 view .LVU264
 1001 0152 70BD     		pop	{r4, r5, r6, pc}
 1002              	.L92:
 1003              		.align	2
 1004              	.L91:
 1005 0154 00000000 		.word	.LANCHOR2
 1006 0158 00000000 		.word	.LANCHOR3
 1007 015c 00000000 		.word	.LANCHOR4
 1008 0160 000C0048 		.word	1207962624
 1009 0164 00000000 		.word	.LC8
 1010 0168 10000000 		.word	.LC9
 1011 016c 24000000 		.word	.LC10
 1012 0170 38000000 		.word	.LC11
 1013              		.cfi_endproc
 1014              	.LFE318:
 1016              		.section	.text.read_sn74lvc_statua,"ax",%progbits
 1017              		.align	1
 1018              		.global	read_sn74lvc_statua
 1019              		.syntax unified
 1020              		.thumb
 1021              		.thumb_func
ARM GAS  C:\Users\123\AppData\Local\Temp\ccWgqIzz.s 			page 29


 1022              		.fpu fpv4-sp-d16
 1024              	read_sn74lvc_statua:
 1025              	.LVL143:
 1026              	.LFB320:
 411:Src/user_gpio.c **** 
 412:Src/user_gpio.c **** /*********************************************************************
 413:Src/user_gpio.c ****  *	function name:read doors status
 414:Src/user_gpio.c ****  *	describe:voltage low means door is open,
 415:Src/user_gpio.c ****  *            voltage high means door is close
 416:Src/user_gpio.c ****  *	input:index：slot number :0-23
 417:Src/user_gpio.c ****  *	output:void
 418:Src/user_gpio.c ****  *	return:void
 419:Src/user_gpio.c ****  *	revision histroy :   1.
 420:Src/user_gpio.c ****  *                      2.
 421:Src/user_gpio.c ****  **********************************************************************/
 422:Src/user_gpio.c **** void door_status_index(uint8_t index)
 423:Src/user_gpio.c **** {
 424:Src/user_gpio.c ****     /*获取单个门磁状态*/
 425:Src/user_gpio.c ****     POWER_5V_EN;     /*开启SN74LV片子的5V电源*/
 426:Src/user_gpio.c ****     GOODS_POWER_3V3_EN;     /*开启SN74LV片子的3.3V电源*/
 427:Src/user_gpio.c ****     /*一共6片sn74lv片子分别控制24路门磁检测、24路物品检测，
 428:Src/user_gpio.c ****       每片的线1、3、5、7为读取物品状态；0、2、4、6为读取门磁状态*/
 429:Src/user_gpio.c ****     if(index <= V_THREE)     /*0-3号格口就使能第一片sn74*/
 430:Src/user_gpio.c ****     {
 431:Src/user_gpio.c ****         SN74_A_EN;  /*enable 74LVC4245*/
 432:Src/user_gpio.c ****         HAL_Delay(50);/*延时50ms等待电源稳定后再读取状态*/
 433:Src/user_gpio.c ****         g_stdoor_stat[index] = !read_sn74lvc_statua(index, READ_DOORS_STATUS);     /*实际状态
 434:Src/user_gpio.c ****         HAL_Delay(10);/*根据上一版本蓝牙柜的调试经验，读完状态后需要延时一
 435:Src/user_gpio.c ****         SN74_A_DIS;  /*disable 74LVC4245*/
 436:Src/user_gpio.c ****     }
 437:Src/user_gpio.c ****     else if(index <= V_SEVEN)    /*4-7号格口就使能第二片sn74*/
 438:Src/user_gpio.c ****     {
 439:Src/user_gpio.c ****         SN74_B_EN;  /*enable 74LVC4245*/
 440:Src/user_gpio.c ****         HAL_Delay(50);/*延时50ms等待电源稳定后再读取状态*/
 441:Src/user_gpio.c ****         g_stdoor_stat[index] = !read_sn74lvc_statua(index-V_FOUR, READ_DOORS_STATUS);    /*实际
 442:Src/user_gpio.c ****         HAL_Delay(10);/*根据上一版本蓝牙柜的调试经验，读完状态后需要延时一
 443:Src/user_gpio.c ****         SN74_B_DIS;  /*disable 74LVC4245*/
 444:Src/user_gpio.c ****     }
 445:Src/user_gpio.c ****     else if(index <= V_ELEVEN)    /*8-11号格口就使能第三片sn74*/
 446:Src/user_gpio.c ****     {
 447:Src/user_gpio.c ****         SN74_C_EN;  /*enable 74LVC4245*/
 448:Src/user_gpio.c ****         HAL_Delay(50);/*延时50ms等待电源稳定后再读取状态*/
 449:Src/user_gpio.c ****         g_stdoor_stat[index] = !read_sn74lvc_statua(index-V_EIGHT, READ_DOORS_STATUS);    /*实际
 450:Src/user_gpio.c ****         HAL_Delay(10);/*根据上一版本蓝牙柜的调试经验，读完状态后需要延时一
 451:Src/user_gpio.c ****         SN74_C_DIS;  /*disable 74LVC4245*/
 452:Src/user_gpio.c ****     }
 453:Src/user_gpio.c ****     else if(index <= V_FIFTEEN)    /*12-15号格口就使能第四片sn74*/
 454:Src/user_gpio.c ****     {
 455:Src/user_gpio.c ****         SN74_D_EN;  /*enable 74LVC4245*/
 456:Src/user_gpio.c ****         HAL_Delay(50);/*延时50ms等待电源稳定后再读取状态*/
 457:Src/user_gpio.c ****         g_stdoor_stat[index] = !read_sn74lvc_statua(index-V_TWELVE, READ_DOORS_STATUS);   /*实际
 458:Src/user_gpio.c ****         HAL_Delay(10);/*根据上一版本蓝牙柜的调试经验，读完状态后需要延时一
 459:Src/user_gpio.c ****         SN74_D_DIS;  /*disable 74LVC4245*/
 460:Src/user_gpio.c ****     }
 461:Src/user_gpio.c ****     else if(index <= V_NINETEEN)    /*16-19号格口就使能第五片sn74*/
 462:Src/user_gpio.c ****     {
 463:Src/user_gpio.c ****         SN74_E_EN;  /*enable 74LVC4245*/
ARM GAS  C:\Users\123\AppData\Local\Temp\ccWgqIzz.s 			page 30


 464:Src/user_gpio.c ****         HAL_Delay(50);/*延时50ms等待电源稳定后再读取状态*/
 465:Src/user_gpio.c ****         g_stdoor_stat[index] = !read_sn74lvc_statua(index-V_SIXTEEN, READ_DOORS_STATUS);    /*实
 466:Src/user_gpio.c ****         HAL_Delay(10);/*根据上一版本蓝牙柜的调试经验，读完状态后需要延时一
 467:Src/user_gpio.c ****         SN74_E_DIS;  /*disable 74LVC4245*/
 468:Src/user_gpio.c ****     }
 469:Src/user_gpio.c ****     else if(index <= V_TWENTY_THREE)    /*20-23号格口就使能第六片sn74*/
 470:Src/user_gpio.c ****     {
 471:Src/user_gpio.c ****         SN74_F_EN;  /*enable 74LVC4245*/
 472:Src/user_gpio.c ****         HAL_Delay(50);/*延时50ms等待电源稳定后再读取状态*/
 473:Src/user_gpio.c ****         g_stdoor_stat[index] = !read_sn74lvc_statua(index-V_TWENTY, READ_DOORS_STATUS);    /*实际
 474:Src/user_gpio.c ****         HAL_Delay(10);/*根据上一版本蓝牙柜的调试经验，读完状态后需要延时一
 475:Src/user_gpio.c ****         SN74_F_DIS;  /*disable 74LVC4245*/
 476:Src/user_gpio.c ****     }
 477:Src/user_gpio.c ****     else
 478:Src/user_gpio.c ****     {
 479:Src/user_gpio.c ****         printf("door num  err!");
 480:Src/user_gpio.c ****     }
 481:Src/user_gpio.c **** 
 482:Src/user_gpio.c ****     POWER_5V_DIS;    /*关闭5V电源*/
 483:Src/user_gpio.c ****     GOODS_POWER_3V3_DIS;    /*关闭3.3V电源*/
 484:Src/user_gpio.c **** }
 485:Src/user_gpio.c **** 
 486:Src/user_gpio.c **** /*********************************************************************
 487:Src/user_gpio.c ****  *	function name:read sn74lvc bus status
 488:Src/user_gpio.c ****  *	describe:read sn74 chip bus  status
 489:Src/user_gpio.c ****  *	input:bus_num：1-4;goods_or_doors:goods status or doors status;
 490:Src/user_gpio.c ****  *                   1、3、5、7 bus read doors status,0、2、4、6 bus read goods status
 491:Src/user_gpio.c ****  *	output:void
 492:Src/user_gpio.c ****  *	return:uint8_t 1 or 0 or 0xff，0xff:mean failed
 493:Src/user_gpio.c ****  *	revision histroy :   1.
 494:Src/user_gpio.c ****  *                      2.
 495:Src/user_gpio.c ****  **********************************************************************/
 496:Src/user_gpio.c **** uint8_t read_sn74lvc_statua(uint8_t bus_num, uint8_t goods_or_doors)
 497:Src/user_gpio.c **** {
 1027              		.loc 1 497 1 is_stmt 1 view -0
 1028              		.cfi_startproc
 1029              		@ args = 0, pretend = 0, frame = 0
 1030              		@ frame_needed = 0, uses_anonymous_args = 0
 1031              		.loc 1 497 1 is_stmt 0 view .LVU266
 1032 0000 38B5     		push	{r3, r4, r5, lr}
 1033              	.LCFI3:
 1034              		.cfi_def_cfa_offset 16
 1035              		.cfi_offset 3, -16
 1036              		.cfi_offset 4, -12
 1037              		.cfi_offset 5, -8
 1038              		.cfi_offset 14, -4
 498:Src/user_gpio.c ****     /*读取sn74芯片的线状态*/
 499:Src/user_gpio.c ****     uint8_t m_read_bus_satus = I_ZERO;
 1039              		.loc 1 499 5 is_stmt 1 view .LVU267
 1040              	.LVL144:
 500:Src/user_gpio.c ****     if((goods_or_doors == READ_DOORS_STATUS) || (goods_or_doors == READ_GOODS_STATUS))    /*判断
 1041              		.loc 1 500 5 view .LVU268
 1042              		.loc 1 500 46 is_stmt 0 view .LVU269
 1043 0002 4B1E     		subs	r3, r1, #1
 1044 0004 DBB2     		uxtb	r3, r3
 1045              		.loc 1 500 7 view .LVU270
 1046 0006 012B     		cmp	r3, #1
ARM GAS  C:\Users\123\AppData\Local\Temp\ccWgqIzz.s 			page 31


 1047 0008 45D8     		bhi	.L102
 1048 000a 0546     		mov	r5, r0
 1049 000c 0C46     		mov	r4, r1
 501:Src/user_gpio.c ****     {
 502:Src/user_gpio.c ****         if(goods_or_doors == READ_DOORS_STATUS)    /*每一片sn74的1、3、5、7线为物品状
 1050              		.loc 1 502 9 is_stmt 1 view .LVU271
 1051              		.loc 1 502 11 is_stmt 0 view .LVU272
 1052 000e 0129     		cmp	r1, #1
 1053 0010 0BD0     		beq	.L107
 499:Src/user_gpio.c ****     if((goods_or_doors == READ_DOORS_STATUS) || (goods_or_doors == READ_GOODS_STATUS))    /*判断
 1054              		.loc 1 499 13 view .LVU273
 1055 0012 0020     		movs	r0, #0
 1056              	.LVL145:
 1057              	.L95:
 503:Src/user_gpio.c ****         {
 504:Src/user_gpio.c ****             if(bus_num == 0)
 505:Src/user_gpio.c ****             {
 506:Src/user_gpio.c ****                 m_read_bus_satus = GOODS_A0_STATUS;
 507:Src/user_gpio.c ****             }
 508:Src/user_gpio.c ****             else if(bus_num == 1)
 509:Src/user_gpio.c ****             {
 510:Src/user_gpio.c ****                 m_read_bus_satus = GOODS_A2_STATUS;
 511:Src/user_gpio.c ****             }
 512:Src/user_gpio.c ****             else if(bus_num == 2)
 513:Src/user_gpio.c ****             {
 514:Src/user_gpio.c ****                 m_read_bus_satus = GOODS_A4_STATUS;
 515:Src/user_gpio.c ****             }
 516:Src/user_gpio.c ****             else if(bus_num == 3)
 517:Src/user_gpio.c ****             {
 518:Src/user_gpio.c ****                 m_read_bus_satus = GOODS_A6_STATUS;
 519:Src/user_gpio.c ****             }
 520:Src/user_gpio.c ****             else
 521:Src/user_gpio.c ****             {
 522:Src/user_gpio.c ****                 m_read_bus_satus = UINT8_MAX;     /*bus number error!*/
 523:Src/user_gpio.c ****             }
 524:Src/user_gpio.c ****         }
 525:Src/user_gpio.c ****         if(goods_or_doors == READ_GOODS_STATUS)    /*读取门磁状态*/
 1058              		.loc 1 525 9 is_stmt 1 view .LVU274
 1059              		.loc 1 525 11 is_stmt 0 view .LVU275
 1060 0014 022C     		cmp	r4, #2
 1061 0016 3FD1     		bne	.L94
 526:Src/user_gpio.c ****         {
 527:Src/user_gpio.c ****             if(bus_num == 0)    /*每一片的0、2、4、6线为物品状态*/
 1062              		.loc 1 527 13 is_stmt 1 view .LVU276
 1063              		.loc 1 527 15 is_stmt 0 view .LVU277
 1064 0018 3DB3     		cbz	r5, .L108
 528:Src/user_gpio.c ****             {
 529:Src/user_gpio.c ****                 m_read_bus_satus = GOODS_A1_STATUS;
 530:Src/user_gpio.c ****             }
 531:Src/user_gpio.c ****             else if(bus_num == 1)
 1065              		.loc 1 531 18 is_stmt 1 view .LVU278
 1066              		.loc 1 531 20 is_stmt 0 view .LVU279
 1067 001a 012D     		cmp	r5, #1
 1068 001c 2BD0     		beq	.L109
 532:Src/user_gpio.c ****             {
 533:Src/user_gpio.c ****                 m_read_bus_satus = GOODS_A3_STATUS;
 534:Src/user_gpio.c ****             }
ARM GAS  C:\Users\123\AppData\Local\Temp\ccWgqIzz.s 			page 32


 535:Src/user_gpio.c ****             else if(bus_num == 2)
 1069              		.loc 1 535 18 is_stmt 1 view .LVU280
 1070              		.loc 1 535 20 is_stmt 0 view .LVU281
 1071 001e 022D     		cmp	r5, #2
 1072 0020 2ED0     		beq	.L110
 536:Src/user_gpio.c ****             {
 537:Src/user_gpio.c ****                 m_read_bus_satus = GOODS_A5_STATUS;
 538:Src/user_gpio.c ****             }
 539:Src/user_gpio.c ****             else if(bus_num == 3)
 1073              		.loc 1 539 18 is_stmt 1 view .LVU282
 1074              		.loc 1 539 20 is_stmt 0 view .LVU283
 1075 0022 032D     		cmp	r5, #3
 1076 0024 31D0     		beq	.L111
 540:Src/user_gpio.c ****             {
 541:Src/user_gpio.c ****                 m_read_bus_satus = GOODS_A7_STATUS;
 542:Src/user_gpio.c ****             }
 543:Src/user_gpio.c ****             else
 544:Src/user_gpio.c ****             {
 545:Src/user_gpio.c ****                 m_read_bus_satus = UINT8_MAX;     /*bus number error!*/
 1077              		.loc 1 545 34 view .LVU284
 1078 0026 FF20     		movs	r0, #255
 1079              	.LVL146:
 1080              		.loc 1 545 34 view .LVU285
 1081 0028 36E0     		b	.L94
 1082              	.LVL147:
 1083              	.L107:
 504:Src/user_gpio.c ****             {
 1084              		.loc 1 504 13 is_stmt 1 view .LVU286
 504:Src/user_gpio.c ****             {
 1085              		.loc 1 504 15 is_stmt 0 view .LVU287
 1086 002a 38B1     		cbz	r0, .L112
 508:Src/user_gpio.c ****             {
 1087              		.loc 1 508 18 is_stmt 1 view .LVU288
 508:Src/user_gpio.c ****             {
 1088              		.loc 1 508 20 is_stmt 0 view .LVU289
 1089 002c 0128     		cmp	r0, #1
 1090 002e 0BD0     		beq	.L113
 512:Src/user_gpio.c ****             {
 1091              		.loc 1 512 18 is_stmt 1 view .LVU290
 512:Src/user_gpio.c ****             {
 1092              		.loc 1 512 20 is_stmt 0 view .LVU291
 1093 0030 0228     		cmp	r0, #2
 1094 0032 0FD0     		beq	.L114
 516:Src/user_gpio.c ****             {
 1095              		.loc 1 516 18 is_stmt 1 view .LVU292
 516:Src/user_gpio.c ****             {
 1096              		.loc 1 516 20 is_stmt 0 view .LVU293
 1097 0034 0328     		cmp	r0, #3
 1098 0036 12D0     		beq	.L115
 522:Src/user_gpio.c ****             }
 1099              		.loc 1 522 34 view .LVU294
 1100 0038 FF20     		movs	r0, #255
 1101              	.LVL148:
 522:Src/user_gpio.c ****             }
 1102              		.loc 1 522 34 view .LVU295
 1103 003a EBE7     		b	.L95
 1104              	.LVL149:
ARM GAS  C:\Users\123\AppData\Local\Temp\ccWgqIzz.s 			page 33


 1105              	.L112:
 506:Src/user_gpio.c ****             }
 1106              		.loc 1 506 17 is_stmt 1 view .LVU296
 506:Src/user_gpio.c ****             }
 1107              		.loc 1 506 36 is_stmt 0 view .LVU297
 1108 003c 4FF40051 		mov	r1, #8192
 1109              	.LVL150:
 506:Src/user_gpio.c ****             }
 1110              		.loc 1 506 36 view .LVU298
 1111 0040 1648     		ldr	r0, .L116
 1112              	.LVL151:
 506:Src/user_gpio.c ****             }
 1113              		.loc 1 506 36 view .LVU299
 1114 0042 FFF7FEFF 		bl	HAL_GPIO_ReadPin
 1115              	.LVL152:
 506:Src/user_gpio.c ****             }
 1116              		.loc 1 506 36 view .LVU300
 1117 0046 E5E7     		b	.L95
 1118              	.LVL153:
 1119              	.L113:
 510:Src/user_gpio.c ****             }
 1120              		.loc 1 510 17 is_stmt 1 view .LVU301
 510:Src/user_gpio.c ****             }
 1121              		.loc 1 510 36 is_stmt 0 view .LVU302
 1122 0048 4FF40041 		mov	r1, #32768
 1123              	.LVL154:
 510:Src/user_gpio.c ****             }
 1124              		.loc 1 510 36 view .LVU303
 1125 004c 1348     		ldr	r0, .L116
 1126              	.LVL155:
 510:Src/user_gpio.c ****             }
 1127              		.loc 1 510 36 view .LVU304
 1128 004e FFF7FEFF 		bl	HAL_GPIO_ReadPin
 1129              	.LVL156:
 510:Src/user_gpio.c ****             }
 1130              		.loc 1 510 36 view .LVU305
 1131 0052 DFE7     		b	.L95
 1132              	.LVL157:
 1133              	.L114:
 514:Src/user_gpio.c ****             }
 1134              		.loc 1 514 17 is_stmt 1 view .LVU306
 514:Src/user_gpio.c ****             }
 1135              		.loc 1 514 36 is_stmt 0 view .LVU307
 1136 0054 0221     		movs	r1, #2
 1137              	.LVL158:
 514:Src/user_gpio.c ****             }
 1138              		.loc 1 514 36 view .LVU308
 1139 0056 1248     		ldr	r0, .L116+4
 1140              	.LVL159:
 514:Src/user_gpio.c ****             }
 1141              		.loc 1 514 36 view .LVU309
 1142 0058 FFF7FEFF 		bl	HAL_GPIO_ReadPin
 1143              	.LVL160:
 514:Src/user_gpio.c ****             }
 1144              		.loc 1 514 36 view .LVU310
 1145 005c DAE7     		b	.L95
 1146              	.LVL161:
ARM GAS  C:\Users\123\AppData\Local\Temp\ccWgqIzz.s 			page 34


 1147              	.L115:
 518:Src/user_gpio.c ****             }
 1148              		.loc 1 518 17 is_stmt 1 view .LVU311
 518:Src/user_gpio.c ****             }
 1149              		.loc 1 518 36 is_stmt 0 view .LVU312
 1150 005e 4FF48071 		mov	r1, #256
 1151              	.LVL162:
 518:Src/user_gpio.c ****             }
 1152              		.loc 1 518 36 view .LVU313
 1153 0062 1048     		ldr	r0, .L116+8
 1154              	.LVL163:
 518:Src/user_gpio.c ****             }
 1155              		.loc 1 518 36 view .LVU314
 1156 0064 FFF7FEFF 		bl	HAL_GPIO_ReadPin
 1157              	.LVL164:
 518:Src/user_gpio.c ****             }
 1158              		.loc 1 518 36 view .LVU315
 1159 0068 D4E7     		b	.L95
 1160              	.L108:
 529:Src/user_gpio.c ****             }
 1161              		.loc 1 529 17 is_stmt 1 view .LVU316
 529:Src/user_gpio.c ****             }
 1162              		.loc 1 529 36 is_stmt 0 view .LVU317
 1163 006a 4FF48041 		mov	r1, #16384
 1164 006e 0B48     		ldr	r0, .L116
 1165              	.LVL165:
 529:Src/user_gpio.c ****             }
 1166              		.loc 1 529 36 view .LVU318
 1167 0070 FFF7FEFF 		bl	HAL_GPIO_ReadPin
 1168              	.LVL166:
 529:Src/user_gpio.c ****             }
 1169              		.loc 1 529 36 view .LVU319
 1170 0074 10E0     		b	.L94
 1171              	.L109:
 533:Src/user_gpio.c ****             }
 1172              		.loc 1 533 17 is_stmt 1 view .LVU320
 533:Src/user_gpio.c ****             }
 1173              		.loc 1 533 36 is_stmt 0 view .LVU321
 1174 0076 0121     		movs	r1, #1
 1175 0078 0948     		ldr	r0, .L116+4
 1176              	.LVL167:
 533:Src/user_gpio.c ****             }
 1177              		.loc 1 533 36 view .LVU322
 1178 007a FFF7FEFF 		bl	HAL_GPIO_ReadPin
 1179              	.LVL168:
 533:Src/user_gpio.c ****             }
 1180              		.loc 1 533 36 view .LVU323
 1181 007e 0BE0     		b	.L94
 1182              	.L110:
 537:Src/user_gpio.c ****             }
 1183              		.loc 1 537 17 is_stmt 1 view .LVU324
 537:Src/user_gpio.c ****             }
 1184              		.loc 1 537 36 is_stmt 0 view .LVU325
 1185 0080 8021     		movs	r1, #128
 1186 0082 0848     		ldr	r0, .L116+8
 1187              	.LVL169:
 537:Src/user_gpio.c ****             }
ARM GAS  C:\Users\123\AppData\Local\Temp\ccWgqIzz.s 			page 35


 1188              		.loc 1 537 36 view .LVU326
 1189 0084 FFF7FEFF 		bl	HAL_GPIO_ReadPin
 1190              	.LVL170:
 537:Src/user_gpio.c ****             }
 1191              		.loc 1 537 36 view .LVU327
 1192 0088 06E0     		b	.L94
 1193              	.L111:
 541:Src/user_gpio.c ****             }
 1194              		.loc 1 541 17 is_stmt 1 view .LVU328
 541:Src/user_gpio.c ****             }
 1195              		.loc 1 541 36 is_stmt 0 view .LVU329
 1196 008a 4FF40071 		mov	r1, #512
 1197 008e 0548     		ldr	r0, .L116+8
 1198              	.LVL171:
 541:Src/user_gpio.c ****             }
 1199              		.loc 1 541 36 view .LVU330
 1200 0090 FFF7FEFF 		bl	HAL_GPIO_ReadPin
 1201              	.LVL172:
 541:Src/user_gpio.c ****             }
 1202              		.loc 1 541 36 view .LVU331
 1203 0094 00E0     		b	.L94
 1204              	.LVL173:
 1205              	.L102:
 546:Src/user_gpio.c ****             }
 547:Src/user_gpio.c ****         }
 548:Src/user_gpio.c ****     }
 549:Src/user_gpio.c ****     else
 550:Src/user_gpio.c ****     {
 551:Src/user_gpio.c ****         m_read_bus_satus = UINT8_MAX;    /*返回状态为0xff时说明读取失败*/
 1206              		.loc 1 551 26 view .LVU332
 1207 0096 FF20     		movs	r0, #255
 1208              	.LVL174:
 1209              	.L94:
 552:Src/user_gpio.c ****     }
 553:Src/user_gpio.c **** 
 554:Src/user_gpio.c ****     return m_read_bus_satus;
 1210              		.loc 1 554 5 is_stmt 1 view .LVU333
 555:Src/user_gpio.c **** }
 1211              		.loc 1 555 1 is_stmt 0 view .LVU334
 1212 0098 38BD     		pop	{r3, r4, r5, pc}
 1213              	.L117:
 1214 009a 00BF     		.align	2
 1215              	.L116:
 1216 009c 00140048 		.word	1207964672
 1217 00a0 00180048 		.word	1207965696
 1218 00a4 00100048 		.word	1207963648
 1219              		.cfi_endproc
 1220              	.LFE320:
 1222              		.section	.rodata.door_status_index.str1.4,"aMS",%progbits,1
 1223              		.align	2
 1224              	.LC12:
 1225 0000 646F6F72 		.ascii	"door num  err!\000"
 1225      206E756D 
 1225      20206572 
 1225      722100
 1226              		.section	.text.door_status_index,"ax",%progbits
 1227              		.align	1
ARM GAS  C:\Users\123\AppData\Local\Temp\ccWgqIzz.s 			page 36


 1228              		.global	door_status_index
 1229              		.syntax unified
 1230              		.thumb
 1231              		.thumb_func
 1232              		.fpu fpv4-sp-d16
 1234              	door_status_index:
 1235              	.LVL175:
 1236              	.LFB319:
 423:Src/user_gpio.c ****     /*获取单个门磁状态*/
 1237              		.loc 1 423 1 is_stmt 1 view -0
 1238              		.cfi_startproc
 1239              		@ args = 0, pretend = 0, frame = 0
 1240              		@ frame_needed = 0, uses_anonymous_args = 0
 423:Src/user_gpio.c ****     /*获取单个门磁状态*/
 1241              		.loc 1 423 1 is_stmt 0 view .LVU336
 1242 0000 38B5     		push	{r3, r4, r5, lr}
 1243              	.LCFI4:
 1244              		.cfi_def_cfa_offset 16
 1245              		.cfi_offset 3, -16
 1246              		.cfi_offset 4, -12
 1247              		.cfi_offset 5, -8
 1248              		.cfi_offset 14, -4
 1249 0002 0446     		mov	r4, r0
 425:Src/user_gpio.c ****     GOODS_POWER_3V3_EN;     /*开启SN74LV片子的3.3V电源*/
 1250              		.loc 1 425 5 is_stmt 1 view .LVU337
 1251 0004 0122     		movs	r2, #1
 1252 0006 4FF40071 		mov	r1, #512
 1253 000a 6C48     		ldr	r0, .L132
 1254              	.LVL176:
 425:Src/user_gpio.c ****     GOODS_POWER_3V3_EN;     /*开启SN74LV片子的3.3V电源*/
 1255              		.loc 1 425 5 is_stmt 0 view .LVU338
 1256 000c FFF7FEFF 		bl	HAL_GPIO_WritePin
 1257              	.LVL177:
 426:Src/user_gpio.c ****     /*一共6片sn74lv片子分别控制24路门磁检测、24路物品检测，
 1258              		.loc 1 426 5 is_stmt 1 view .LVU339
 1259 0010 0022     		movs	r2, #0
 1260 0012 0121     		movs	r1, #1
 1261 0014 6A48     		ldr	r0, .L132+4
 1262 0016 FFF7FEFF 		bl	HAL_GPIO_WritePin
 1263              	.LVL178:
 429:Src/user_gpio.c ****     {
 1264              		.loc 1 429 5 view .LVU340
 429:Src/user_gpio.c ****     {
 1265              		.loc 1 429 7 is_stmt 0 view .LVU341
 1266 001a 032C     		cmp	r4, #3
 1267 001c 2BD9     		bls	.L127
 437:Src/user_gpio.c ****     {
 1268              		.loc 1 437 10 is_stmt 1 view .LVU342
 437:Src/user_gpio.c ****     {
 1269              		.loc 1 437 12 is_stmt 0 view .LVU343
 1270 001e 072C     		cmp	r4, #7
 1271 0020 51D9     		bls	.L128
 445:Src/user_gpio.c ****     {
 1272              		.loc 1 445 10 is_stmt 1 view .LVU344
 445:Src/user_gpio.c ****     {
 1273              		.loc 1 445 12 is_stmt 0 view .LVU345
 1274 0022 0B2C     		cmp	r4, #11
ARM GAS  C:\Users\123\AppData\Local\Temp\ccWgqIzz.s 			page 37


 1275 0024 6DD9     		bls	.L129
 453:Src/user_gpio.c ****     {
 1276              		.loc 1 453 10 is_stmt 1 view .LVU346
 453:Src/user_gpio.c ****     {
 1277              		.loc 1 453 12 is_stmt 0 view .LVU347
 1278 0026 0F2C     		cmp	r4, #15
 1279 0028 40F28A80 		bls	.L130
 461:Src/user_gpio.c ****     {
 1280              		.loc 1 461 10 is_stmt 1 view .LVU348
 461:Src/user_gpio.c ****     {
 1281              		.loc 1 461 12 is_stmt 0 view .LVU349
 1282 002c 132C     		cmp	r4, #19
 1283 002e 40F2A480 		bls	.L131
 469:Src/user_gpio.c ****     {
 1284              		.loc 1 469 10 is_stmt 1 view .LVU350
 469:Src/user_gpio.c ****     {
 1285              		.loc 1 469 12 is_stmt 0 view .LVU351
 1286 0032 172C     		cmp	r4, #23
 1287 0034 00F2BE80 		bhi	.L125
 471:Src/user_gpio.c ****         HAL_Delay(50);/*延时50ms等待电源稳定后再读取状态*/
 1288              		.loc 1 471 9 is_stmt 1 view .LVU352
 1289 0038 604D     		ldr	r5, .L132
 1290 003a 0022     		movs	r2, #0
 1291 003c 4FF48071 		mov	r1, #256
 1292 0040 2846     		mov	r0, r5
 1293 0042 FFF7FEFF 		bl	HAL_GPIO_WritePin
 1294              	.LVL179:
 472:Src/user_gpio.c ****         g_stdoor_stat[index] = !read_sn74lvc_statua(index-V_TWENTY, READ_DOORS_STATUS);    /*实际
 1295              		.loc 1 472 9 view .LVU353
 1296 0046 3220     		movs	r0, #50
 1297 0048 FFF7FEFF 		bl	HAL_Delay
 1298              	.LVL180:
 473:Src/user_gpio.c ****         HAL_Delay(10);/*根据上一版本蓝牙柜的调试经验，读完状态后需要延时一
 1299              		.loc 1 473 9 view .LVU354
 473:Src/user_gpio.c ****         HAL_Delay(10);/*根据上一版本蓝牙柜的调试经验，读完状态后需要延时一
 1300              		.loc 1 473 33 is_stmt 0 view .LVU355
 1301 004c A4F11400 		sub	r0, r4, #20
 1302 0050 0121     		movs	r1, #1
 1303 0052 C0B2     		uxtb	r0, r0
 1304 0054 FFF7FEFF 		bl	read_sn74lvc_statua
 1305              	.LVL181:
 473:Src/user_gpio.c ****         HAL_Delay(10);/*根据上一版本蓝牙柜的调试经验，读完状态后需要延时一
 1306              		.loc 1 473 32 view .LVU356
 1307 0058 B0FA80F0 		clz	r0, r0
 1308 005c 4009     		lsrs	r0, r0, #5
 473:Src/user_gpio.c ****         HAL_Delay(10);/*根据上一版本蓝牙柜的调试经验，读完状态后需要延时一
 1309              		.loc 1 473 30 view .LVU357
 1310 005e 594B     		ldr	r3, .L132+8
 1311 0060 1855     		strb	r0, [r3, r4]
 474:Src/user_gpio.c ****         SN74_F_DIS;  /*disable 74LVC4245*/
 1312              		.loc 1 474 9 is_stmt 1 view .LVU358
 1313 0062 0A20     		movs	r0, #10
 1314 0064 FFF7FEFF 		bl	HAL_Delay
 1315              	.LVL182:
 475:Src/user_gpio.c ****     }
 1316              		.loc 1 475 9 view .LVU359
 1317 0068 0122     		movs	r2, #1
ARM GAS  C:\Users\123\AppData\Local\Temp\ccWgqIzz.s 			page 38


 1318 006a 4FF48071 		mov	r1, #256
 1319 006e 2846     		mov	r0, r5
 1320 0070 FFF7FEFF 		bl	HAL_GPIO_WritePin
 1321              	.LVL183:
 1322 0074 1BE0     		b	.L120
 1323              	.L127:
 431:Src/user_gpio.c ****         HAL_Delay(50);/*延时50ms等待电源稳定后再读取状态*/
 1324              		.loc 1 431 9 view .LVU360
 1325 0076 524D     		ldr	r5, .L132+4
 1326 0078 0022     		movs	r2, #0
 1327 007a 4FF48061 		mov	r1, #1024
 1328 007e 2846     		mov	r0, r5
 1329 0080 FFF7FEFF 		bl	HAL_GPIO_WritePin
 1330              	.LVL184:
 432:Src/user_gpio.c ****         g_stdoor_stat[index] = !read_sn74lvc_statua(index, READ_DOORS_STATUS);     /*实际状态
 1331              		.loc 1 432 9 view .LVU361
 1332 0084 3220     		movs	r0, #50
 1333 0086 FFF7FEFF 		bl	HAL_Delay
 1334              	.LVL185:
 433:Src/user_gpio.c ****         HAL_Delay(10);/*根据上一版本蓝牙柜的调试经验，读完状态后需要延时一
 1335              		.loc 1 433 9 view .LVU362
 433:Src/user_gpio.c ****         HAL_Delay(10);/*根据上一版本蓝牙柜的调试经验，读完状态后需要延时一
 1336              		.loc 1 433 33 is_stmt 0 view .LVU363
 1337 008a 0121     		movs	r1, #1
 1338 008c 2046     		mov	r0, r4
 1339 008e FFF7FEFF 		bl	read_sn74lvc_statua
 1340              	.LVL186:
 433:Src/user_gpio.c ****         HAL_Delay(10);/*根据上一版本蓝牙柜的调试经验，读完状态后需要延时一
 1341              		.loc 1 433 32 view .LVU364
 1342 0092 B0FA80F0 		clz	r0, r0
 1343 0096 4009     		lsrs	r0, r0, #5
 433:Src/user_gpio.c ****         HAL_Delay(10);/*根据上一版本蓝牙柜的调试经验，读完状态后需要延时一
 1344              		.loc 1 433 30 view .LVU365
 1345 0098 4A4B     		ldr	r3, .L132+8
 1346 009a 1855     		strb	r0, [r3, r4]
 434:Src/user_gpio.c ****         SN74_A_DIS;  /*disable 74LVC4245*/
 1347              		.loc 1 434 9 is_stmt 1 view .LVU366
 1348 009c 0A20     		movs	r0, #10
 1349 009e FFF7FEFF 		bl	HAL_Delay
 1350              	.LVL187:
 435:Src/user_gpio.c ****     }
 1351              		.loc 1 435 9 view .LVU367
 1352 00a2 0122     		movs	r2, #1
 1353 00a4 4FF48061 		mov	r1, #1024
 1354 00a8 2846     		mov	r0, r5
 1355 00aa FFF7FEFF 		bl	HAL_GPIO_WritePin
 1356              	.LVL188:
 1357              	.L120:
 482:Src/user_gpio.c ****     GOODS_POWER_3V3_DIS;    /*关闭3.3V电源*/
 1358              		.loc 1 482 5 view .LVU368
 1359 00ae 0022     		movs	r2, #0
 1360 00b0 4FF40071 		mov	r1, #512
 1361 00b4 4148     		ldr	r0, .L132
 1362 00b6 FFF7FEFF 		bl	HAL_GPIO_WritePin
 1363              	.LVL189:
 483:Src/user_gpio.c **** }
 1364              		.loc 1 483 5 view .LVU369
ARM GAS  C:\Users\123\AppData\Local\Temp\ccWgqIzz.s 			page 39


 1365 00ba 0122     		movs	r2, #1
 1366 00bc 1146     		mov	r1, r2
 1367 00be 4048     		ldr	r0, .L132+4
 1368 00c0 FFF7FEFF 		bl	HAL_GPIO_WritePin
 1369              	.LVL190:
 484:Src/user_gpio.c **** 
 1370              		.loc 1 484 1 is_stmt 0 view .LVU370
 1371 00c4 38BD     		pop	{r3, r4, r5, pc}
 1372              	.L128:
 439:Src/user_gpio.c ****         HAL_Delay(50);/*延时50ms等待电源稳定后再读取状态*/
 1373              		.loc 1 439 9 is_stmt 1 view .LVU371
 1374 00c6 3E4D     		ldr	r5, .L132+4
 1375 00c8 0022     		movs	r2, #0
 1376 00ca 4FF40061 		mov	r1, #2048
 1377 00ce 2846     		mov	r0, r5
 1378 00d0 FFF7FEFF 		bl	HAL_GPIO_WritePin
 1379              	.LVL191:
 440:Src/user_gpio.c ****         g_stdoor_stat[index] = !read_sn74lvc_statua(index-V_FOUR, READ_DOORS_STATUS);    /*实际
 1380              		.loc 1 440 9 view .LVU372
 1381 00d4 3220     		movs	r0, #50
 1382 00d6 FFF7FEFF 		bl	HAL_Delay
 1383              	.LVL192:
 441:Src/user_gpio.c ****         HAL_Delay(10);/*根据上一版本蓝牙柜的调试经验，读完状态后需要延时一
 1384              		.loc 1 441 9 view .LVU373
 441:Src/user_gpio.c ****         HAL_Delay(10);/*根据上一版本蓝牙柜的调试经验，读完状态后需要延时一
 1385              		.loc 1 441 33 is_stmt 0 view .LVU374
 1386 00da 201F     		subs	r0, r4, #4
 1387 00dc 0121     		movs	r1, #1
 1388 00de C0B2     		uxtb	r0, r0
 1389 00e0 FFF7FEFF 		bl	read_sn74lvc_statua
 1390              	.LVL193:
 441:Src/user_gpio.c ****         HAL_Delay(10);/*根据上一版本蓝牙柜的调试经验，读完状态后需要延时一
 1391              		.loc 1 441 32 view .LVU375
 1392 00e4 B0FA80F0 		clz	r0, r0
 1393 00e8 4009     		lsrs	r0, r0, #5
 441:Src/user_gpio.c ****         HAL_Delay(10);/*根据上一版本蓝牙柜的调试经验，读完状态后需要延时一
 1394              		.loc 1 441 30 view .LVU376
 1395 00ea 364B     		ldr	r3, .L132+8
 1396 00ec 1855     		strb	r0, [r3, r4]
 442:Src/user_gpio.c ****         SN74_B_DIS;  /*disable 74LVC4245*/
 1397              		.loc 1 442 9 is_stmt 1 view .LVU377
 1398 00ee 0A20     		movs	r0, #10
 1399 00f0 FFF7FEFF 		bl	HAL_Delay
 1400              	.LVL194:
 443:Src/user_gpio.c ****     }
 1401              		.loc 1 443 9 view .LVU378
 1402 00f4 0122     		movs	r2, #1
 1403 00f6 4FF40061 		mov	r1, #2048
 1404 00fa 2846     		mov	r0, r5
 1405 00fc FFF7FEFF 		bl	HAL_GPIO_WritePin
 1406              	.LVL195:
 1407 0100 D5E7     		b	.L120
 1408              	.L129:
 447:Src/user_gpio.c ****         HAL_Delay(50);/*延时50ms等待电源稳定后再读取状态*/
 1409              		.loc 1 447 9 view .LVU379
 1410 0102 2E4D     		ldr	r5, .L132
 1411 0104 0022     		movs	r2, #0
ARM GAS  C:\Users\123\AppData\Local\Temp\ccWgqIzz.s 			page 40


 1412 0106 4FF48051 		mov	r1, #4096
 1413 010a 2846     		mov	r0, r5
 1414 010c FFF7FEFF 		bl	HAL_GPIO_WritePin
 1415              	.LVL196:
 448:Src/user_gpio.c ****         g_stdoor_stat[index] = !read_sn74lvc_statua(index-V_EIGHT, READ_DOORS_STATUS);    /*实际
 1416              		.loc 1 448 9 view .LVU380
 1417 0110 3220     		movs	r0, #50
 1418 0112 FFF7FEFF 		bl	HAL_Delay
 1419              	.LVL197:
 449:Src/user_gpio.c ****         HAL_Delay(10);/*根据上一版本蓝牙柜的调试经验，读完状态后需要延时一
 1420              		.loc 1 449 9 view .LVU381
 449:Src/user_gpio.c ****         HAL_Delay(10);/*根据上一版本蓝牙柜的调试经验，读完状态后需要延时一
 1421              		.loc 1 449 33 is_stmt 0 view .LVU382
 1422 0116 A4F10800 		sub	r0, r4, #8
 1423 011a 0121     		movs	r1, #1
 1424 011c C0B2     		uxtb	r0, r0
 1425 011e FFF7FEFF 		bl	read_sn74lvc_statua
 1426              	.LVL198:
 449:Src/user_gpio.c ****         HAL_Delay(10);/*根据上一版本蓝牙柜的调试经验，读完状态后需要延时一
 1427              		.loc 1 449 32 view .LVU383
 1428 0122 B0FA80F0 		clz	r0, r0
 1429 0126 4009     		lsrs	r0, r0, #5
 449:Src/user_gpio.c ****         HAL_Delay(10);/*根据上一版本蓝牙柜的调试经验，读完状态后需要延时一
 1430              		.loc 1 449 30 view .LVU384
 1431 0128 264B     		ldr	r3, .L132+8
 1432 012a 1855     		strb	r0, [r3, r4]
 450:Src/user_gpio.c ****         SN74_C_DIS;  /*disable 74LVC4245*/
 1433              		.loc 1 450 9 is_stmt 1 view .LVU385
 1434 012c 0A20     		movs	r0, #10
 1435 012e FFF7FEFF 		bl	HAL_Delay
 1436              	.LVL199:
 451:Src/user_gpio.c ****     }
 1437              		.loc 1 451 9 view .LVU386
 1438 0132 0122     		movs	r2, #1
 1439 0134 4FF48051 		mov	r1, #4096
 1440 0138 2846     		mov	r0, r5
 1441 013a FFF7FEFF 		bl	HAL_GPIO_WritePin
 1442              	.LVL200:
 1443 013e B6E7     		b	.L120
 1444              	.L130:
 455:Src/user_gpio.c ****         HAL_Delay(50);/*延时50ms等待电源稳定后再读取状态*/
 1445              		.loc 1 455 9 view .LVU387
 1446 0140 1E4D     		ldr	r5, .L132
 1447 0142 0022     		movs	r2, #0
 1448 0144 4021     		movs	r1, #64
 1449 0146 2846     		mov	r0, r5
 1450 0148 FFF7FEFF 		bl	HAL_GPIO_WritePin
 1451              	.LVL201:
 456:Src/user_gpio.c ****         g_stdoor_stat[index] = !read_sn74lvc_statua(index-V_TWELVE, READ_DOORS_STATUS);   /*实际
 1452              		.loc 1 456 9 view .LVU388
 1453 014c 3220     		movs	r0, #50
 1454 014e FFF7FEFF 		bl	HAL_Delay
 1455              	.LVL202:
 457:Src/user_gpio.c ****         HAL_Delay(10);/*根据上一版本蓝牙柜的调试经验，读完状态后需要延时一
 1456              		.loc 1 457 9 view .LVU389
 457:Src/user_gpio.c ****         HAL_Delay(10);/*根据上一版本蓝牙柜的调试经验，读完状态后需要延时一
 1457              		.loc 1 457 33 is_stmt 0 view .LVU390
ARM GAS  C:\Users\123\AppData\Local\Temp\ccWgqIzz.s 			page 41


 1458 0152 A4F10C00 		sub	r0, r4, #12
 1459 0156 0121     		movs	r1, #1
 1460 0158 C0B2     		uxtb	r0, r0
 1461 015a FFF7FEFF 		bl	read_sn74lvc_statua
 1462              	.LVL203:
 457:Src/user_gpio.c ****         HAL_Delay(10);/*根据上一版本蓝牙柜的调试经验，读完状态后需要延时一
 1463              		.loc 1 457 32 view .LVU391
 1464 015e B0FA80F0 		clz	r0, r0
 1465 0162 4009     		lsrs	r0, r0, #5
 457:Src/user_gpio.c ****         HAL_Delay(10);/*根据上一版本蓝牙柜的调试经验，读完状态后需要延时一
 1466              		.loc 1 457 30 view .LVU392
 1467 0164 174B     		ldr	r3, .L132+8
 1468 0166 1855     		strb	r0, [r3, r4]
 458:Src/user_gpio.c ****         SN74_D_DIS;  /*disable 74LVC4245*/
 1469              		.loc 1 458 9 is_stmt 1 view .LVU393
 1470 0168 0A20     		movs	r0, #10
 1471 016a FFF7FEFF 		bl	HAL_Delay
 1472              	.LVL204:
 459:Src/user_gpio.c ****     }
 1473              		.loc 1 459 9 view .LVU394
 1474 016e 0122     		movs	r2, #1
 1475 0170 4021     		movs	r1, #64
 1476 0172 2846     		mov	r0, r5
 1477 0174 FFF7FEFF 		bl	HAL_GPIO_WritePin
 1478              	.LVL205:
 1479 0178 99E7     		b	.L120
 1480              	.L131:
 463:Src/user_gpio.c ****         HAL_Delay(50);/*延时50ms等待电源稳定后再读取状态*/
 1481              		.loc 1 463 9 view .LVU395
 1482 017a 104D     		ldr	r5, .L132
 1483 017c 0022     		movs	r2, #0
 1484 017e 8021     		movs	r1, #128
 1485 0180 2846     		mov	r0, r5
 1486 0182 FFF7FEFF 		bl	HAL_GPIO_WritePin
 1487              	.LVL206:
 464:Src/user_gpio.c ****         g_stdoor_stat[index] = !read_sn74lvc_statua(index-V_SIXTEEN, READ_DOORS_STATUS);    /*实
 1488              		.loc 1 464 9 view .LVU396
 1489 0186 3220     		movs	r0, #50
 1490 0188 FFF7FEFF 		bl	HAL_Delay
 1491              	.LVL207:
 465:Src/user_gpio.c ****         HAL_Delay(10);/*根据上一版本蓝牙柜的调试经验，读完状态后需要延时一
 1492              		.loc 1 465 9 view .LVU397
 465:Src/user_gpio.c ****         HAL_Delay(10);/*根据上一版本蓝牙柜的调试经验，读完状态后需要延时一
 1493              		.loc 1 465 33 is_stmt 0 view .LVU398
 1494 018c A4F11000 		sub	r0, r4, #16
 1495 0190 0121     		movs	r1, #1
 1496 0192 C0B2     		uxtb	r0, r0
 1497 0194 FFF7FEFF 		bl	read_sn74lvc_statua
 1498              	.LVL208:
 465:Src/user_gpio.c ****         HAL_Delay(10);/*根据上一版本蓝牙柜的调试经验，读完状态后需要延时一
 1499              		.loc 1 465 32 view .LVU399
 1500 0198 B0FA80F0 		clz	r0, r0
 1501 019c 4009     		lsrs	r0, r0, #5
 465:Src/user_gpio.c ****         HAL_Delay(10);/*根据上一版本蓝牙柜的调试经验，读完状态后需要延时一
 1502              		.loc 1 465 30 view .LVU400
 1503 019e 094B     		ldr	r3, .L132+8
 1504 01a0 1855     		strb	r0, [r3, r4]
ARM GAS  C:\Users\123\AppData\Local\Temp\ccWgqIzz.s 			page 42


 466:Src/user_gpio.c ****         SN74_E_DIS;  /*disable 74LVC4245*/
 1505              		.loc 1 466 9 is_stmt 1 view .LVU401
 1506 01a2 0A20     		movs	r0, #10
 1507 01a4 FFF7FEFF 		bl	HAL_Delay
 1508              	.LVL209:
 467:Src/user_gpio.c ****     }
 1509              		.loc 1 467 9 view .LVU402
 1510 01a8 0122     		movs	r2, #1
 1511 01aa 8021     		movs	r1, #128
 1512 01ac 2846     		mov	r0, r5
 1513 01ae FFF7FEFF 		bl	HAL_GPIO_WritePin
 1514              	.LVL210:
 1515 01b2 7CE7     		b	.L120
 1516              	.L125:
 479:Src/user_gpio.c ****     }
 1517              		.loc 1 479 9 view .LVU403
 1518 01b4 0448     		ldr	r0, .L132+12
 1519 01b6 FFF7FEFF 		bl	printf
 1520              	.LVL211:
 1521 01ba 78E7     		b	.L120
 1522              	.L133:
 1523              		.align	2
 1524              	.L132:
 1525 01bc 00040048 		.word	1207960576
 1526 01c0 00100048 		.word	1207963648
 1527 01c4 00000000 		.word	.LANCHOR5
 1528 01c8 00000000 		.word	.LC12
 1529              		.cfi_endproc
 1530              	.LFE319:
 1532              		.section	.text.door_status_refresh,"ax",%progbits
 1533              		.align	1
 1534              		.global	door_status_refresh
 1535              		.syntax unified
 1536              		.thumb
 1537              		.thumb_func
 1538              		.fpu fpv4-sp-d16
 1540              	door_status_refresh:
 1541              	.LFB321:
 556:Src/user_gpio.c **** 
 557:Src/user_gpio.c **** /*********************************************************************
 558:Src/user_gpio.c ****  *	function name:door_status_refresh
 559:Src/user_gpio.c ****  *	describe:read all doors status
 560:Src/user_gpio.c ****  *	input:void
 561:Src/user_gpio.c ****  *	output:void
 562:Src/user_gpio.c ****  *	return:void
 563:Src/user_gpio.c ****  *	revision histroy :   1.
 564:Src/user_gpio.c ****  *                      2.
 565:Src/user_gpio.c ****  **********************************************************************/
 566:Src/user_gpio.c **** void door_status_refresh(void)
 567:Src/user_gpio.c **** {
 1542              		.loc 1 567 1 view -0
 1543              		.cfi_startproc
 1544              		@ args = 0, pretend = 0, frame = 72
 1545              		@ frame_needed = 0, uses_anonymous_args = 0
 1546 0000 2DE9F04F 		push	{r4, r5, r6, r7, r8, r9, r10, fp, lr}
 1547              	.LCFI5:
 1548              		.cfi_def_cfa_offset 36
ARM GAS  C:\Users\123\AppData\Local\Temp\ccWgqIzz.s 			page 43


 1549              		.cfi_offset 4, -36
 1550              		.cfi_offset 5, -32
 1551              		.cfi_offset 6, -28
 1552              		.cfi_offset 7, -24
 1553              		.cfi_offset 8, -20
 1554              		.cfi_offset 9, -16
 1555              		.cfi_offset 10, -12
 1556              		.cfi_offset 11, -8
 1557              		.cfi_offset 14, -4
 1558 0004 93B0     		sub	sp, sp, #76
 1559              	.LCFI6:
 1560              		.cfi_def_cfa_offset 112
 568:Src/user_gpio.c ****     uint8_t door_stat[MAX_DOOR_NUM] = {I_ZERO};
 1561              		.loc 1 568 5 view .LVU405
 569:Src/user_gpio.c ****     /*读取所有物品状态，先开电源，然后轮流使能sn74读取物品状态*/
 570:Src/user_gpio.c ****     POWER_5V_EN;    /*使能5V电源*/
 1562              		.loc 1 570 5 view .LVU406
 1563 0006 C54C     		ldr	r4, .L136
 1564 0008 0122     		movs	r2, #1
 1565 000a 4FF40071 		mov	r1, #512
 1566 000e 2046     		mov	r0, r4
 1567 0010 FFF7FEFF 		bl	HAL_GPIO_WritePin
 1568              	.LVL212:
 571:Src/user_gpio.c ****     GOODS_POWER_3V3_EN;    /*使能3.3V电源*/
 1569              		.loc 1 571 5 view .LVU407
 1570 0014 C24D     		ldr	r5, .L136+4
 1571 0016 0022     		movs	r2, #0
 1572 0018 0121     		movs	r1, #1
 1573 001a 2846     		mov	r0, r5
 1574 001c FFF7FEFF 		bl	HAL_GPIO_WritePin
 1575              	.LVL213:
 572:Src/user_gpio.c ****     SN74_A_EN;  /*enable 74LVC4245*/
 1576              		.loc 1 572 5 view .LVU408
 1577 0020 0022     		movs	r2, #0
 1578 0022 4FF48061 		mov	r1, #1024
 1579 0026 2846     		mov	r0, r5
 1580 0028 FFF7FEFF 		bl	HAL_GPIO_WritePin
 1581              	.LVL214:
 573:Src/user_gpio.c ****     HAL_Delay(50);/*50ms*/
 1582              		.loc 1 573 5 view .LVU409
 1583 002c 3220     		movs	r0, #50
 1584 002e FFF7FEFF 		bl	HAL_Delay
 1585              	.LVL215:
 574:Src/user_gpio.c ****     /*读1-4路格口门磁状态*/
 575:Src/user_gpio.c ****     door_stat[V_ZERO] = !read_sn74lvc_statua(V_ZERO, READ_DOORS_STATUS);
 1586              		.loc 1 575 5 view .LVU410
 1587              		.loc 1 575 26 is_stmt 0 view .LVU411
 1588 0032 0121     		movs	r1, #1
 1589 0034 0020     		movs	r0, #0
 1590 0036 FFF7FEFF 		bl	read_sn74lvc_statua
 1591              	.LVL216:
 1592              		.loc 1 575 25 view .LVU412
 1593 003a B0FA80F3 		clz	r3, r0
 1594 003e 5B09     		lsrs	r3, r3, #5
 1595 0040 0093     		str	r3, [sp]
 576:Src/user_gpio.c ****     door_stat[V_ONE] = !read_sn74lvc_statua(V_ONE, READ_DOORS_STATUS);
 1596              		.loc 1 576 5 is_stmt 1 view .LVU413
ARM GAS  C:\Users\123\AppData\Local\Temp\ccWgqIzz.s 			page 44


 1597              		.loc 1 576 25 is_stmt 0 view .LVU414
 1598 0042 0121     		movs	r1, #1
 1599 0044 0846     		mov	r0, r1
 1600 0046 FFF7FEFF 		bl	read_sn74lvc_statua
 1601              	.LVL217:
 1602              		.loc 1 576 24 view .LVU415
 1603 004a B0FA80FB 		clz	fp, r0
 1604 004e 4FEA5B1B 		lsr	fp, fp, #5
 577:Src/user_gpio.c ****     door_stat[V_TWO] = !read_sn74lvc_statua(V_TWO, READ_DOORS_STATUS);
 1605              		.loc 1 577 5 is_stmt 1 view .LVU416
 1606              		.loc 1 577 25 is_stmt 0 view .LVU417
 1607 0052 0121     		movs	r1, #1
 1608 0054 0220     		movs	r0, #2
 1609 0056 FFF7FEFF 		bl	read_sn74lvc_statua
 1610              	.LVL218:
 1611              		.loc 1 577 24 view .LVU418
 1612 005a B0FA80F2 		clz	r2, r0
 1613 005e 5209     		lsrs	r2, r2, #5
 1614 0060 0192     		str	r2, [sp, #4]
 578:Src/user_gpio.c ****     door_stat[V_THREE] = !read_sn74lvc_statua(V_THREE, READ_DOORS_STATUS);
 1615              		.loc 1 578 5 is_stmt 1 view .LVU419
 1616              		.loc 1 578 27 is_stmt 0 view .LVU420
 1617 0062 0121     		movs	r1, #1
 1618 0064 0320     		movs	r0, #3
 1619 0066 FFF7FEFF 		bl	read_sn74lvc_statua
 1620              	.LVL219:
 1621              		.loc 1 578 26 view .LVU421
 1622 006a B0FA80F1 		clz	r1, r0
 1623 006e 4909     		lsrs	r1, r1, #5
 1624 0070 0291     		str	r1, [sp, #8]
 579:Src/user_gpio.c ****     HAL_Delay(10);/*10ms*/
 1625              		.loc 1 579 5 is_stmt 1 view .LVU422
 1626 0072 0A20     		movs	r0, #10
 1627 0074 FFF7FEFF 		bl	HAL_Delay
 1628              	.LVL220:
 580:Src/user_gpio.c ****     SN74_A_DIS;  /*disable 74LVC4245*/
 1629              		.loc 1 580 5 view .LVU423
 1630 0078 0122     		movs	r2, #1
 1631 007a 4FF48061 		mov	r1, #1024
 1632 007e 2846     		mov	r0, r5
 1633 0080 FFF7FEFF 		bl	HAL_GPIO_WritePin
 1634              	.LVL221:
 581:Src/user_gpio.c ****     SN74_B_EN;  /*enable 74LVC4245*/
 1635              		.loc 1 581 5 view .LVU424
 1636 0084 0022     		movs	r2, #0
 1637 0086 4FF40061 		mov	r1, #2048
 1638 008a 2846     		mov	r0, r5
 1639 008c FFF7FEFF 		bl	HAL_GPIO_WritePin
 1640              	.LVL222:
 582:Src/user_gpio.c ****     HAL_Delay(50);/*50ms*/
 1641              		.loc 1 582 5 view .LVU425
 1642 0090 3220     		movs	r0, #50
 1643 0092 FFF7FEFF 		bl	HAL_Delay
 1644              	.LVL223:
 583:Src/user_gpio.c ****     /*读5-8路格口门磁状态*/
 584:Src/user_gpio.c ****     door_stat[V_ZERO+V_FOUR] = !read_sn74lvc_statua(V_ZERO, READ_DOORS_STATUS);
 1645              		.loc 1 584 5 view .LVU426
ARM GAS  C:\Users\123\AppData\Local\Temp\ccWgqIzz.s 			page 45


 1646              		.loc 1 584 33 is_stmt 0 view .LVU427
 1647 0096 0121     		movs	r1, #1
 1648 0098 0020     		movs	r0, #0
 1649 009a FFF7FEFF 		bl	read_sn74lvc_statua
 1650              	.LVL224:
 1651              		.loc 1 584 32 view .LVU428
 1652 009e B0FA80F0 		clz	r0, r0
 1653 00a2 4009     		lsrs	r0, r0, #5
 1654 00a4 0390     		str	r0, [sp, #12]
 585:Src/user_gpio.c ****     door_stat[V_ONE+V_FOUR] = !read_sn74lvc_statua(V_ONE, READ_DOORS_STATUS);
 1655              		.loc 1 585 5 is_stmt 1 view .LVU429
 1656              		.loc 1 585 32 is_stmt 0 view .LVU430
 1657 00a6 0121     		movs	r1, #1
 1658 00a8 0846     		mov	r0, r1
 1659 00aa FFF7FEFF 		bl	read_sn74lvc_statua
 1660              	.LVL225:
 1661              		.loc 1 585 31 view .LVU431
 1662 00ae B0FA80F6 		clz	r6, r0
 1663 00b2 7609     		lsrs	r6, r6, #5
 1664 00b4 0496     		str	r6, [sp, #16]
 586:Src/user_gpio.c ****     door_stat[V_TWO+V_FOUR] = !read_sn74lvc_statua(V_TWO, READ_DOORS_STATUS);
 1665              		.loc 1 586 5 is_stmt 1 view .LVU432
 1666              		.loc 1 586 32 is_stmt 0 view .LVU433
 1667 00b6 0121     		movs	r1, #1
 1668 00b8 0220     		movs	r0, #2
 1669 00ba FFF7FEFF 		bl	read_sn74lvc_statua
 1670              	.LVL226:
 1671              		.loc 1 586 31 view .LVU434
 1672 00be B0FA80F7 		clz	r7, r0
 1673 00c2 7F09     		lsrs	r7, r7, #5
 1674 00c4 0597     		str	r7, [sp, #20]
 587:Src/user_gpio.c ****     door_stat[V_THREE+V_FOUR] = !read_sn74lvc_statua(V_THREE, READ_DOORS_STATUS);
 1675              		.loc 1 587 5 is_stmt 1 view .LVU435
 1676              		.loc 1 587 34 is_stmt 0 view .LVU436
 1677 00c6 0121     		movs	r1, #1
 1678 00c8 0320     		movs	r0, #3
 1679 00ca FFF7FEFF 		bl	read_sn74lvc_statua
 1680              	.LVL227:
 1681              		.loc 1 587 33 view .LVU437
 1682 00ce B0FA80F0 		clz	r0, r0
 1683 00d2 4009     		lsrs	r0, r0, #5
 1684 00d4 0690     		str	r0, [sp, #24]
 588:Src/user_gpio.c ****     HAL_Delay(10);/*10ms*/
 1685              		.loc 1 588 5 is_stmt 1 view .LVU438
 1686 00d6 0A20     		movs	r0, #10
 1687 00d8 FFF7FEFF 		bl	HAL_Delay
 1688              	.LVL228:
 589:Src/user_gpio.c ****     SN74_B_DIS;  /*disable 74LVC4245*/
 1689              		.loc 1 589 5 view .LVU439
 1690 00dc 0122     		movs	r2, #1
 1691 00de 4FF40061 		mov	r1, #2048
 1692 00e2 2846     		mov	r0, r5
 1693 00e4 FFF7FEFF 		bl	HAL_GPIO_WritePin
 1694              	.LVL229:
 590:Src/user_gpio.c ****     SN74_C_EN;  /*enable 74LVC4245*/
 1695              		.loc 1 590 5 view .LVU440
 1696 00e8 0022     		movs	r2, #0
ARM GAS  C:\Users\123\AppData\Local\Temp\ccWgqIzz.s 			page 46


 1697 00ea 4FF48051 		mov	r1, #4096
 1698 00ee 2046     		mov	r0, r4
 1699 00f0 FFF7FEFF 		bl	HAL_GPIO_WritePin
 1700              	.LVL230:
 591:Src/user_gpio.c ****     HAL_Delay(50);/*50ms*/
 1701              		.loc 1 591 5 view .LVU441
 1702 00f4 3220     		movs	r0, #50
 1703 00f6 FFF7FEFF 		bl	HAL_Delay
 1704              	.LVL231:
 592:Src/user_gpio.c ****     /*读9-12路格口门磁状态*/
 593:Src/user_gpio.c ****     door_stat[V_ZERO+V_EIGHT] = !read_sn74lvc_statua(V_ZERO, READ_DOORS_STATUS);
 1705              		.loc 1 593 5 view .LVU442
 1706              		.loc 1 593 34 is_stmt 0 view .LVU443
 1707 00fa 0121     		movs	r1, #1
 1708 00fc 0020     		movs	r0, #0
 1709 00fe FFF7FEFF 		bl	read_sn74lvc_statua
 1710              	.LVL232:
 1711              		.loc 1 593 33 view .LVU444
 1712 0102 B0FA80F6 		clz	r6, r0
 1713 0106 7609     		lsrs	r6, r6, #5
 1714 0108 0796     		str	r6, [sp, #28]
 594:Src/user_gpio.c ****     door_stat[V_ONE+V_EIGHT] = !read_sn74lvc_statua(V_ONE, READ_DOORS_STATUS);
 1715              		.loc 1 594 5 is_stmt 1 view .LVU445
 1716              		.loc 1 594 33 is_stmt 0 view .LVU446
 1717 010a 0121     		movs	r1, #1
 1718 010c 0846     		mov	r0, r1
 1719 010e FFF7FEFF 		bl	read_sn74lvc_statua
 1720              	.LVL233:
 1721              		.loc 1 594 32 view .LVU447
 1722 0112 B0FA80F7 		clz	r7, r0
 1723 0116 7F09     		lsrs	r7, r7, #5
 1724 0118 0897     		str	r7, [sp, #32]
 595:Src/user_gpio.c ****     door_stat[V_TWO+V_EIGHT] = !read_sn74lvc_statua(V_TWO, READ_DOORS_STATUS);
 1725              		.loc 1 595 5 is_stmt 1 view .LVU448
 1726              		.loc 1 595 33 is_stmt 0 view .LVU449
 1727 011a 0121     		movs	r1, #1
 1728 011c 0220     		movs	r0, #2
 1729 011e FFF7FEFF 		bl	read_sn74lvc_statua
 1730              	.LVL234:
 1731              		.loc 1 595 32 view .LVU450
 1732 0122 B0FA80FC 		clz	ip, r0
 1733 0126 6046     		mov	r0, ip
 1734 0128 4009     		lsrs	r0, r0, #5
 1735 012a 0990     		str	r0, [sp, #36]
 596:Src/user_gpio.c ****     door_stat[V_THREE+V_EIGHT] = !read_sn74lvc_statua(V_THREE, READ_DOORS_STATUS);
 1736              		.loc 1 596 5 is_stmt 1 view .LVU451
 1737              		.loc 1 596 35 is_stmt 0 view .LVU452
 1738 012c 0121     		movs	r1, #1
 1739 012e 0320     		movs	r0, #3
 1740 0130 FFF7FEFF 		bl	read_sn74lvc_statua
 1741              	.LVL235:
 1742              		.loc 1 596 34 view .LVU453
 1743 0134 B0FA80FC 		clz	ip, r0
 1744 0138 6646     		mov	r6, ip
 1745 013a 7609     		lsrs	r6, r6, #5
 1746 013c 0A96     		str	r6, [sp, #40]
 597:Src/user_gpio.c ****     HAL_Delay(10);/*10ms*/
ARM GAS  C:\Users\123\AppData\Local\Temp\ccWgqIzz.s 			page 47


 1747              		.loc 1 597 5 is_stmt 1 view .LVU454
 1748 013e 0A20     		movs	r0, #10
 1749 0140 FFF7FEFF 		bl	HAL_Delay
 1750              	.LVL236:
 598:Src/user_gpio.c ****     SN74_C_DIS;  /*disable 74LVC4245*/
 1751              		.loc 1 598 5 view .LVU455
 1752 0144 0122     		movs	r2, #1
 1753 0146 4FF48051 		mov	r1, #4096
 1754 014a 2046     		mov	r0, r4
 1755 014c FFF7FEFF 		bl	HAL_GPIO_WritePin
 1756              	.LVL237:
 599:Src/user_gpio.c ****     SN74_D_EN;  /*enable 74LVC4245*/
 1757              		.loc 1 599 5 view .LVU456
 1758 0150 0022     		movs	r2, #0
 1759 0152 4021     		movs	r1, #64
 1760 0154 2046     		mov	r0, r4
 1761 0156 FFF7FEFF 		bl	HAL_GPIO_WritePin
 1762              	.LVL238:
 600:Src/user_gpio.c ****     HAL_Delay(50);/*50ms*/
 1763              		.loc 1 600 5 view .LVU457
 1764 015a 3220     		movs	r0, #50
 1765 015c FFF7FEFF 		bl	HAL_Delay
 1766              	.LVL239:
 601:Src/user_gpio.c ****     /*读13-16路格口门磁状态*/
 602:Src/user_gpio.c ****     door_stat[V_ZERO+V_TWELVE] = !read_sn74lvc_statua(V_ZERO, READ_DOORS_STATUS);
 1767              		.loc 1 602 5 view .LVU458
 1768              		.loc 1 602 35 is_stmt 0 view .LVU459
 1769 0160 0121     		movs	r1, #1
 1770 0162 0020     		movs	r0, #0
 1771 0164 FFF7FEFF 		bl	read_sn74lvc_statua
 1772              	.LVL240:
 1773              		.loc 1 602 34 view .LVU460
 1774 0168 B0FA80FA 		clz	r10, r0
 1775 016c 4FEA5A1A 		lsr	r10, r10, #5
 603:Src/user_gpio.c ****     door_stat[V_ONE+V_TWELVE] = !read_sn74lvc_statua(V_ONE, READ_DOORS_STATUS);
 1776              		.loc 1 603 5 is_stmt 1 view .LVU461
 1777              		.loc 1 603 34 is_stmt 0 view .LVU462
 1778 0170 0121     		movs	r1, #1
 1779 0172 0846     		mov	r0, r1
 1780 0174 FFF7FEFF 		bl	read_sn74lvc_statua
 1781              	.LVL241:
 1782              		.loc 1 603 33 view .LVU463
 1783 0178 B0FA80FC 		clz	ip, r0
 1784 017c 6746     		mov	r7, ip
 1785 017e 7F09     		lsrs	r7, r7, #5
 1786 0180 0B97     		str	r7, [sp, #44]
 604:Src/user_gpio.c ****     door_stat[V_TWO+V_TWELVE] = !read_sn74lvc_statua(V_TWO, READ_DOORS_STATUS);
 1787              		.loc 1 604 5 is_stmt 1 view .LVU464
 1788              		.loc 1 604 34 is_stmt 0 view .LVU465
 1789 0182 0121     		movs	r1, #1
 1790 0184 0220     		movs	r0, #2
 1791 0186 FFF7FEFF 		bl	read_sn74lvc_statua
 1792              	.LVL242:
 1793              		.loc 1 604 33 view .LVU466
 1794 018a B0FA80FC 		clz	ip, r0
 1795 018e 6146     		mov	r1, ip
 1796 0190 4909     		lsrs	r1, r1, #5
ARM GAS  C:\Users\123\AppData\Local\Temp\ccWgqIzz.s 			page 48


 1797 0192 0C91     		str	r1, [sp, #48]
 605:Src/user_gpio.c ****     door_stat[V_THREE+V_TWELVE] = !read_sn74lvc_statua(V_THREE, READ_DOORS_STATUS);
 1798              		.loc 1 605 5 is_stmt 1 view .LVU467
 1799              		.loc 1 605 36 is_stmt 0 view .LVU468
 1800 0194 0121     		movs	r1, #1
 1801 0196 0320     		movs	r0, #3
 1802 0198 FFF7FEFF 		bl	read_sn74lvc_statua
 1803              	.LVL243:
 1804              		.loc 1 605 35 view .LVU469
 1805 019c B0FA80FC 		clz	ip, r0
 1806 01a0 6046     		mov	r0, ip
 1807 01a2 4009     		lsrs	r0, r0, #5
 1808 01a4 0D90     		str	r0, [sp, #52]
 606:Src/user_gpio.c ****     HAL_Delay(10);/*10ms*/
 1809              		.loc 1 606 5 is_stmt 1 view .LVU470
 1810 01a6 0A20     		movs	r0, #10
 1811 01a8 FFF7FEFF 		bl	HAL_Delay
 1812              	.LVL244:
 607:Src/user_gpio.c ****     SN74_D_DIS;  /*disable 74LVC4245*/
 1813              		.loc 1 607 5 view .LVU471
 1814 01ac 0122     		movs	r2, #1
 1815 01ae 4021     		movs	r1, #64
 1816 01b0 2046     		mov	r0, r4
 1817 01b2 FFF7FEFF 		bl	HAL_GPIO_WritePin
 1818              	.LVL245:
 608:Src/user_gpio.c ****     SN74_E_EN;  /*enable 74LVC4245*/
 1819              		.loc 1 608 5 view .LVU472
 1820 01b6 0022     		movs	r2, #0
 1821 01b8 8021     		movs	r1, #128
 1822 01ba 2046     		mov	r0, r4
 1823 01bc FFF7FEFF 		bl	HAL_GPIO_WritePin
 1824              	.LVL246:
 609:Src/user_gpio.c ****     HAL_Delay(50);/*50ms*/
 1825              		.loc 1 609 5 view .LVU473
 1826 01c0 3220     		movs	r0, #50
 1827 01c2 FFF7FEFF 		bl	HAL_Delay
 1828              	.LVL247:
 610:Src/user_gpio.c ****     /*读17-20路格口门磁状态*/
 611:Src/user_gpio.c ****     door_stat[V_ZERO+V_SIXTEEN] = !read_sn74lvc_statua(V_ZERO, READ_DOORS_STATUS);
 1829              		.loc 1 611 5 view .LVU474
 1830              		.loc 1 611 36 is_stmt 0 view .LVU475
 1831 01c6 0121     		movs	r1, #1
 1832 01c8 0020     		movs	r0, #0
 1833 01ca FFF7FEFF 		bl	read_sn74lvc_statua
 1834              	.LVL248:
 1835              		.loc 1 611 35 view .LVU476
 1836 01ce B0FA80FC 		clz	ip, r0
 1837 01d2 6646     		mov	r6, ip
 1838 01d4 7609     		lsrs	r6, r6, #5
 1839 01d6 0E96     		str	r6, [sp, #56]
 612:Src/user_gpio.c ****     door_stat[V_ONE+V_SIXTEEN] = !read_sn74lvc_statua(V_ONE, READ_DOORS_STATUS);
 1840              		.loc 1 612 5 is_stmt 1 view .LVU477
 1841              		.loc 1 612 35 is_stmt 0 view .LVU478
 1842 01d8 0121     		movs	r1, #1
 1843 01da 0846     		mov	r0, r1
 1844 01dc FFF7FEFF 		bl	read_sn74lvc_statua
 1845              	.LVL249:
ARM GAS  C:\Users\123\AppData\Local\Temp\ccWgqIzz.s 			page 49


 1846              		.loc 1 612 34 view .LVU479
 1847 01e0 B0FA80FC 		clz	ip, r0
 1848 01e4 6746     		mov	r7, ip
 1849 01e6 7F09     		lsrs	r7, r7, #5
 1850 01e8 0F97     		str	r7, [sp, #60]
 613:Src/user_gpio.c ****     door_stat[V_TWO+V_SIXTEEN] = !read_sn74lvc_statua(V_TWO, READ_DOORS_STATUS);
 1851              		.loc 1 613 5 is_stmt 1 view .LVU480
 1852              		.loc 1 613 35 is_stmt 0 view .LVU481
 1853 01ea 0121     		movs	r1, #1
 1854 01ec 0220     		movs	r0, #2
 1855 01ee FFF7FEFF 		bl	read_sn74lvc_statua
 1856              	.LVL250:
 1857              		.loc 1 613 34 view .LVU482
 1858 01f2 B0FA80FC 		clz	ip, r0
 1859 01f6 6046     		mov	r0, ip
 1860 01f8 4009     		lsrs	r0, r0, #5
 1861 01fa 1090     		str	r0, [sp, #64]
 614:Src/user_gpio.c ****     door_stat[V_THREE+V_SIXTEEN] = !read_sn74lvc_statua(V_THREE, READ_DOORS_STATUS);
 1862              		.loc 1 614 5 is_stmt 1 view .LVU483
 1863              		.loc 1 614 37 is_stmt 0 view .LVU484
 1864 01fc 0121     		movs	r1, #1
 1865 01fe 0320     		movs	r0, #3
 1866 0200 FFF7FEFF 		bl	read_sn74lvc_statua
 1867              	.LVL251:
 1868              		.loc 1 614 36 view .LVU485
 1869 0204 B0FA80FC 		clz	ip, r0
 1870 0208 6646     		mov	r6, ip
 1871 020a 7609     		lsrs	r6, r6, #5
 1872 020c 1196     		str	r6, [sp, #68]
 615:Src/user_gpio.c ****     HAL_Delay(10);/*10ms*/
 1873              		.loc 1 615 5 is_stmt 1 view .LVU486
 1874 020e 0A20     		movs	r0, #10
 1875 0210 FFF7FEFF 		bl	HAL_Delay
 1876              	.LVL252:
 616:Src/user_gpio.c ****     SN74_E_DIS;  /*disable 74LVC4245*/
 1877              		.loc 1 616 5 view .LVU487
 1878 0214 0122     		movs	r2, #1
 1879 0216 8021     		movs	r1, #128
 1880 0218 2046     		mov	r0, r4
 1881 021a FFF7FEFF 		bl	HAL_GPIO_WritePin
 1882              	.LVL253:
 617:Src/user_gpio.c ****     SN74_F_EN;  /*enable 74LVC4245*/
 1883              		.loc 1 617 5 view .LVU488
 1884 021e 0022     		movs	r2, #0
 1885 0220 4FF48071 		mov	r1, #256
 1886 0224 2046     		mov	r0, r4
 1887 0226 FFF7FEFF 		bl	HAL_GPIO_WritePin
 1888              	.LVL254:
 618:Src/user_gpio.c ****     HAL_Delay(50);/*50ms*/
 1889              		.loc 1 618 5 view .LVU489
 1890 022a 3220     		movs	r0, #50
 1891 022c FFF7FEFF 		bl	HAL_Delay
 1892              	.LVL255:
 619:Src/user_gpio.c ****     /*读21-24路格口门磁状态*/
 620:Src/user_gpio.c ****     door_stat[V_ZERO+V_TWENTY] = !read_sn74lvc_statua(V_ZERO, READ_DOORS_STATUS);
 1893              		.loc 1 620 5 view .LVU490
 1894              		.loc 1 620 35 is_stmt 0 view .LVU491
ARM GAS  C:\Users\123\AppData\Local\Temp\ccWgqIzz.s 			page 50


 1895 0230 0121     		movs	r1, #1
 1896 0232 0020     		movs	r0, #0
 1897 0234 FFF7FEFF 		bl	read_sn74lvc_statua
 1898              	.LVL256:
 1899              		.loc 1 620 34 view .LVU492
 1900 0238 B0FA80F9 		clz	r9, r0
 1901 023c 4FEA5919 		lsr	r9, r9, #5
 621:Src/user_gpio.c ****     door_stat[V_ONE+V_TWENTY] = !read_sn74lvc_statua(V_ONE, READ_DOORS_STATUS);
 1902              		.loc 1 621 5 is_stmt 1 view .LVU493
 1903              		.loc 1 621 34 is_stmt 0 view .LVU494
 1904 0240 0121     		movs	r1, #1
 1905 0242 0846     		mov	r0, r1
 1906 0244 FFF7FEFF 		bl	read_sn74lvc_statua
 1907              	.LVL257:
 1908              		.loc 1 621 33 view .LVU495
 1909 0248 B0FA80F8 		clz	r8, r0
 1910 024c 4FEA5818 		lsr	r8, r8, #5
 622:Src/user_gpio.c ****     door_stat[V_TWO+V_TWENTY] = !read_sn74lvc_statua(V_TWO, READ_DOORS_STATUS);
 1911              		.loc 1 622 5 is_stmt 1 view .LVU496
 1912              		.loc 1 622 34 is_stmt 0 view .LVU497
 1913 0250 0121     		movs	r1, #1
 1914 0252 0220     		movs	r0, #2
 1915 0254 FFF7FEFF 		bl	read_sn74lvc_statua
 1916              	.LVL258:
 1917              		.loc 1 622 33 view .LVU498
 1918 0258 B0FA80F7 		clz	r7, r0
 1919 025c 7F09     		lsrs	r7, r7, #5
 623:Src/user_gpio.c ****     door_stat[V_THREE+V_TWENTY] = !read_sn74lvc_statua(V_THREE, READ_DOORS_STATUS);
 1920              		.loc 1 623 5 is_stmt 1 view .LVU499
 1921              		.loc 1 623 36 is_stmt 0 view .LVU500
 1922 025e 0121     		movs	r1, #1
 1923 0260 0320     		movs	r0, #3
 1924 0262 FFF7FEFF 		bl	read_sn74lvc_statua
 1925              	.LVL259:
 1926              		.loc 1 623 35 view .LVU501
 1927 0266 B0FA80F6 		clz	r6, r0
 1928 026a 7609     		lsrs	r6, r6, #5
 624:Src/user_gpio.c ****     HAL_Delay(10);/*10ms*/
 1929              		.loc 1 624 5 is_stmt 1 view .LVU502
 1930 026c 0A20     		movs	r0, #10
 1931 026e FFF7FEFF 		bl	HAL_Delay
 1932              	.LVL260:
 625:Src/user_gpio.c ****     SN74_F_DIS;  /*disable 74LVC4245*/
 1933              		.loc 1 625 5 view .LVU503
 1934 0272 0122     		movs	r2, #1
 1935 0274 4FF48071 		mov	r1, #256
 1936 0278 2046     		mov	r0, r4
 1937 027a FFF7FEFF 		bl	HAL_GPIO_WritePin
 1938              	.LVL261:
 626:Src/user_gpio.c ****     POWER_5V_DIS;    /*关5V电源*/
 1939              		.loc 1 626 5 view .LVU504
 1940 027e 0022     		movs	r2, #0
 1941 0280 4FF40071 		mov	r1, #512
 1942 0284 2046     		mov	r0, r4
 1943 0286 FFF7FEFF 		bl	HAL_GPIO_WritePin
 1944              	.LVL262:
 627:Src/user_gpio.c ****     GOODS_POWER_3V3_DIS;    /*关3.3v电源*/
ARM GAS  C:\Users\123\AppData\Local\Temp\ccWgqIzz.s 			page 51


 1945              		.loc 1 627 5 view .LVU505
 1946 028a 0122     		movs	r2, #1
 1947 028c 1146     		mov	r1, r2
 1948 028e 2846     		mov	r0, r5
 1949 0290 FFF7FEFF 		bl	HAL_GPIO_WritePin
 1950              	.LVL263:
 628:Src/user_gpio.c ****     /*将24路格口状态转换成一个bit表示一个格口状态*/
 629:Src/user_gpio.c ****     g_door_stat[V_ZERO] = door_stat[V_ZERO]|(door_stat[V_ONE]<<V_ONE)|(door_stat[V_TWO]<<V_TWO)|(do
 1951              		.loc 1 629 5 view .LVU506
 1952              		.loc 1 629 44 is_stmt 0 view .LVU507
 1953 0294 009B     		ldr	r3, [sp]
 1954 0296 43EA4B00 		orr	r0, r3, fp, lsl #1
 1955              		.loc 1 629 70 view .LVU508
 1956 029a 019A     		ldr	r2, [sp, #4]
 1957 029c 40EA8200 		orr	r0, r0, r2, lsl #2
 1958              		.loc 1 629 96 view .LVU509
 1959 02a0 0299     		ldr	r1, [sp, #8]
 1960 02a2 40EAC100 		orr	r0, r0, r1, lsl #3
 1961              		.loc 1 629 126 view .LVU510
 1962 02a6 039B     		ldr	r3, [sp, #12]
 1963 02a8 40EA0310 		orr	r0, r0, r3, lsl #4
 630:Src/user_gpio.c ****                 (door_stat[V_FOUR]<<V_FOUR)|(door_stat[V_FIVE]<<V_FIVE)|(door_stat[V_SIX]<<V_SIX)|(
 1964              		.loc 1 630 44 view .LVU511
 1965 02ac 049B     		ldr	r3, [sp, #16]
 1966 02ae 40EA4310 		orr	r0, r0, r3, lsl #5
 1967              		.loc 1 630 72 view .LVU512
 1968 02b2 059B     		ldr	r3, [sp, #20]
 1969 02b4 40EA8310 		orr	r0, r0, r3, lsl #6
 1970              		.loc 1 630 98 view .LVU513
 1971 02b8 069B     		ldr	r3, [sp, #24]
 1972 02ba 40EAC310 		orr	r0, r0, r3, lsl #7
 629:Src/user_gpio.c ****                 (door_stat[V_FOUR]<<V_FOUR)|(door_stat[V_FIVE]<<V_FIVE)|(door_stat[V_SIX]<<V_SIX)|(
 1973              		.loc 1 629 25 view .LVU514
 1974 02be 194B     		ldr	r3, .L136+8
 1975 02c0 1870     		strb	r0, [r3]
 631:Src/user_gpio.c ****     g_door_stat[V_ONE] = door_stat[V_ZERO+V_EIGHT]|(door_stat[V_ONE+V_EIGHT]<<V_ONE)|(door_stat[V_T
 1976              		.loc 1 631 5 is_stmt 1 view .LVU515
 1977              		.loc 1 631 51 is_stmt 0 view .LVU516
 1978 02c2 079A     		ldr	r2, [sp, #28]
 1979 02c4 0899     		ldr	r1, [sp, #32]
 1980 02c6 42EA4100 		orr	r0, r2, r1, lsl #1
 1981              		.loc 1 631 85 view .LVU517
 1982 02ca 099A     		ldr	r2, [sp, #36]
 1983 02cc 40EA8200 		orr	r0, r0, r2, lsl #2
 1984              		.loc 1 631 119 view .LVU518
 1985 02d0 0A9A     		ldr	r2, [sp, #40]
 1986 02d2 40EAC200 		orr	r0, r0, r2, lsl #3
 1987              		.loc 1 631 157 view .LVU519
 1988 02d6 40EA0A10 		orr	r0, r0, r10, lsl #4
 632:Src/user_gpio.c ****                 (door_stat[V_FOUR+V_EIGHT]<<V_FOUR)|(door_stat[V_FIVE+V_EIGHT]<<V_FIVE)|(door_stat[
 1989              		.loc 1 632 52 view .LVU520
 1990 02da 0B9A     		ldr	r2, [sp, #44]
 1991 02dc 40EA4210 		orr	r0, r0, r2, lsl #5
 1992              		.loc 1 632 88 view .LVU521
 1993 02e0 0C99     		ldr	r1, [sp, #48]
 1994 02e2 40EA8110 		orr	r0, r0, r1, lsl #6
 1995              		.loc 1 632 122 view .LVU522
ARM GAS  C:\Users\123\AppData\Local\Temp\ccWgqIzz.s 			page 52


 1996 02e6 0D9A     		ldr	r2, [sp, #52]
 1997 02e8 40EAC210 		orr	r0, r0, r2, lsl #7
 631:Src/user_gpio.c ****     g_door_stat[V_ONE] = door_stat[V_ZERO+V_EIGHT]|(door_stat[V_ONE+V_EIGHT]<<V_ONE)|(door_stat[V_T
 1998              		.loc 1 631 24 view .LVU523
 1999 02ec 5870     		strb	r0, [r3, #1]
 633:Src/user_gpio.c ****     g_door_stat[V_TWO] = door_stat[V_ZERO+V_SIXTEEN]|(door_stat[V_ONE+V_SIXTEEN]<<V_ONE)|(door_stat
 2000              		.loc 1 633 5 is_stmt 1 view .LVU524
 2001              		.loc 1 633 53 is_stmt 0 view .LVU525
 2002 02ee 0E9A     		ldr	r2, [sp, #56]
 2003 02f0 0F99     		ldr	r1, [sp, #60]
 2004 02f2 42EA4100 		orr	r0, r2, r1, lsl #1
 2005              		.loc 1 633 89 view .LVU526
 2006 02f6 109A     		ldr	r2, [sp, #64]
 2007 02f8 40EA8200 		orr	r0, r0, r2, lsl #2
 2008              		.loc 1 633 125 view .LVU527
 2009 02fc 119A     		ldr	r2, [sp, #68]
 2010 02fe 40EAC200 		orr	r0, r0, r2, lsl #3
 2011              		.loc 1 633 165 view .LVU528
 2012 0302 40EA0919 		orr	r9, r0, r9, lsl #4
 634:Src/user_gpio.c ****                 (door_stat[V_FOUR+V_SIXTEEN]<<V_FOUR)|(door_stat[V_FIVE+V_SIXTEEN]<<V_FIVE)|(door_s
 2013              		.loc 1 634 54 view .LVU529
 2014 0306 49EA4818 		orr	r8, r9, r8, lsl #5
 2015              		.loc 1 634 92 view .LVU530
 2016 030a 48EA8717 		orr	r7, r8, r7, lsl #6
 2017              		.loc 1 634 128 view .LVU531
 2018 030e 47EAC616 		orr	r6, r7, r6, lsl #7
 633:Src/user_gpio.c ****     g_door_stat[V_TWO] = door_stat[V_ZERO+V_SIXTEEN]|(door_stat[V_ONE+V_SIXTEEN]<<V_ONE)|(door_stat
 2019              		.loc 1 633 24 view .LVU532
 2020 0312 9E70     		strb	r6, [r3, #2]
 635:Src/user_gpio.c **** }
 2021              		.loc 1 635 1 view .LVU533
 2022 0314 13B0     		add	sp, sp, #76
 2023              	.LCFI7:
 2024              		.cfi_def_cfa_offset 36
 2025              		@ sp needed
 2026 0316 BDE8F08F 		pop	{r4, r5, r6, r7, r8, r9, r10, fp, pc}
 2027              	.L137:
 2028 031a 00BF     		.align	2
 2029              	.L136:
 2030 031c 00040048 		.word	1207960576
 2031 0320 00100048 		.word	1207963648
 2032 0324 00000000 		.word	.LANCHOR6
 2033              		.cfi_endproc
 2034              	.LFE321:
 2036              		.section	.rodata.get_one_good_state_fun.str1.4,"aMS",%progbits,1
 2037              		.align	2
 2038              	.LC13:
 2039 0000 67657420 		.ascii	"get one goods status err!\000"
 2039      6F6E6520 
 2039      676F6F64 
 2039      73207374 
 2039      61747573 
 2040              		.section	.text.get_one_good_state_fun,"ax",%progbits
 2041              		.align	1
 2042              		.global	get_one_good_state_fun
 2043              		.syntax unified
 2044              		.thumb
ARM GAS  C:\Users\123\AppData\Local\Temp\ccWgqIzz.s 			page 53


 2045              		.thumb_func
 2046              		.fpu fpv4-sp-d16
 2048              	get_one_good_state_fun:
 2049              	.LVL264:
 2050              	.LFB322:
 636:Src/user_gpio.c **** 
 637:Src/user_gpio.c **** 
 638:Src/user_gpio.c **** /*********************************************************************
 639:Src/user_gpio.c ****  *	function name:  get_one_good_state_fun
 640:Src/user_gpio.c ****  *	describe: read one slot goods status
 641:Src/user_gpio.c ****  *	input:index：solt number:0-23
 642:Src/user_gpio.c ****  *	output:
 643:Src/user_gpio.c ****  *	return:null
 644:Src/user_gpio.c ****  *	revision histroy :   1.
 645:Src/user_gpio.c ****  *                      2.
 646:Src/user_gpio.c ****  **********************************************************************/
 647:Src/user_gpio.c **** void get_one_good_state_fun(uint8_t index)
 648:Src/user_gpio.c **** {
 2051              		.loc 1 648 1 is_stmt 1 view -0
 2052              		.cfi_startproc
 2053              		@ args = 0, pretend = 0, frame = 0
 2054              		@ frame_needed = 0, uses_anonymous_args = 0
 2055              		.loc 1 648 1 is_stmt 0 view .LVU535
 2056 0000 F8B5     		push	{r3, r4, r5, r6, r7, lr}
 2057              	.LCFI8:
 2058              		.cfi_def_cfa_offset 24
 2059              		.cfi_offset 3, -24
 2060              		.cfi_offset 4, -20
 2061              		.cfi_offset 5, -16
 2062              		.cfi_offset 6, -12
 2063              		.cfi_offset 7, -8
 2064              		.cfi_offset 14, -4
 2065 0002 0446     		mov	r4, r0
 649:Src/user_gpio.c ****     /*74HC控制B0、B5分别控制着4路红外板电源，红外状态读取步骤
 650:Src/user_gpio.c ****       1.使能红外电源；2.开启74HC电源也即开启红外板电源；
 651:Src/user_gpio.c ****         3.开启sn74电源；4.读取物品状态*/
 652:Src/user_gpio.c ****     INFRARED_POWER_EN;        /*使能红外电源*/
 2066              		.loc 1 652 5 is_stmt 1 view .LVU536
 2067 0004 0122     		movs	r2, #1
 2068 0006 1021     		movs	r1, #16
 2069 0008 B848     		ldr	r0, .L152
 2070              	.LVL265:
 2071              		.loc 1 652 5 is_stmt 0 view .LVU537
 2072 000a FFF7FEFF 		bl	HAL_GPIO_WritePin
 2073              	.LVL266:
 653:Src/user_gpio.c ****     CTRL_BUS_POWER_EN;    /*开启74HC电源*/
 2074              		.loc 1 653 5 is_stmt 1 view .LVU538
 2075 000e 0122     		movs	r2, #1
 2076 0010 4FF48041 		mov	r1, #16384
 2077 0014 B648     		ldr	r0, .L152+4
 2078 0016 FFF7FEFF 		bl	HAL_GPIO_WritePin
 2079              	.LVL267:
 654:Src/user_gpio.c ****     POWER_5V_EN;    /*开启sn74片子的5V电源*/
 2080              		.loc 1 654 5 view .LVU539
 2081 001a 0122     		movs	r2, #1
 2082 001c 4FF40071 		mov	r1, #512
 2083 0020 B448     		ldr	r0, .L152+8
ARM GAS  C:\Users\123\AppData\Local\Temp\ccWgqIzz.s 			page 54


 2084 0022 FFF7FEFF 		bl	HAL_GPIO_WritePin
 2085              	.LVL268:
 655:Src/user_gpio.c ****     GOODS_POWER_3V3_EN;    /*开启sn74片子的3.3V电源*/
 2086              		.loc 1 655 5 view .LVU540
 2087 0026 0022     		movs	r2, #0
 2088 0028 0121     		movs	r1, #1
 2089 002a B348     		ldr	r0, .L152+12
 2090 002c FFF7FEFF 		bl	HAL_GPIO_WritePin
 2091              	.LVL269:
 656:Src/user_gpio.c ****     if(index <= V_THREE)    /*0-3号格口就使能第一片sn74*/
 2092              		.loc 1 656 5 view .LVU541
 2093              		.loc 1 656 7 is_stmt 0 view .LVU542
 2094 0030 032C     		cmp	r4, #3
 2095 0032 41D9     		bls	.L147
 657:Src/user_gpio.c ****     {
 658:Src/user_gpio.c ****         CHIP_SELECT_01EN;    /*使能第一片74HC电源*/
 659:Src/user_gpio.c ****         HAL_Delay(5);
 660:Src/user_gpio.c ****         CTRL_BUS_AO_HIGH;    /*线A0控制着0-3路红外电源*/
 661:Src/user_gpio.c ****         SN74_A_EN;    /*使能sn745*/
 662:Src/user_gpio.c ****         HAL_Delay(60);
 663:Src/user_gpio.c ****         g_item_stat[index] = read_sn74lvc_statua(index, READ_GOODS_STATUS);    /*读取红外状态
 664:Src/user_gpio.c ****         SN74_A_DIS;    /*失能sn74*/
 665:Src/user_gpio.c ****         CTRL_BUS_AO_LOW;    /*关闭0-3路红外电源*/
 666:Src/user_gpio.c ****         CHIP_SELECT_01DIS;    /*失能第一片74hc*/
 667:Src/user_gpio.c ****     }
 668:Src/user_gpio.c ****     else if(index <= V_SEVEN)    /*4-7号格口就使能第二片sn74*/
 2096              		.loc 1 668 10 is_stmt 1 view .LVU543
 2097              		.loc 1 668 12 is_stmt 0 view .LVU544
 2098 0034 072C     		cmp	r4, #7
 2099 0036 40F28880 		bls	.L148
 669:Src/user_gpio.c ****     {
 670:Src/user_gpio.c ****         CHIP_SELECT_01EN;    /*使能第一片74HC电源*/
 671:Src/user_gpio.c ****         HAL_Delay(5);
 672:Src/user_gpio.c ****         CTRL_BUS_A5_HIGH;    /*线A5控制着4-7路红外电源*/
 673:Src/user_gpio.c ****         SN74_B_EN;    /*使能sn74*/
 674:Src/user_gpio.c ****         HAL_Delay(60); 
 675:Src/user_gpio.c ****         g_item_stat[index] = read_sn74lvc_statua(index-V_FOUR, READ_GOODS_STATUS);     /*读取红
 676:Src/user_gpio.c ****         SN74_B_DIS;    /*失能sn74*/
 677:Src/user_gpio.c ****         CTRL_BUS_A5_LOW;    /*关闭4-7路红外电源*/
 678:Src/user_gpio.c ****         CHIP_SELECT_01DIS;    /*失能第一片74hc*/
 679:Src/user_gpio.c ****     }
 680:Src/user_gpio.c ****     else if(index <= V_ELEVEN)    /*8-11号格口就使能第三片sn74*/
 2100              		.loc 1 680 10 is_stmt 1 view .LVU545
 2101              		.loc 1 680 12 is_stmt 0 view .LVU546
 2102 003a 0B2C     		cmp	r4, #11
 2103 003c 40F2BA80 		bls	.L149
 681:Src/user_gpio.c ****     {
 682:Src/user_gpio.c ****         CHIP_SELECT_02EN;    /*使能第二片74HC电源*/
 683:Src/user_gpio.c ****         HAL_Delay(5);
 684:Src/user_gpio.c ****         CTRL_BUS_A2_HIGH;    /*线A0控制着8-11路红外电源*/
 685:Src/user_gpio.c ****         SN74_C_EN;  /*使能sn74*/
 686:Src/user_gpio.c ****         HAL_Delay(60);
 687:Src/user_gpio.c ****         g_item_stat[index] = read_sn74lvc_statua(index-V_EIGHT, READ_GOODS_STATUS);    /*读取红
 688:Src/user_gpio.c ****         SN74_C_DIS;    /*失能sn74*/
 689:Src/user_gpio.c ****         CTRL_BUS_A2_LOW;    /*关闭8-11路红外电源*/
 690:Src/user_gpio.c ****         CHIP_SELECT_02DIS;    /*失能第二片74hc*/
 691:Src/user_gpio.c **** 
ARM GAS  C:\Users\123\AppData\Local\Temp\ccWgqIzz.s 			page 55


 692:Src/user_gpio.c ****     }
 693:Src/user_gpio.c ****     else if(index <= V_FIFTEEN)    /*12-15号格口就使能第四片sn74*/
 2104              		.loc 1 693 10 is_stmt 1 view .LVU547
 2105              		.loc 1 693 12 is_stmt 0 view .LVU548
 2106 0040 0F2C     		cmp	r4, #15
 2107 0042 40F2EC80 		bls	.L150
 694:Src/user_gpio.c ****     {
 695:Src/user_gpio.c ****         CHIP_SELECT_03EN;    /*使能第二片74HC电源*/
 696:Src/user_gpio.c ****         HAL_Delay(5);
 697:Src/user_gpio.c ****         CTRL_BUS_AO_HIGH;    /*线A5控制着12-15路红外电源*/
 698:Src/user_gpio.c ****         SN74_D_EN;  /*使能sn74*/
 699:Src/user_gpio.c ****         HAL_Delay(60);
 700:Src/user_gpio.c ****         g_item_stat[index] = read_sn74lvc_statua(index-V_TWELVE, READ_GOODS_STATUS);    /*读取红
 701:Src/user_gpio.c ****         SN74_D_DIS;    /*失能sn74*/
 702:Src/user_gpio.c ****         CTRL_BUS_AO_LOW;    /*关闭12-15路红外电源*/
 703:Src/user_gpio.c ****         CHIP_SELECT_03DIS;    /*失能第二片74hc*/
 704:Src/user_gpio.c ****     }
 705:Src/user_gpio.c ****     else if(index <= V_NINETEEN)     /*16-19号格口就使能第五片sn74*/
 2108              		.loc 1 705 10 is_stmt 1 view .LVU549
 2109              		.loc 1 705 12 is_stmt 0 view .LVU550
 2110 0046 132C     		cmp	r4, #19
 2111 0048 40F21A81 		bls	.L151
 706:Src/user_gpio.c ****     {
 707:Src/user_gpio.c ****         CHIP_SELECT_03EN;    /*使能第三片74HC电源*/
 708:Src/user_gpio.c ****         HAL_Delay(5);
 709:Src/user_gpio.c ****         CTRL_BUS_A5_HIGH;    /*线A0控制着16-19路红外电源*/
 710:Src/user_gpio.c ****         SN74_E_EN;  /*使能sn74*/
 711:Src/user_gpio.c ****         HAL_Delay(60);
 712:Src/user_gpio.c ****         g_item_stat[index] = read_sn74lvc_statua(index-V_SIXTEEN, READ_GOODS_STATUS);    /*读取
 713:Src/user_gpio.c ****         SN74_E_DIS;     /*失能sn74*/
 714:Src/user_gpio.c ****         CTRL_BUS_A5_LOW;    /*关闭16-19路红外电源*/
 715:Src/user_gpio.c ****         CHIP_SELECT_03DIS;    /*失能第三片74hc*/
 716:Src/user_gpio.c ****     }
 717:Src/user_gpio.c ****     else if(index <= V_TWENTY_THREE)    /*20-23号格口就使能第六片sn74*/
 2112              		.loc 1 717 10 is_stmt 1 view .LVU551
 2113              		.loc 1 717 12 is_stmt 0 view .LVU552
 2114 004c 172C     		cmp	r4, #23
 2115 004e 00F24881 		bhi	.L145
 718:Src/user_gpio.c ****     {
 719:Src/user_gpio.c ****         CHIP_SELECT_04EN;    /*使能第三片74HC电源*/
 2116              		.loc 1 719 9 is_stmt 1 view .LVU553
 2117 0052 A74D     		ldr	r5, .L152+4
 2118 0054 0022     		movs	r2, #0
 2119 0056 0221     		movs	r1, #2
 2120 0058 2846     		mov	r0, r5
 2121 005a FFF7FEFF 		bl	HAL_GPIO_WritePin
 2122              	.LVL270:
 720:Src/user_gpio.c ****         HAL_Delay(5);
 2123              		.loc 1 720 9 view .LVU554
 2124 005e 0520     		movs	r0, #5
 2125 0060 FFF7FEFF 		bl	HAL_Delay
 2126              	.LVL271:
 721:Src/user_gpio.c ****         CTRL_BUS_A2_HIGH;    /*线A5控制着20-23路红外电源*/
 2127              		.loc 1 721 9 view .LVU555
 2128 0064 0122     		movs	r2, #1
 2129 0066 4FF48061 		mov	r1, #1024
 2130 006a 2846     		mov	r0, r5
ARM GAS  C:\Users\123\AppData\Local\Temp\ccWgqIzz.s 			page 56


 2131 006c FFF7FEFF 		bl	HAL_GPIO_WritePin
 2132              	.LVL272:
 722:Src/user_gpio.c ****         SN74_F_EN;  /*使能sn74*/
 2133              		.loc 1 722 9 view .LVU556
 2134 0070 A04E     		ldr	r6, .L152+8
 2135 0072 0022     		movs	r2, #0
 2136 0074 4FF48071 		mov	r1, #256
 2137 0078 3046     		mov	r0, r6
 2138 007a FFF7FEFF 		bl	HAL_GPIO_WritePin
 2139              	.LVL273:
 723:Src/user_gpio.c ****         HAL_Delay(60);
 2140              		.loc 1 723 9 view .LVU557
 2141 007e 3C20     		movs	r0, #60
 2142 0080 FFF7FEFF 		bl	HAL_Delay
 2143              	.LVL274:
 724:Src/user_gpio.c ****         g_item_stat[index] = read_sn74lvc_statua(index-V_TWENTY, READ_GOODS_STATUS);    /*读取红
 2144              		.loc 1 724 9 view .LVU558
 2145              		.loc 1 724 30 is_stmt 0 view .LVU559
 2146 0084 A4F11400 		sub	r0, r4, #20
 2147 0088 0221     		movs	r1, #2
 2148 008a C0B2     		uxtb	r0, r0
 2149 008c FFF7FEFF 		bl	read_sn74lvc_statua
 2150              	.LVL275:
 2151              		.loc 1 724 28 view .LVU560
 2152 0090 9A4B     		ldr	r3, .L152+16
 2153 0092 1855     		strb	r0, [r3, r4]
 725:Src/user_gpio.c ****         SN74_F_DIS;    /*失能sn74*/
 2154              		.loc 1 725 9 is_stmt 1 view .LVU561
 2155 0094 0122     		movs	r2, #1
 2156 0096 4FF48071 		mov	r1, #256
 2157 009a 3046     		mov	r0, r6
 2158 009c FFF7FEFF 		bl	HAL_GPIO_WritePin
 2159              	.LVL276:
 726:Src/user_gpio.c ****         CTRL_BUS_A2_LOW;    /*关闭20-23路红外电源*/
 2160              		.loc 1 726 9 view .LVU562
 2161 00a0 0022     		movs	r2, #0
 2162 00a2 4FF48061 		mov	r1, #1024
 2163 00a6 2846     		mov	r0, r5
 2164 00a8 FFF7FEFF 		bl	HAL_GPIO_WritePin
 2165              	.LVL277:
 727:Src/user_gpio.c ****         CHIP_SELECT_04DIS;    /*失能第三片74hc*/
 2166              		.loc 1 727 9 view .LVU563
 2167 00ac 0122     		movs	r2, #1
 2168 00ae 0221     		movs	r1, #2
 2169 00b0 2846     		mov	r0, r5
 2170 00b2 FFF7FEFF 		bl	HAL_GPIO_WritePin
 2171              	.LVL278:
 2172 00b6 31E0     		b	.L140
 2173              	.L147:
 658:Src/user_gpio.c ****         HAL_Delay(5);
 2174              		.loc 1 658 9 view .LVU564
 2175 00b8 8D4D     		ldr	r5, .L152+4
 2176 00ba 0022     		movs	r2, #0
 2177 00bc 4FF40051 		mov	r1, #8192
 2178 00c0 2846     		mov	r0, r5
 2179 00c2 FFF7FEFF 		bl	HAL_GPIO_WritePin
 2180              	.LVL279:
ARM GAS  C:\Users\123\AppData\Local\Temp\ccWgqIzz.s 			page 57


 659:Src/user_gpio.c ****         CTRL_BUS_AO_HIGH;    /*线A0控制着0-3路红外电源*/
 2181              		.loc 1 659 9 view .LVU565
 2182 00c6 0520     		movs	r0, #5
 2183 00c8 FFF7FEFF 		bl	HAL_Delay
 2184              	.LVL280:
 660:Src/user_gpio.c ****         SN74_A_EN;    /*使能sn745*/
 2185              		.loc 1 660 9 view .LVU566
 2186 00cc 0122     		movs	r2, #1
 2187 00ce 4FF48051 		mov	r1, #4096
 2188 00d2 2846     		mov	r0, r5
 2189 00d4 FFF7FEFF 		bl	HAL_GPIO_WritePin
 2190              	.LVL281:
 661:Src/user_gpio.c ****         HAL_Delay(60);
 2191              		.loc 1 661 9 view .LVU567
 2192 00d8 874E     		ldr	r6, .L152+12
 2193 00da 0022     		movs	r2, #0
 2194 00dc 4FF48061 		mov	r1, #1024
 2195 00e0 3046     		mov	r0, r6
 2196 00e2 FFF7FEFF 		bl	HAL_GPIO_WritePin
 2197              	.LVL282:
 662:Src/user_gpio.c ****         g_item_stat[index] = read_sn74lvc_statua(index, READ_GOODS_STATUS);    /*读取红外状态
 2198              		.loc 1 662 9 view .LVU568
 2199 00e6 3C20     		movs	r0, #60
 2200 00e8 FFF7FEFF 		bl	HAL_Delay
 2201              	.LVL283:
 663:Src/user_gpio.c ****         SN74_A_DIS;    /*失能sn74*/
 2202              		.loc 1 663 9 view .LVU569
 663:Src/user_gpio.c ****         SN74_A_DIS;    /*失能sn74*/
 2203              		.loc 1 663 30 is_stmt 0 view .LVU570
 2204 00ec 0221     		movs	r1, #2
 2205 00ee 2046     		mov	r0, r4
 2206 00f0 FFF7FEFF 		bl	read_sn74lvc_statua
 2207              	.LVL284:
 663:Src/user_gpio.c ****         SN74_A_DIS;    /*失能sn74*/
 2208              		.loc 1 663 28 view .LVU571
 2209 00f4 814B     		ldr	r3, .L152+16
 2210 00f6 1855     		strb	r0, [r3, r4]
 664:Src/user_gpio.c ****         CTRL_BUS_AO_LOW;    /*关闭0-3路红外电源*/
 2211              		.loc 1 664 9 is_stmt 1 view .LVU572
 2212 00f8 0122     		movs	r2, #1
 2213 00fa 4FF48061 		mov	r1, #1024
 2214 00fe 3046     		mov	r0, r6
 2215 0100 FFF7FEFF 		bl	HAL_GPIO_WritePin
 2216              	.LVL285:
 665:Src/user_gpio.c ****         CHIP_SELECT_01DIS;    /*失能第一片74hc*/
 2217              		.loc 1 665 9 view .LVU573
 2218 0104 0022     		movs	r2, #0
 2219 0106 4FF48051 		mov	r1, #4096
 2220 010a 2846     		mov	r0, r5
 2221 010c FFF7FEFF 		bl	HAL_GPIO_WritePin
 2222              	.LVL286:
 666:Src/user_gpio.c ****     }
 2223              		.loc 1 666 9 view .LVU574
 2224 0110 0122     		movs	r2, #1
 2225 0112 4FF40051 		mov	r1, #8192
 2226 0116 2846     		mov	r0, r5
 2227 0118 FFF7FEFF 		bl	HAL_GPIO_WritePin
ARM GAS  C:\Users\123\AppData\Local\Temp\ccWgqIzz.s 			page 58


 2228              	.LVL287:
 2229              	.L140:
 728:Src/user_gpio.c ****     }
 729:Src/user_gpio.c ****     else
 730:Src/user_gpio.c ****     {
 731:Src/user_gpio.c ****         printf("get one goods status err!");
 732:Src/user_gpio.c ****     }
 733:Src/user_gpio.c ****     INFRARED_POWER_DIS;    /*失能红外电源*/
 2230              		.loc 1 733 5 view .LVU575
 2231 011c 0022     		movs	r2, #0
 2232 011e 1021     		movs	r1, #16
 2233 0120 7248     		ldr	r0, .L152
 2234 0122 FFF7FEFF 		bl	HAL_GPIO_WritePin
 2235              	.LVL288:
 734:Src/user_gpio.c ****     CTRL_BUS_POWER_DIS;    /*关闭74hc电源*/
 2236              		.loc 1 734 5 view .LVU576
 2237 0126 0022     		movs	r2, #0
 2238 0128 4FF48041 		mov	r1, #16384
 2239 012c 7048     		ldr	r0, .L152+4
 2240 012e FFF7FEFF 		bl	HAL_GPIO_WritePin
 2241              	.LVL289:
 735:Src/user_gpio.c ****     POWER_5V_DIS;    /*关闭5V电源*/
 2242              		.loc 1 735 5 view .LVU577
 2243 0132 0022     		movs	r2, #0
 2244 0134 4FF40071 		mov	r1, #512
 2245 0138 6E48     		ldr	r0, .L152+8
 2246 013a FFF7FEFF 		bl	HAL_GPIO_WritePin
 2247              	.LVL290:
 736:Src/user_gpio.c ****     GOODS_POWER_3V3_DIS;    /*关闭3.3V电源*/
 2248              		.loc 1 736 5 view .LVU578
 2249 013e 0122     		movs	r2, #1
 2250 0140 1146     		mov	r1, r2
 2251 0142 6D48     		ldr	r0, .L152+12
 2252 0144 FFF7FEFF 		bl	HAL_GPIO_WritePin
 2253              	.LVL291:
 737:Src/user_gpio.c **** }
 2254              		.loc 1 737 1 is_stmt 0 view .LVU579
 2255 0148 F8BD     		pop	{r3, r4, r5, r6, r7, pc}
 2256              	.L148:
 670:Src/user_gpio.c ****         HAL_Delay(5);
 2257              		.loc 1 670 9 is_stmt 1 view .LVU580
 2258 014a 694D     		ldr	r5, .L152+4
 2259 014c 0022     		movs	r2, #0
 2260 014e 4FF40051 		mov	r1, #8192
 2261 0152 2846     		mov	r0, r5
 2262 0154 FFF7FEFF 		bl	HAL_GPIO_WritePin
 2263              	.LVL292:
 671:Src/user_gpio.c ****         CTRL_BUS_A5_HIGH;    /*线A5控制着4-7路红外电源*/
 2264              		.loc 1 671 9 view .LVU581
 2265 0158 0520     		movs	r0, #5
 2266 015a FFF7FEFF 		bl	HAL_Delay
 2267              	.LVL293:
 672:Src/user_gpio.c ****         SN74_B_EN;    /*使能sn74*/
 2268              		.loc 1 672 9 view .LVU582
 2269 015e 654E     		ldr	r6, .L152+8
 2270 0160 0122     		movs	r2, #1
 2271 0162 4FF40041 		mov	r1, #32768
ARM GAS  C:\Users\123\AppData\Local\Temp\ccWgqIzz.s 			page 59


 2272 0166 3046     		mov	r0, r6
 2273 0168 FFF7FEFF 		bl	HAL_GPIO_WritePin
 2274              	.LVL294:
 673:Src/user_gpio.c ****         HAL_Delay(60); 
 2275              		.loc 1 673 9 view .LVU583
 2276 016c 624F     		ldr	r7, .L152+12
 2277 016e 0022     		movs	r2, #0
 2278 0170 4FF40061 		mov	r1, #2048
 2279 0174 3846     		mov	r0, r7
 2280 0176 FFF7FEFF 		bl	HAL_GPIO_WritePin
 2281              	.LVL295:
 674:Src/user_gpio.c ****         g_item_stat[index] = read_sn74lvc_statua(index-V_FOUR, READ_GOODS_STATUS);     /*读取红
 2282              		.loc 1 674 9 view .LVU584
 2283 017a 3C20     		movs	r0, #60
 2284 017c FFF7FEFF 		bl	HAL_Delay
 2285              	.LVL296:
 675:Src/user_gpio.c ****         SN74_B_DIS;    /*失能sn74*/
 2286              		.loc 1 675 9 view .LVU585
 675:Src/user_gpio.c ****         SN74_B_DIS;    /*失能sn74*/
 2287              		.loc 1 675 30 is_stmt 0 view .LVU586
 2288 0180 201F     		subs	r0, r4, #4
 2289 0182 0221     		movs	r1, #2
 2290 0184 C0B2     		uxtb	r0, r0
 2291 0186 FFF7FEFF 		bl	read_sn74lvc_statua
 2292              	.LVL297:
 675:Src/user_gpio.c ****         SN74_B_DIS;    /*失能sn74*/
 2293              		.loc 1 675 28 view .LVU587
 2294 018a 5C4B     		ldr	r3, .L152+16
 2295 018c 1855     		strb	r0, [r3, r4]
 676:Src/user_gpio.c ****         CTRL_BUS_A5_LOW;    /*关闭4-7路红外电源*/
 2296              		.loc 1 676 9 is_stmt 1 view .LVU588
 2297 018e 0122     		movs	r2, #1
 2298 0190 4FF40061 		mov	r1, #2048
 2299 0194 3846     		mov	r0, r7
 2300 0196 FFF7FEFF 		bl	HAL_GPIO_WritePin
 2301              	.LVL298:
 677:Src/user_gpio.c ****         CHIP_SELECT_01DIS;    /*失能第一片74hc*/
 2302              		.loc 1 677 9 view .LVU589
 2303 019a 0022     		movs	r2, #0
 2304 019c 4FF40041 		mov	r1, #32768
 2305 01a0 3046     		mov	r0, r6
 2306 01a2 FFF7FEFF 		bl	HAL_GPIO_WritePin
 2307              	.LVL299:
 678:Src/user_gpio.c ****     }
 2308              		.loc 1 678 9 view .LVU590
 2309 01a6 0122     		movs	r2, #1
 2310 01a8 4FF40051 		mov	r1, #8192
 2311 01ac 2846     		mov	r0, r5
 2312 01ae FFF7FEFF 		bl	HAL_GPIO_WritePin
 2313              	.LVL300:
 2314 01b2 B3E7     		b	.L140
 2315              	.L149:
 682:Src/user_gpio.c ****         HAL_Delay(5);
 2316              		.loc 1 682 9 view .LVU591
 2317 01b4 4E4D     		ldr	r5, .L152+4
 2318 01b6 0022     		movs	r2, #0
 2319 01b8 4FF40041 		mov	r1, #32768
ARM GAS  C:\Users\123\AppData\Local\Temp\ccWgqIzz.s 			page 60


 2320 01bc 2846     		mov	r0, r5
 2321 01be FFF7FEFF 		bl	HAL_GPIO_WritePin
 2322              	.LVL301:
 683:Src/user_gpio.c ****         CTRL_BUS_A2_HIGH;    /*线A0控制着8-11路红外电源*/
 2323              		.loc 1 683 9 view .LVU592
 2324 01c2 0520     		movs	r0, #5
 2325 01c4 FFF7FEFF 		bl	HAL_Delay
 2326              	.LVL302:
 684:Src/user_gpio.c ****         SN74_C_EN;  /*使能sn74*/
 2327              		.loc 1 684 9 view .LVU593
 2328 01c8 0122     		movs	r2, #1
 2329 01ca 4FF48061 		mov	r1, #1024
 2330 01ce 2846     		mov	r0, r5
 2331 01d0 FFF7FEFF 		bl	HAL_GPIO_WritePin
 2332              	.LVL303:
 685:Src/user_gpio.c ****         HAL_Delay(60);
 2333              		.loc 1 685 9 view .LVU594
 2334 01d4 474E     		ldr	r6, .L152+8
 2335 01d6 0022     		movs	r2, #0
 2336 01d8 4FF48051 		mov	r1, #4096
 2337 01dc 3046     		mov	r0, r6
 2338 01de FFF7FEFF 		bl	HAL_GPIO_WritePin
 2339              	.LVL304:
 686:Src/user_gpio.c ****         g_item_stat[index] = read_sn74lvc_statua(index-V_EIGHT, READ_GOODS_STATUS);    /*读取红
 2340              		.loc 1 686 9 view .LVU595
 2341 01e2 3C20     		movs	r0, #60
 2342 01e4 FFF7FEFF 		bl	HAL_Delay
 2343              	.LVL305:
 687:Src/user_gpio.c ****         SN74_C_DIS;    /*失能sn74*/
 2344              		.loc 1 687 9 view .LVU596
 687:Src/user_gpio.c ****         SN74_C_DIS;    /*失能sn74*/
 2345              		.loc 1 687 30 is_stmt 0 view .LVU597
 2346 01e8 A4F10800 		sub	r0, r4, #8
 2347 01ec 0221     		movs	r1, #2
 2348 01ee C0B2     		uxtb	r0, r0
 2349 01f0 FFF7FEFF 		bl	read_sn74lvc_statua
 2350              	.LVL306:
 687:Src/user_gpio.c ****         SN74_C_DIS;    /*失能sn74*/
 2351              		.loc 1 687 28 view .LVU598
 2352 01f4 414B     		ldr	r3, .L152+16
 2353 01f6 1855     		strb	r0, [r3, r4]
 688:Src/user_gpio.c ****         CTRL_BUS_A2_LOW;    /*关闭8-11路红外电源*/
 2354              		.loc 1 688 9 is_stmt 1 view .LVU599
 2355 01f8 0122     		movs	r2, #1
 2356 01fa 4FF48051 		mov	r1, #4096
 2357 01fe 3046     		mov	r0, r6
 2358 0200 FFF7FEFF 		bl	HAL_GPIO_WritePin
 2359              	.LVL307:
 689:Src/user_gpio.c ****         CHIP_SELECT_02DIS;    /*失能第二片74hc*/
 2360              		.loc 1 689 9 view .LVU600
 2361 0204 0022     		movs	r2, #0
 2362 0206 4FF48061 		mov	r1, #1024
 2363 020a 2846     		mov	r0, r5
 2364 020c FFF7FEFF 		bl	HAL_GPIO_WritePin
 2365              	.LVL308:
 690:Src/user_gpio.c **** 
 2366              		.loc 1 690 9 view .LVU601
ARM GAS  C:\Users\123\AppData\Local\Temp\ccWgqIzz.s 			page 61


 2367 0210 0122     		movs	r2, #1
 2368 0212 4FF40041 		mov	r1, #32768
 2369 0216 2846     		mov	r0, r5
 2370 0218 FFF7FEFF 		bl	HAL_GPIO_WritePin
 2371              	.LVL309:
 2372 021c 7EE7     		b	.L140
 2373              	.L150:
 695:Src/user_gpio.c ****         HAL_Delay(5);
 2374              		.loc 1 695 9 view .LVU602
 2375 021e 344D     		ldr	r5, .L152+4
 2376 0220 0022     		movs	r2, #0
 2377 0222 0121     		movs	r1, #1
 2378 0224 2846     		mov	r0, r5
 2379 0226 FFF7FEFF 		bl	HAL_GPIO_WritePin
 2380              	.LVL310:
 696:Src/user_gpio.c ****         CTRL_BUS_AO_HIGH;    /*线A5控制着12-15路红外电源*/
 2381              		.loc 1 696 9 view .LVU603
 2382 022a 0520     		movs	r0, #5
 2383 022c FFF7FEFF 		bl	HAL_Delay
 2384              	.LVL311:
 697:Src/user_gpio.c ****         SN74_D_EN;  /*使能sn74*/
 2385              		.loc 1 697 9 view .LVU604
 2386 0230 0122     		movs	r2, #1
 2387 0232 4FF48051 		mov	r1, #4096
 2388 0236 2846     		mov	r0, r5
 2389 0238 FFF7FEFF 		bl	HAL_GPIO_WritePin
 2390              	.LVL312:
 698:Src/user_gpio.c ****         HAL_Delay(60);
 2391              		.loc 1 698 9 view .LVU605
 2392 023c 2D4E     		ldr	r6, .L152+8
 2393 023e 0022     		movs	r2, #0
 2394 0240 4021     		movs	r1, #64
 2395 0242 3046     		mov	r0, r6
 2396 0244 FFF7FEFF 		bl	HAL_GPIO_WritePin
 2397              	.LVL313:
 699:Src/user_gpio.c ****         g_item_stat[index] = read_sn74lvc_statua(index-V_TWELVE, READ_GOODS_STATUS);    /*读取红
 2398              		.loc 1 699 9 view .LVU606
 2399 0248 3C20     		movs	r0, #60
 2400 024a FFF7FEFF 		bl	HAL_Delay
 2401              	.LVL314:
 700:Src/user_gpio.c ****         SN74_D_DIS;    /*失能sn74*/
 2402              		.loc 1 700 9 view .LVU607
 700:Src/user_gpio.c ****         SN74_D_DIS;    /*失能sn74*/
 2403              		.loc 1 700 30 is_stmt 0 view .LVU608
 2404 024e A4F10C00 		sub	r0, r4, #12
 2405 0252 0221     		movs	r1, #2
 2406 0254 C0B2     		uxtb	r0, r0
 2407 0256 FFF7FEFF 		bl	read_sn74lvc_statua
 2408              	.LVL315:
 700:Src/user_gpio.c ****         SN74_D_DIS;    /*失能sn74*/
 2409              		.loc 1 700 28 view .LVU609
 2410 025a 284B     		ldr	r3, .L152+16
 2411 025c 1855     		strb	r0, [r3, r4]
 701:Src/user_gpio.c ****         CTRL_BUS_AO_LOW;    /*关闭12-15路红外电源*/
 2412              		.loc 1 701 9 is_stmt 1 view .LVU610
 2413 025e 0122     		movs	r2, #1
 2414 0260 4021     		movs	r1, #64
ARM GAS  C:\Users\123\AppData\Local\Temp\ccWgqIzz.s 			page 62


 2415 0262 3046     		mov	r0, r6
 2416 0264 FFF7FEFF 		bl	HAL_GPIO_WritePin
 2417              	.LVL316:
 702:Src/user_gpio.c ****         CHIP_SELECT_03DIS;    /*失能第二片74hc*/
 2418              		.loc 1 702 9 view .LVU611
 2419 0268 0022     		movs	r2, #0
 2420 026a 4FF48051 		mov	r1, #4096
 2421 026e 2846     		mov	r0, r5
 2422 0270 FFF7FEFF 		bl	HAL_GPIO_WritePin
 2423              	.LVL317:
 703:Src/user_gpio.c ****     }
 2424              		.loc 1 703 9 view .LVU612
 2425 0274 0122     		movs	r2, #1
 2426 0276 1146     		mov	r1, r2
 2427 0278 2846     		mov	r0, r5
 2428 027a FFF7FEFF 		bl	HAL_GPIO_WritePin
 2429              	.LVL318:
 2430 027e 4DE7     		b	.L140
 2431              	.L151:
 707:Src/user_gpio.c ****         HAL_Delay(5);
 2432              		.loc 1 707 9 view .LVU613
 2433 0280 1B4E     		ldr	r6, .L152+4
 2434 0282 0022     		movs	r2, #0
 2435 0284 0121     		movs	r1, #1
 2436 0286 3046     		mov	r0, r6
 2437 0288 FFF7FEFF 		bl	HAL_GPIO_WritePin
 2438              	.LVL319:
 708:Src/user_gpio.c ****         CTRL_BUS_A5_HIGH;    /*线A0控制着16-19路红外电源*/
 2439              		.loc 1 708 9 view .LVU614
 2440 028c 0520     		movs	r0, #5
 2441 028e FFF7FEFF 		bl	HAL_Delay
 2442              	.LVL320:
 709:Src/user_gpio.c ****         SN74_E_EN;  /*使能sn74*/
 2443              		.loc 1 709 9 view .LVU615
 2444 0292 184D     		ldr	r5, .L152+8
 2445 0294 0122     		movs	r2, #1
 2446 0296 4FF40041 		mov	r1, #32768
 2447 029a 2846     		mov	r0, r5
 2448 029c FFF7FEFF 		bl	HAL_GPIO_WritePin
 2449              	.LVL321:
 710:Src/user_gpio.c ****         HAL_Delay(60);
 2450              		.loc 1 710 9 view .LVU616
 2451 02a0 0022     		movs	r2, #0
 2452 02a2 8021     		movs	r1, #128
 2453 02a4 2846     		mov	r0, r5
 2454 02a6 FFF7FEFF 		bl	HAL_GPIO_WritePin
 2455              	.LVL322:
 711:Src/user_gpio.c ****         g_item_stat[index] = read_sn74lvc_statua(index-V_SIXTEEN, READ_GOODS_STATUS);    /*读取
 2456              		.loc 1 711 9 view .LVU617
 2457 02aa 3C20     		movs	r0, #60
 2458 02ac FFF7FEFF 		bl	HAL_Delay
 2459              	.LVL323:
 712:Src/user_gpio.c ****         SN74_E_DIS;     /*失能sn74*/
 2460              		.loc 1 712 9 view .LVU618
 712:Src/user_gpio.c ****         SN74_E_DIS;     /*失能sn74*/
 2461              		.loc 1 712 30 is_stmt 0 view .LVU619
 2462 02b0 A4F11000 		sub	r0, r4, #16
ARM GAS  C:\Users\123\AppData\Local\Temp\ccWgqIzz.s 			page 63


 2463 02b4 0221     		movs	r1, #2
 2464 02b6 C0B2     		uxtb	r0, r0
 2465 02b8 FFF7FEFF 		bl	read_sn74lvc_statua
 2466              	.LVL324:
 712:Src/user_gpio.c ****         SN74_E_DIS;     /*失能sn74*/
 2467              		.loc 1 712 28 view .LVU620
 2468 02bc 0F4B     		ldr	r3, .L152+16
 2469 02be 1855     		strb	r0, [r3, r4]
 713:Src/user_gpio.c ****         CTRL_BUS_A5_LOW;    /*关闭16-19路红外电源*/
 2470              		.loc 1 713 9 is_stmt 1 view .LVU621
 2471 02c0 0122     		movs	r2, #1
 2472 02c2 8021     		movs	r1, #128
 2473 02c4 2846     		mov	r0, r5
 2474 02c6 FFF7FEFF 		bl	HAL_GPIO_WritePin
 2475              	.LVL325:
 714:Src/user_gpio.c ****         CHIP_SELECT_03DIS;    /*失能第三片74hc*/
 2476              		.loc 1 714 9 view .LVU622
 2477 02ca 0022     		movs	r2, #0
 2478 02cc 4FF40041 		mov	r1, #32768
 2479 02d0 2846     		mov	r0, r5
 2480 02d2 FFF7FEFF 		bl	HAL_GPIO_WritePin
 2481              	.LVL326:
 715:Src/user_gpio.c ****     }
 2482              		.loc 1 715 9 view .LVU623
 2483 02d6 0122     		movs	r2, #1
 2484 02d8 1146     		mov	r1, r2
 2485 02da 3046     		mov	r0, r6
 2486 02dc FFF7FEFF 		bl	HAL_GPIO_WritePin
 2487              	.LVL327:
 2488 02e0 1CE7     		b	.L140
 2489              	.L145:
 731:Src/user_gpio.c ****     }
 2490              		.loc 1 731 9 view .LVU624
 2491 02e2 0748     		ldr	r0, .L152+20
 2492 02e4 FFF7FEFF 		bl	printf
 2493              	.LVL328:
 2494 02e8 18E7     		b	.L140
 2495              	.L153:
 2496 02ea 00BF     		.align	2
 2497              	.L152:
 2498 02ec 00080048 		.word	1207961600
 2499 02f0 000C0048 		.word	1207962624
 2500 02f4 00040048 		.word	1207960576
 2501 02f8 00100048 		.word	1207963648
 2502 02fc 00000000 		.word	.LANCHOR7
 2503 0300 00000000 		.word	.LC13
 2504              		.cfi_endproc
 2505              	.LFE322:
 2507              		.section	.text.get_all_goods_state_fun,"ax",%progbits
 2508              		.align	1
 2509              		.global	get_all_goods_state_fun
 2510              		.syntax unified
 2511              		.thumb
 2512              		.thumb_func
 2513              		.fpu fpv4-sp-d16
 2515              	get_all_goods_state_fun:
 2516              	.LFB323:
ARM GAS  C:\Users\123\AppData\Local\Temp\ccWgqIzz.s 			page 64


 738:Src/user_gpio.c **** 
 739:Src/user_gpio.c **** /*********************************************************************
 740:Src/user_gpio.c ****  *	function name:  get_all_goods_state_fun
 741:Src/user_gpio.c ****  *	describe: get all goods status
 742:Src/user_gpio.c ****  *	input:
 743:Src/user_gpio.c ****  *	output:
 744:Src/user_gpio.c ****  *	return:null
 745:Src/user_gpio.c ****  *	revision histroy :   1.
 746:Src/user_gpio.c ****  *                      2.
 747:Src/user_gpio.c ****  **********************************************************************/
 748:Src/user_gpio.c **** void get_all_goods_state_fun(void)
 749:Src/user_gpio.c **** {
 2517              		.loc 1 749 1 view -0
 2518              		.cfi_startproc
 2519              		@ args = 0, pretend = 0, frame = 0
 2520              		@ frame_needed = 0, uses_anonymous_args = 0
 2521 0000 2DE9F047 		push	{r4, r5, r6, r7, r8, r9, r10, lr}
 2522              	.LCFI9:
 2523              		.cfi_def_cfa_offset 32
 2524              		.cfi_offset 4, -32
 2525              		.cfi_offset 5, -28
 2526              		.cfi_offset 6, -24
 2527              		.cfi_offset 7, -20
 2528              		.cfi_offset 8, -16
 2529              		.cfi_offset 9, -12
 2530              		.cfi_offset 10, -8
 2531              		.cfi_offset 14, -4
 750:Src/user_gpio.c ****     /*获取所有物品状态，先开使能红外电源、74HC电源也即红外电源、
 751:Src/user_gpio.c ****       开启sn74电源，然后轮流使能75hc、sn74分别读取物品状态*/
 752:Src/user_gpio.c ****     memset(g_all_goods_status, I_ZERO, L_THREE);
 2532              		.loc 1 752 5 view .LVU626
 2533 0004 EA4E     		ldr	r6, .L156
 2534 0006 0025     		movs	r5, #0
 2535 0008 3580     		strh	r5, [r6]	@ movhi
 2536 000a B570     		strb	r5, [r6, #2]
 753:Src/user_gpio.c ****     INFRARED_POWER_EN;        /*使能红外电源*/
 2537              		.loc 1 753 5 view .LVU627
 2538 000c DFF8ACA3 		ldr	r10, .L156+12
 2539 0010 0122     		movs	r2, #1
 2540 0012 1021     		movs	r1, #16
 2541 0014 5046     		mov	r0, r10
 2542 0016 FFF7FEFF 		bl	HAL_GPIO_WritePin
 2543              	.LVL329:
 754:Src/user_gpio.c ****     CTRL_BUS_POWER_EN;    /*开启74hc电源*/
 2544              		.loc 1 754 5 view .LVU628
 2545 001a E64F     		ldr	r7, .L156+4
 2546 001c 0122     		movs	r2, #1
 2547 001e 4FF48041 		mov	r1, #16384
 2548 0022 3846     		mov	r0, r7
 2549 0024 FFF7FEFF 		bl	HAL_GPIO_WritePin
 2550              	.LVL330:
 755:Src/user_gpio.c ****     POWER_5V_EN;    /*开启5v电源*/
 2551              		.loc 1 755 5 view .LVU629
 2552 0028 DFF89483 		ldr	r8, .L156+16
 2553 002c 0122     		movs	r2, #1
 2554 002e 4FF40071 		mov	r1, #512
 2555 0032 4046     		mov	r0, r8
ARM GAS  C:\Users\123\AppData\Local\Temp\ccWgqIzz.s 			page 65


 2556 0034 FFF7FEFF 		bl	HAL_GPIO_WritePin
 2557              	.LVL331:
 756:Src/user_gpio.c ****     GOODS_POWER_3V3_EN;    /*开启3.3v电源*/
 2558              		.loc 1 756 5 view .LVU630
 2559 0038 DFF88893 		ldr	r9, .L156+20
 2560 003c 2A46     		mov	r2, r5
 2561 003e 0121     		movs	r1, #1
 2562 0040 4846     		mov	r0, r9
 2563 0042 FFF7FEFF 		bl	HAL_GPIO_WritePin
 2564              	.LVL332:
 757:Src/user_gpio.c ****     
 758:Src/user_gpio.c ****     CHIP_SELECT_01EN;    /*使能第一片74HC,读取0-7路物品状态*/
 2565              		.loc 1 758 5 view .LVU631
 2566 0046 2A46     		mov	r2, r5
 2567 0048 4FF40051 		mov	r1, #8192
 2568 004c 3846     		mov	r0, r7
 2569 004e FFF7FEFF 		bl	HAL_GPIO_WritePin
 2570              	.LVL333:
 759:Src/user_gpio.c ****     CTRL_BUS_AO_HIGH;    /*开启0-3路红外电源*/
 2571              		.loc 1 759 5 view .LVU632
 2572 0052 0122     		movs	r2, #1
 2573 0054 4FF48051 		mov	r1, #4096
 2574 0058 3846     		mov	r0, r7
 2575 005a FFF7FEFF 		bl	HAL_GPIO_WritePin
 2576              	.LVL334:
 760:Src/user_gpio.c ****     SN74_A_EN;  /*使能第一片SN74*/
 2577              		.loc 1 760 5 view .LVU633
 2578 005e 2A46     		mov	r2, r5
 2579 0060 4FF48061 		mov	r1, #1024
 2580 0064 4846     		mov	r0, r9
 2581 0066 FFF7FEFF 		bl	HAL_GPIO_WritePin
 2582              	.LVL335:
 761:Src/user_gpio.c ****     HAL_Delay(60);
 2583              		.loc 1 761 5 view .LVU634
 2584 006a 3C20     		movs	r0, #60
 2585 006c FFF7FEFF 		bl	HAL_Delay
 2586              	.LVL336:
 762:Src/user_gpio.c ****     g_item_stat[V_ZERO] = read_sn74lvc_statua(V_ZERO, READ_GOODS_STATUS);    /*读取0-3路物品
 2587              		.loc 1 762 5 view .LVU635
 2588              		.loc 1 762 27 is_stmt 0 view .LVU636
 2589 0070 0221     		movs	r1, #2
 2590 0072 2846     		mov	r0, r5
 2591 0074 FFF7FEFF 		bl	read_sn74lvc_statua
 2592              	.LVL337:
 2593              		.loc 1 762 25 view .LVU637
 2594 0078 CF4C     		ldr	r4, .L156+8
 2595 007a 2070     		strb	r0, [r4]
 763:Src/user_gpio.c ****     g_item_stat[V_ONE] = read_sn74lvc_statua(V_ONE, READ_GOODS_STATUS);
 2596              		.loc 1 763 5 is_stmt 1 view .LVU638
 2597              		.loc 1 763 26 is_stmt 0 view .LVU639
 2598 007c 0221     		movs	r1, #2
 2599 007e 0120     		movs	r0, #1
 2600 0080 FFF7FEFF 		bl	read_sn74lvc_statua
 2601              	.LVL338:
 2602              		.loc 1 763 24 view .LVU640
 2603 0084 6070     		strb	r0, [r4, #1]
 764:Src/user_gpio.c ****     g_item_stat[V_TWO] = read_sn74lvc_statua(V_TWO, READ_GOODS_STATUS);
ARM GAS  C:\Users\123\AppData\Local\Temp\ccWgqIzz.s 			page 66


 2604              		.loc 1 764 5 is_stmt 1 view .LVU641
 2605              		.loc 1 764 26 is_stmt 0 view .LVU642
 2606 0086 0221     		movs	r1, #2
 2607 0088 0846     		mov	r0, r1
 2608 008a FFF7FEFF 		bl	read_sn74lvc_statua
 2609              	.LVL339:
 2610              		.loc 1 764 24 view .LVU643
 2611 008e A070     		strb	r0, [r4, #2]
 765:Src/user_gpio.c ****     g_item_stat[V_THREE] = read_sn74lvc_statua(V_THREE, READ_GOODS_STATUS);
 2612              		.loc 1 765 5 is_stmt 1 view .LVU644
 2613              		.loc 1 765 28 is_stmt 0 view .LVU645
 2614 0090 0221     		movs	r1, #2
 2615 0092 0320     		movs	r0, #3
 2616 0094 FFF7FEFF 		bl	read_sn74lvc_statua
 2617              	.LVL340:
 2618              		.loc 1 765 26 view .LVU646
 2619 0098 E070     		strb	r0, [r4, #3]
 766:Src/user_gpio.c ****     SN74_A_DIS;    /*失能第一片SN74*/
 2620              		.loc 1 766 5 is_stmt 1 view .LVU647
 2621 009a 0122     		movs	r2, #1
 2622 009c 4FF48061 		mov	r1, #1024
 2623 00a0 4846     		mov	r0, r9
 2624 00a2 FFF7FEFF 		bl	HAL_GPIO_WritePin
 2625              	.LVL341:
 767:Src/user_gpio.c ****     CTRL_BUS_AO_LOW;    /*关闭0-3路红外电源*/
 2626              		.loc 1 767 5 view .LVU648
 2627 00a6 2A46     		mov	r2, r5
 2628 00a8 4FF48051 		mov	r1, #4096
 2629 00ac 3846     		mov	r0, r7
 2630 00ae FFF7FEFF 		bl	HAL_GPIO_WritePin
 2631              	.LVL342:
 768:Src/user_gpio.c ****     //CHIP_SELECT_01DIS;    
 769:Src/user_gpio.c ****     //CHIP_SELECT_01EN;
 770:Src/user_gpio.c ****     //HAL_Delay(5);
 771:Src/user_gpio.c ****     CTRL_BUS_A5_HIGH;    /*开启4-7路红外电源*/
 2632              		.loc 1 771 5 view .LVU649
 2633 00b2 0122     		movs	r2, #1
 2634 00b4 4FF40041 		mov	r1, #32768
 2635 00b8 4046     		mov	r0, r8
 2636 00ba FFF7FEFF 		bl	HAL_GPIO_WritePin
 2637              	.LVL343:
 772:Src/user_gpio.c ****     SN74_B_EN;  /*使能第二片SN74*/
 2638              		.loc 1 772 5 view .LVU650
 2639 00be 2A46     		mov	r2, r5
 2640 00c0 4FF40061 		mov	r1, #2048
 2641 00c4 4846     		mov	r0, r9
 2642 00c6 FFF7FEFF 		bl	HAL_GPIO_WritePin
 2643              	.LVL344:
 773:Src/user_gpio.c ****     HAL_Delay(60);
 2644              		.loc 1 773 5 view .LVU651
 2645 00ca 3C20     		movs	r0, #60
 2646 00cc FFF7FEFF 		bl	HAL_Delay
 2647              	.LVL345:
 774:Src/user_gpio.c ****     g_item_stat[V_ZERO+V_FOUR] = read_sn74lvc_statua(V_ZERO, READ_GOODS_STATUS);    /*读取4-7路
 2648              		.loc 1 774 5 view .LVU652
 2649              		.loc 1 774 34 is_stmt 0 view .LVU653
 2650 00d0 0221     		movs	r1, #2
ARM GAS  C:\Users\123\AppData\Local\Temp\ccWgqIzz.s 			page 67


 2651 00d2 2846     		mov	r0, r5
 2652 00d4 FFF7FEFF 		bl	read_sn74lvc_statua
 2653              	.LVL346:
 2654              		.loc 1 774 32 view .LVU654
 2655 00d8 2071     		strb	r0, [r4, #4]
 775:Src/user_gpio.c ****     g_item_stat[V_ONE+V_FOUR] = read_sn74lvc_statua(V_ONE, READ_GOODS_STATUS);
 2656              		.loc 1 775 5 is_stmt 1 view .LVU655
 2657              		.loc 1 775 33 is_stmt 0 view .LVU656
 2658 00da 0221     		movs	r1, #2
 2659 00dc 0120     		movs	r0, #1
 2660 00de FFF7FEFF 		bl	read_sn74lvc_statua
 2661              	.LVL347:
 2662              		.loc 1 775 31 view .LVU657
 2663 00e2 6071     		strb	r0, [r4, #5]
 776:Src/user_gpio.c ****     g_item_stat[V_TWO+V_FOUR] = read_sn74lvc_statua(V_TWO, READ_GOODS_STATUS);
 2664              		.loc 1 776 5 is_stmt 1 view .LVU658
 2665              		.loc 1 776 33 is_stmt 0 view .LVU659
 2666 00e4 0221     		movs	r1, #2
 2667 00e6 0846     		mov	r0, r1
 2668 00e8 FFF7FEFF 		bl	read_sn74lvc_statua
 2669              	.LVL348:
 2670              		.loc 1 776 31 view .LVU660
 2671 00ec A071     		strb	r0, [r4, #6]
 777:Src/user_gpio.c ****     g_item_stat[V_THREE+V_FOUR] = read_sn74lvc_statua(V_THREE, READ_GOODS_STATUS);
 2672              		.loc 1 777 5 is_stmt 1 view .LVU661
 2673              		.loc 1 777 35 is_stmt 0 view .LVU662
 2674 00ee 0221     		movs	r1, #2
 2675 00f0 0320     		movs	r0, #3
 2676 00f2 FFF7FEFF 		bl	read_sn74lvc_statua
 2677              	.LVL349:
 2678              		.loc 1 777 33 view .LVU663
 2679 00f6 E071     		strb	r0, [r4, #7]
 778:Src/user_gpio.c ****     SN74_B_DIS;    /*失能第二片SN74*/
 2680              		.loc 1 778 5 is_stmt 1 view .LVU664
 2681 00f8 0122     		movs	r2, #1
 2682 00fa 4FF40061 		mov	r1, #2048
 2683 00fe 4846     		mov	r0, r9
 2684 0100 FFF7FEFF 		bl	HAL_GPIO_WritePin
 2685              	.LVL350:
 779:Src/user_gpio.c ****     CTRL_BUS_A5_LOW;    /*关闭4-7路红外电源*/
 2686              		.loc 1 779 5 view .LVU665
 2687 0104 2A46     		mov	r2, r5
 2688 0106 4FF40041 		mov	r1, #32768
 2689 010a 4046     		mov	r0, r8
 2690 010c FFF7FEFF 		bl	HAL_GPIO_WritePin
 2691              	.LVL351:
 780:Src/user_gpio.c ****     CHIP_SELECT_01DIS;    /*失能第一片74HC*/
 2692              		.loc 1 780 5 view .LVU666
 2693 0110 0122     		movs	r2, #1
 2694 0112 4FF40051 		mov	r1, #8192
 2695 0116 3846     		mov	r0, r7
 2696 0118 FFF7FEFF 		bl	HAL_GPIO_WritePin
 2697              	.LVL352:
 781:Src/user_gpio.c **** 
 782:Src/user_gpio.c **** 
 783:Src/user_gpio.c ****     CHIP_SELECT_02EN;    /*使能第二片74HC,读取8-15路物品状态*/
 2698              		.loc 1 783 5 view .LVU667
ARM GAS  C:\Users\123\AppData\Local\Temp\ccWgqIzz.s 			page 68


 2699 011c 2A46     		mov	r2, r5
 2700 011e 4FF40041 		mov	r1, #32768
 2701 0122 3846     		mov	r0, r7
 2702 0124 FFF7FEFF 		bl	HAL_GPIO_WritePin
 2703              	.LVL353:
 784:Src/user_gpio.c ****     CTRL_BUS_A2_HIGH;    /*开启8-11路红外电源*/
 2704              		.loc 1 784 5 view .LVU668
 2705 0128 0122     		movs	r2, #1
 2706 012a 4FF48061 		mov	r1, #1024
 2707 012e 3846     		mov	r0, r7
 2708 0130 FFF7FEFF 		bl	HAL_GPIO_WritePin
 2709              	.LVL354:
 785:Src/user_gpio.c ****     SN74_C_EN;    /*使能第三片SN74*/
 2710              		.loc 1 785 5 view .LVU669
 2711 0134 2A46     		mov	r2, r5
 2712 0136 4FF48051 		mov	r1, #4096
 2713 013a 4046     		mov	r0, r8
 2714 013c FFF7FEFF 		bl	HAL_GPIO_WritePin
 2715              	.LVL355:
 786:Src/user_gpio.c ****     HAL_Delay(60);
 2716              		.loc 1 786 5 view .LVU670
 2717 0140 3C20     		movs	r0, #60
 2718 0142 FFF7FEFF 		bl	HAL_Delay
 2719              	.LVL356:
 787:Src/user_gpio.c ****     g_item_stat[V_ZERO+V_EIGHT] = read_sn74lvc_statua(V_ZERO, READ_GOODS_STATUS);    /*读取8-11
 2720              		.loc 1 787 5 view .LVU671
 2721              		.loc 1 787 35 is_stmt 0 view .LVU672
 2722 0146 0221     		movs	r1, #2
 2723 0148 2846     		mov	r0, r5
 2724 014a FFF7FEFF 		bl	read_sn74lvc_statua
 2725              	.LVL357:
 2726              		.loc 1 787 33 view .LVU673
 2727 014e 2072     		strb	r0, [r4, #8]
 788:Src/user_gpio.c ****     g_item_stat[V_ONE+V_EIGHT] = read_sn74lvc_statua(V_ONE, READ_GOODS_STATUS);
 2728              		.loc 1 788 5 is_stmt 1 view .LVU674
 2729              		.loc 1 788 34 is_stmt 0 view .LVU675
 2730 0150 0221     		movs	r1, #2
 2731 0152 0120     		movs	r0, #1
 2732 0154 FFF7FEFF 		bl	read_sn74lvc_statua
 2733              	.LVL358:
 2734              		.loc 1 788 32 view .LVU676
 2735 0158 6072     		strb	r0, [r4, #9]
 789:Src/user_gpio.c ****     g_item_stat[V_TWO+V_EIGHT] = read_sn74lvc_statua(V_TWO, READ_GOODS_STATUS);
 2736              		.loc 1 789 5 is_stmt 1 view .LVU677
 2737              		.loc 1 789 34 is_stmt 0 view .LVU678
 2738 015a 0221     		movs	r1, #2
 2739 015c 0846     		mov	r0, r1
 2740 015e FFF7FEFF 		bl	read_sn74lvc_statua
 2741              	.LVL359:
 2742              		.loc 1 789 32 view .LVU679
 2743 0162 A072     		strb	r0, [r4, #10]
 790:Src/user_gpio.c ****     g_item_stat[V_THREE+V_EIGHT] = read_sn74lvc_statua(V_THREE, READ_GOODS_STATUS);
 2744              		.loc 1 790 5 is_stmt 1 view .LVU680
 2745              		.loc 1 790 36 is_stmt 0 view .LVU681
 2746 0164 0221     		movs	r1, #2
 2747 0166 0320     		movs	r0, #3
 2748 0168 FFF7FEFF 		bl	read_sn74lvc_statua
ARM GAS  C:\Users\123\AppData\Local\Temp\ccWgqIzz.s 			page 69


 2749              	.LVL360:
 2750              		.loc 1 790 34 view .LVU682
 2751 016c E072     		strb	r0, [r4, #11]
 791:Src/user_gpio.c ****     SN74_C_DIS;    /*失能第三片SN74*/
 2752              		.loc 1 791 5 is_stmt 1 view .LVU683
 2753 016e 0122     		movs	r2, #1
 2754 0170 4FF48051 		mov	r1, #4096
 2755 0174 4046     		mov	r0, r8
 2756 0176 FFF7FEFF 		bl	HAL_GPIO_WritePin
 2757              	.LVL361:
 792:Src/user_gpio.c ****     CTRL_BUS_A2_LOW;    /*关闭8-11路红外电源*/
 2758              		.loc 1 792 5 view .LVU684
 2759 017a 2A46     		mov	r2, r5
 2760 017c 4FF48061 		mov	r1, #1024
 2761 0180 3846     		mov	r0, r7
 2762 0182 FFF7FEFF 		bl	HAL_GPIO_WritePin
 2763              	.LVL362:
 793:Src/user_gpio.c ****     CHIP_SELECT_02DIS;
 2764              		.loc 1 793 5 view .LVU685
 2765 0186 0122     		movs	r2, #1
 2766 0188 4FF40041 		mov	r1, #32768
 2767 018c 3846     		mov	r0, r7
 2768 018e FFF7FEFF 		bl	HAL_GPIO_WritePin
 2769              	.LVL363:
 794:Src/user_gpio.c ****     CHIP_SELECT_03EN;
 2770              		.loc 1 794 5 view .LVU686
 2771 0192 2A46     		mov	r2, r5
 2772 0194 0121     		movs	r1, #1
 2773 0196 3846     		mov	r0, r7
 2774 0198 FFF7FEFF 		bl	HAL_GPIO_WritePin
 2775              	.LVL364:
 795:Src/user_gpio.c ****     CTRL_BUS_AO_HIGH;    /*开启12-15路红外电源*/
 2776              		.loc 1 795 5 view .LVU687
 2777 019c 0122     		movs	r2, #1
 2778 019e 4FF48051 		mov	r1, #4096
 2779 01a2 3846     		mov	r0, r7
 2780 01a4 FFF7FEFF 		bl	HAL_GPIO_WritePin
 2781              	.LVL365:
 796:Src/user_gpio.c ****     SN74_D_EN;  /*使能第四片SN74*/
 2782              		.loc 1 796 5 view .LVU688
 2783 01a8 2A46     		mov	r2, r5
 2784 01aa 4021     		movs	r1, #64
 2785 01ac 4046     		mov	r0, r8
 2786 01ae FFF7FEFF 		bl	HAL_GPIO_WritePin
 2787              	.LVL366:
 797:Src/user_gpio.c ****     HAL_Delay(60);
 2788              		.loc 1 797 5 view .LVU689
 2789 01b2 3C20     		movs	r0, #60
 2790 01b4 FFF7FEFF 		bl	HAL_Delay
 2791              	.LVL367:
 798:Src/user_gpio.c ****     g_item_stat[V_ZERO+V_TWELVE] = read_sn74lvc_statua(V_ZERO, READ_GOODS_STATUS);    /*读取12-15
 2792              		.loc 1 798 5 view .LVU690
 2793              		.loc 1 798 36 is_stmt 0 view .LVU691
 2794 01b8 0221     		movs	r1, #2
 2795 01ba 2846     		mov	r0, r5
 2796 01bc FFF7FEFF 		bl	read_sn74lvc_statua
 2797              	.LVL368:
ARM GAS  C:\Users\123\AppData\Local\Temp\ccWgqIzz.s 			page 70


 2798              		.loc 1 798 34 view .LVU692
 2799 01c0 2073     		strb	r0, [r4, #12]
 799:Src/user_gpio.c ****     g_item_stat[V_ONE+V_TWELVE] = read_sn74lvc_statua(V_ONE, READ_GOODS_STATUS);
 2800              		.loc 1 799 5 is_stmt 1 view .LVU693
 2801              		.loc 1 799 35 is_stmt 0 view .LVU694
 2802 01c2 0221     		movs	r1, #2
 2803 01c4 0120     		movs	r0, #1
 2804 01c6 FFF7FEFF 		bl	read_sn74lvc_statua
 2805              	.LVL369:
 2806              		.loc 1 799 33 view .LVU695
 2807 01ca 6073     		strb	r0, [r4, #13]
 800:Src/user_gpio.c ****     g_item_stat[V_TWO+V_TWELVE] = read_sn74lvc_statua(V_TWO, READ_GOODS_STATUS);
 2808              		.loc 1 800 5 is_stmt 1 view .LVU696
 2809              		.loc 1 800 35 is_stmt 0 view .LVU697
 2810 01cc 0221     		movs	r1, #2
 2811 01ce 0846     		mov	r0, r1
 2812 01d0 FFF7FEFF 		bl	read_sn74lvc_statua
 2813              	.LVL370:
 2814              		.loc 1 800 33 view .LVU698
 2815 01d4 A073     		strb	r0, [r4, #14]
 801:Src/user_gpio.c ****     g_item_stat[V_THREE+V_TWELVE] = read_sn74lvc_statua(V_THREE, READ_GOODS_STATUS);
 2816              		.loc 1 801 5 is_stmt 1 view .LVU699
 2817              		.loc 1 801 37 is_stmt 0 view .LVU700
 2818 01d6 0221     		movs	r1, #2
 2819 01d8 0320     		movs	r0, #3
 2820 01da FFF7FEFF 		bl	read_sn74lvc_statua
 2821              	.LVL371:
 2822              		.loc 1 801 35 view .LVU701
 2823 01de E073     		strb	r0, [r4, #15]
 802:Src/user_gpio.c ****     SN74_D_DIS;    /*失能第四片SN74*/
 2824              		.loc 1 802 5 is_stmt 1 view .LVU702
 2825 01e0 0122     		movs	r2, #1
 2826 01e2 4021     		movs	r1, #64
 2827 01e4 4046     		mov	r0, r8
 2828 01e6 FFF7FEFF 		bl	HAL_GPIO_WritePin
 2829              	.LVL372:
 803:Src/user_gpio.c ****     CTRL_BUS_AO_LOW;    /*关闭12-15路红外电源*/
 2830              		.loc 1 803 5 view .LVU703
 2831 01ea 2A46     		mov	r2, r5
 2832 01ec 4FF48051 		mov	r1, #4096
 2833 01f0 3846     		mov	r0, r7
 2834 01f2 FFF7FEFF 		bl	HAL_GPIO_WritePin
 2835              	.LVL373:
 804:Src/user_gpio.c ****     CHIP_SELECT_03DIS;    /*失能第二片74HC*/
 2836              		.loc 1 804 5 view .LVU704
 2837 01f6 0122     		movs	r2, #1
 2838 01f8 1146     		mov	r1, r2
 2839 01fa 3846     		mov	r0, r7
 2840 01fc FFF7FEFF 		bl	HAL_GPIO_WritePin
 2841              	.LVL374:
 805:Src/user_gpio.c **** 
 806:Src/user_gpio.c ****     CHIP_SELECT_03EN;    /*使能第三片74HC,读取16-23路物品状态*/
 2842              		.loc 1 806 5 view .LVU705
 2843 0200 2A46     		mov	r2, r5
 2844 0202 0121     		movs	r1, #1
 2845 0204 3846     		mov	r0, r7
 2846 0206 FFF7FEFF 		bl	HAL_GPIO_WritePin
ARM GAS  C:\Users\123\AppData\Local\Temp\ccWgqIzz.s 			page 71


 2847              	.LVL375:
 807:Src/user_gpio.c ****     CTRL_BUS_A5_HIGH;    /*开启16-19路红外电源*/
 2848              		.loc 1 807 5 view .LVU706
 2849 020a 0122     		movs	r2, #1
 2850 020c 4FF40041 		mov	r1, #32768
 2851 0210 4046     		mov	r0, r8
 2852 0212 FFF7FEFF 		bl	HAL_GPIO_WritePin
 2853              	.LVL376:
 808:Src/user_gpio.c ****     SN74_E_EN;  /*使能第五片SN74*/
 2854              		.loc 1 808 5 view .LVU707
 2855 0216 2A46     		mov	r2, r5
 2856 0218 8021     		movs	r1, #128
 2857 021a 4046     		mov	r0, r8
 2858 021c FFF7FEFF 		bl	HAL_GPIO_WritePin
 2859              	.LVL377:
 809:Src/user_gpio.c ****     HAL_Delay(60);
 2860              		.loc 1 809 5 view .LVU708
 2861 0220 3C20     		movs	r0, #60
 2862 0222 FFF7FEFF 		bl	HAL_Delay
 2863              	.LVL378:
 810:Src/user_gpio.c ****     g_item_stat[V_ZERO+V_SIXTEEN] = read_sn74lvc_statua(V_ZERO, READ_GOODS_STATUS);    /*读取16-1
 2864              		.loc 1 810 5 view .LVU709
 2865              		.loc 1 810 37 is_stmt 0 view .LVU710
 2866 0226 0221     		movs	r1, #2
 2867 0228 2846     		mov	r0, r5
 2868 022a FFF7FEFF 		bl	read_sn74lvc_statua
 2869              	.LVL379:
 2870              		.loc 1 810 35 view .LVU711
 2871 022e 2074     		strb	r0, [r4, #16]
 811:Src/user_gpio.c ****     g_item_stat[V_ONE+V_SIXTEEN] = read_sn74lvc_statua(V_ONE, READ_GOODS_STATUS);
 2872              		.loc 1 811 5 is_stmt 1 view .LVU712
 2873              		.loc 1 811 36 is_stmt 0 view .LVU713
 2874 0230 0221     		movs	r1, #2
 2875 0232 0120     		movs	r0, #1
 2876 0234 FFF7FEFF 		bl	read_sn74lvc_statua
 2877              	.LVL380:
 2878              		.loc 1 811 34 view .LVU714
 2879 0238 6074     		strb	r0, [r4, #17]
 812:Src/user_gpio.c ****     g_item_stat[V_TWO+V_SIXTEEN] = read_sn74lvc_statua(V_TWO, READ_GOODS_STATUS);
 2880              		.loc 1 812 5 is_stmt 1 view .LVU715
 2881              		.loc 1 812 36 is_stmt 0 view .LVU716
 2882 023a 0221     		movs	r1, #2
 2883 023c 0846     		mov	r0, r1
 2884 023e FFF7FEFF 		bl	read_sn74lvc_statua
 2885              	.LVL381:
 2886              		.loc 1 812 34 view .LVU717
 2887 0242 A074     		strb	r0, [r4, #18]
 813:Src/user_gpio.c ****     g_item_stat[V_THREE+V_SIXTEEN] = read_sn74lvc_statua(V_THREE, READ_GOODS_STATUS);
 2888              		.loc 1 813 5 is_stmt 1 view .LVU718
 2889              		.loc 1 813 38 is_stmt 0 view .LVU719
 2890 0244 0221     		movs	r1, #2
 2891 0246 0320     		movs	r0, #3
 2892 0248 FFF7FEFF 		bl	read_sn74lvc_statua
 2893              	.LVL382:
 2894              		.loc 1 813 36 view .LVU720
 2895 024c E074     		strb	r0, [r4, #19]
 814:Src/user_gpio.c ****     SN74_E_DIS;    /*失能第五片SN74*/
ARM GAS  C:\Users\123\AppData\Local\Temp\ccWgqIzz.s 			page 72


 2896              		.loc 1 814 5 is_stmt 1 view .LVU721
 2897 024e 0122     		movs	r2, #1
 2898 0250 8021     		movs	r1, #128
 2899 0252 4046     		mov	r0, r8
 2900 0254 FFF7FEFF 		bl	HAL_GPIO_WritePin
 2901              	.LVL383:
 815:Src/user_gpio.c ****     CTRL_BUS_A5_LOW;    /*关闭16-19路红外电源*/
 2902              		.loc 1 815 5 view .LVU722
 2903 0258 2A46     		mov	r2, r5
 2904 025a 4FF40041 		mov	r1, #32768
 2905 025e 4046     		mov	r0, r8
 2906 0260 FFF7FEFF 		bl	HAL_GPIO_WritePin
 2907              	.LVL384:
 816:Src/user_gpio.c ****     CHIP_SELECT_03DIS;
 2908              		.loc 1 816 5 view .LVU723
 2909 0264 0122     		movs	r2, #1
 2910 0266 1146     		mov	r1, r2
 2911 0268 3846     		mov	r0, r7
 2912 026a FFF7FEFF 		bl	HAL_GPIO_WritePin
 2913              	.LVL385:
 817:Src/user_gpio.c ****     CHIP_SELECT_04EN;
 2914              		.loc 1 817 5 view .LVU724
 2915 026e 2A46     		mov	r2, r5
 2916 0270 0221     		movs	r1, #2
 2917 0272 3846     		mov	r0, r7
 2918 0274 FFF7FEFF 		bl	HAL_GPIO_WritePin
 2919              	.LVL386:
 818:Src/user_gpio.c ****     CTRL_BUS_A2_HIGH;    /*开启20-23路红外电源*/
 2920              		.loc 1 818 5 view .LVU725
 2921 0278 0122     		movs	r2, #1
 2922 027a 4FF48061 		mov	r1, #1024
 2923 027e 3846     		mov	r0, r7
 2924 0280 FFF7FEFF 		bl	HAL_GPIO_WritePin
 2925              	.LVL387:
 819:Src/user_gpio.c ****     SN74_F_EN;  /*使能第六片SN74*/
 2926              		.loc 1 819 5 view .LVU726
 2927 0284 2A46     		mov	r2, r5
 2928 0286 4FF48071 		mov	r1, #256
 2929 028a 4046     		mov	r0, r8
 2930 028c FFF7FEFF 		bl	HAL_GPIO_WritePin
 2931              	.LVL388:
 820:Src/user_gpio.c ****     HAL_Delay(60);
 2932              		.loc 1 820 5 view .LVU727
 2933 0290 3C20     		movs	r0, #60
 2934 0292 FFF7FEFF 		bl	HAL_Delay
 2935              	.LVL389:
 821:Src/user_gpio.c ****     g_item_stat[V_ZERO+V_TWENTY] = read_sn74lvc_statua(V_ZERO, READ_GOODS_STATUS);    /*读取20-23
 2936              		.loc 1 821 5 view .LVU728
 2937              		.loc 1 821 36 is_stmt 0 view .LVU729
 2938 0296 0221     		movs	r1, #2
 2939 0298 2846     		mov	r0, r5
 2940 029a FFF7FEFF 		bl	read_sn74lvc_statua
 2941              	.LVL390:
 2942              		.loc 1 821 34 view .LVU730
 2943 029e 2075     		strb	r0, [r4, #20]
 822:Src/user_gpio.c ****     g_item_stat[V_ONE+V_TWENTY] = read_sn74lvc_statua(V_ONE, READ_GOODS_STATUS);
 2944              		.loc 1 822 5 is_stmt 1 view .LVU731
ARM GAS  C:\Users\123\AppData\Local\Temp\ccWgqIzz.s 			page 73


 2945              		.loc 1 822 35 is_stmt 0 view .LVU732
 2946 02a0 0221     		movs	r1, #2
 2947 02a2 0120     		movs	r0, #1
 2948 02a4 FFF7FEFF 		bl	read_sn74lvc_statua
 2949              	.LVL391:
 2950              		.loc 1 822 33 view .LVU733
 2951 02a8 6075     		strb	r0, [r4, #21]
 823:Src/user_gpio.c ****     g_item_stat[V_TWO+V_TWENTY] = read_sn74lvc_statua(V_TWO, READ_GOODS_STATUS);
 2952              		.loc 1 823 5 is_stmt 1 view .LVU734
 2953              		.loc 1 823 35 is_stmt 0 view .LVU735
 2954 02aa 0221     		movs	r1, #2
 2955 02ac 0846     		mov	r0, r1
 2956 02ae FFF7FEFF 		bl	read_sn74lvc_statua
 2957              	.LVL392:
 2958              		.loc 1 823 33 view .LVU736
 2959 02b2 A075     		strb	r0, [r4, #22]
 824:Src/user_gpio.c ****     g_item_stat[V_THREE+V_TWENTY] = read_sn74lvc_statua(V_THREE, READ_GOODS_STATUS);
 2960              		.loc 1 824 5 is_stmt 1 view .LVU737
 2961              		.loc 1 824 37 is_stmt 0 view .LVU738
 2962 02b4 0221     		movs	r1, #2
 2963 02b6 0320     		movs	r0, #3
 2964 02b8 FFF7FEFF 		bl	read_sn74lvc_statua
 2965              	.LVL393:
 2966              		.loc 1 824 35 view .LVU739
 2967 02bc E075     		strb	r0, [r4, #23]
 825:Src/user_gpio.c ****     SN74_F_DIS;    /*失能第六片SN74*/
 2968              		.loc 1 825 5 is_stmt 1 view .LVU740
 2969 02be 0122     		movs	r2, #1
 2970 02c0 4FF48071 		mov	r1, #256
 2971 02c4 4046     		mov	r0, r8
 2972 02c6 FFF7FEFF 		bl	HAL_GPIO_WritePin
 2973              	.LVL394:
 826:Src/user_gpio.c ****     CTRL_BUS_A2_LOW;    /*关闭20-23路红外电源*/
 2974              		.loc 1 826 5 view .LVU741
 2975 02ca 2A46     		mov	r2, r5
 2976 02cc 4FF48061 		mov	r1, #1024
 2977 02d0 3846     		mov	r0, r7
 2978 02d2 FFF7FEFF 		bl	HAL_GPIO_WritePin
 2979              	.LVL395:
 827:Src/user_gpio.c ****     CHIP_SELECT_04DIS;    /*失能第三片74HC*/
 2980              		.loc 1 827 5 view .LVU742
 2981 02d6 0122     		movs	r2, #1
 2982 02d8 0221     		movs	r1, #2
 2983 02da 3846     		mov	r0, r7
 2984 02dc FFF7FEFF 		bl	HAL_GPIO_WritePin
 2985              	.LVL396:
 828:Src/user_gpio.c **** 
 829:Src/user_gpio.c **** 
 830:Src/user_gpio.c ****     INFRARED_POWER_DIS;    /*失能红外电源*/
 2986              		.loc 1 830 5 view .LVU743
 2987 02e0 2A46     		mov	r2, r5
 2988 02e2 1021     		movs	r1, #16
 2989 02e4 5046     		mov	r0, r10
 2990 02e6 FFF7FEFF 		bl	HAL_GPIO_WritePin
 2991              	.LVL397:
 831:Src/user_gpio.c ****     CTRL_BUS_POWER_DIS;    /*关闭74HC电源*/
 2992              		.loc 1 831 5 view .LVU744
ARM GAS  C:\Users\123\AppData\Local\Temp\ccWgqIzz.s 			page 74


 2993 02ea 2A46     		mov	r2, r5
 2994 02ec 4FF48041 		mov	r1, #16384
 2995 02f0 3846     		mov	r0, r7
 2996 02f2 FFF7FEFF 		bl	HAL_GPIO_WritePin
 2997              	.LVL398:
 832:Src/user_gpio.c ****     POWER_5V_DIS;    /*关闭5V电源*/
 2998              		.loc 1 832 5 view .LVU745
 2999 02f6 2A46     		mov	r2, r5
 3000 02f8 4FF40071 		mov	r1, #512
 3001 02fc 4046     		mov	r0, r8
 3002 02fe FFF7FEFF 		bl	HAL_GPIO_WritePin
 3003              	.LVL399:
 833:Src/user_gpio.c ****     GOODS_POWER_3V3_DIS;    /*关闭3.3V电源*/
 3004              		.loc 1 833 5 view .LVU746
 3005 0302 0122     		movs	r2, #1
 3006 0304 1146     		mov	r1, r2
 3007 0306 4846     		mov	r0, r9
 3008 0308 FFF7FEFF 		bl	HAL_GPIO_WritePin
 3009              	.LVL400:
 834:Src/user_gpio.c ****     /*用1bit表示一个格口物品状态*/
 835:Src/user_gpio.c ****     g_all_goods_status[V_ZERO] = g_item_stat[V_ZERO]|(g_item_stat[V_ONE]<<V_ONE)|(g_item_stat[V_TWO
 3010              		.loc 1 835 5 view .LVU747
 3011              		.loc 1 835 45 is_stmt 0 view .LVU748
 3012 030c 94F90030 		ldrsb	r3, [r4]
 3013              		.loc 1 835 66 view .LVU749
 3014 0310 6278     		ldrb	r2, [r4, #1]	@ zero_extendqisi2
 3015              		.loc 1 835 53 view .LVU750
 3016 0312 43EA4203 		orr	r3, r3, r2, lsl #1
 3017 0316 5BB2     		sxtb	r3, r3
 3018              		.loc 1 835 94 view .LVU751
 3019 0318 A278     		ldrb	r2, [r4, #2]	@ zero_extendqisi2
 3020              		.loc 1 835 81 view .LVU752
 3021 031a 43EA8203 		orr	r3, r3, r2, lsl #2
 3022 031e 5BB2     		sxtb	r3, r3
 3023              		.loc 1 835 122 view .LVU753
 3024 0320 E278     		ldrb	r2, [r4, #3]	@ zero_extendqisi2
 3025              		.loc 1 835 109 view .LVU754
 3026 0322 43EAC203 		orr	r3, r3, r2, lsl #3
 3027 0326 5BB2     		sxtb	r3, r3
 836:Src/user_gpio.c ****                 (g_item_stat[V_FOUR]<<V_FOUR)|(g_item_stat[V_FIVE]<<V_FIVE)|(g_item_stat[V_SIX]<<V_
 3028              		.loc 1 836 29 view .LVU755
 3029 0328 2279     		ldrb	r2, [r4, #4]	@ zero_extendqisi2
 835:Src/user_gpio.c ****                 (g_item_stat[V_FOUR]<<V_FOUR)|(g_item_stat[V_FIVE]<<V_FIVE)|(g_item_stat[V_SIX]<<V_
 3030              		.loc 1 835 141 view .LVU756
 3031 032a 43EA0213 		orr	r3, r3, r2, lsl #4
 3032 032e 5BB2     		sxtb	r3, r3
 3033              		.loc 1 836 59 view .LVU757
 3034 0330 6279     		ldrb	r2, [r4, #5]	@ zero_extendqisi2
 3035              		.loc 1 836 46 view .LVU758
 3036 0332 43EA4213 		orr	r3, r3, r2, lsl #5
 3037 0336 5BB2     		sxtb	r3, r3
 3038              		.loc 1 836 89 view .LVU759
 3039 0338 A279     		ldrb	r2, [r4, #6]	@ zero_extendqisi2
 3040              		.loc 1 836 76 view .LVU760
 3041 033a 43EA8213 		orr	r3, r3, r2, lsl #6
 3042 033e 5BB2     		sxtb	r3, r3
 3043              		.loc 1 836 117 view .LVU761
ARM GAS  C:\Users\123\AppData\Local\Temp\ccWgqIzz.s 			page 75


 3044 0340 E279     		ldrb	r2, [r4, #7]	@ zero_extendqisi2
 3045              		.loc 1 836 104 view .LVU762
 3046 0342 43EAC213 		orr	r3, r3, r2, lsl #7
 835:Src/user_gpio.c ****                 (g_item_stat[V_FOUR]<<V_FOUR)|(g_item_stat[V_FIVE]<<V_FIVE)|(g_item_stat[V_SIX]<<V_
 3047              		.loc 1 835 32 view .LVU763
 3048 0346 3370     		strb	r3, [r6]
 837:Src/user_gpio.c ****     g_all_goods_status[V_ONE] = g_item_stat[V_ZERO+V_EIGHT]|(g_item_stat[V_ONE+V_EIGHT]<<V_ONE)|(g_
 3049              		.loc 1 837 5 is_stmt 1 view .LVU764
 3050              		.loc 1 837 44 is_stmt 0 view .LVU765
 3051 0348 94F90830 		ldrsb	r3, [r4, #8]
 3052              		.loc 1 837 73 view .LVU766
 3053 034c 627A     		ldrb	r2, [r4, #9]	@ zero_extendqisi2
 3054              		.loc 1 837 60 view .LVU767
 3055 034e 43EA4203 		orr	r3, r3, r2, lsl #1
 3056 0352 5BB2     		sxtb	r3, r3
 3057              		.loc 1 837 109 view .LVU768
 3058 0354 A27A     		ldrb	r2, [r4, #10]	@ zero_extendqisi2
 3059              		.loc 1 837 96 view .LVU769
 3060 0356 43EA8203 		orr	r3, r3, r2, lsl #2
 3061 035a 5BB2     		sxtb	r3, r3
 3062              		.loc 1 837 145 view .LVU770
 3063 035c E27A     		ldrb	r2, [r4, #11]	@ zero_extendqisi2
 3064              		.loc 1 837 132 view .LVU771
 3065 035e 43EAC203 		orr	r3, r3, r2, lsl #3
 3066 0362 5BB2     		sxtb	r3, r3
 838:Src/user_gpio.c ****                 (g_item_stat[V_FOUR+V_EIGHT]<<V_FOUR)|(g_item_stat[V_FIVE+V_EIGHT]<<V_FIVE)|(g_item
 3067              		.loc 1 838 29 view .LVU772
 3068 0364 227B     		ldrb	r2, [r4, #12]	@ zero_extendqisi2
 837:Src/user_gpio.c ****     g_all_goods_status[V_ONE] = g_item_stat[V_ZERO+V_EIGHT]|(g_item_stat[V_ONE+V_EIGHT]<<V_ONE)|(g_
 3069              		.loc 1 837 172 view .LVU773
 3070 0366 43EA0213 		orr	r3, r3, r2, lsl #4
 3071 036a 5BB2     		sxtb	r3, r3
 3072              		.loc 1 838 67 view .LVU774
 3073 036c 627B     		ldrb	r2, [r4, #13]	@ zero_extendqisi2
 3074              		.loc 1 838 54 view .LVU775
 3075 036e 43EA4213 		orr	r3, r3, r2, lsl #5
 3076 0372 5BB2     		sxtb	r3, r3
 3077              		.loc 1 838 105 view .LVU776
 3078 0374 A27B     		ldrb	r2, [r4, #14]	@ zero_extendqisi2
 3079              		.loc 1 838 92 view .LVU777
 3080 0376 43EA8213 		orr	r3, r3, r2, lsl #6
 3081 037a 5BB2     		sxtb	r3, r3
 3082              		.loc 1 838 141 view .LVU778
 3083 037c E27B     		ldrb	r2, [r4, #15]	@ zero_extendqisi2
 3084              		.loc 1 838 128 view .LVU779
 3085 037e 43EAC213 		orr	r3, r3, r2, lsl #7
 837:Src/user_gpio.c ****     g_all_goods_status[V_ONE] = g_item_stat[V_ZERO+V_EIGHT]|(g_item_stat[V_ONE+V_EIGHT]<<V_ONE)|(g_
 3086              		.loc 1 837 31 view .LVU780
 3087 0382 7370     		strb	r3, [r6, #1]
 839:Src/user_gpio.c ****     g_all_goods_status[V_TWO] = g_item_stat[V_ZERO+V_SIXTEEN]|(g_item_stat[V_ONE+V_SIXTEEN]<<V_ONE)
 3088              		.loc 1 839 5 is_stmt 1 view .LVU781
 3089              		.loc 1 839 44 is_stmt 0 view .LVU782
 3090 0384 94F91030 		ldrsb	r3, [r4, #16]
 3091              		.loc 1 839 75 view .LVU783
 3092 0388 627C     		ldrb	r2, [r4, #17]	@ zero_extendqisi2
 3093              		.loc 1 839 62 view .LVU784
 3094 038a 43EA4203 		orr	r3, r3, r2, lsl #1
ARM GAS  C:\Users\123\AppData\Local\Temp\ccWgqIzz.s 			page 76


 3095 038e 5BB2     		sxtb	r3, r3
 3096              		.loc 1 839 113 view .LVU785
 3097 0390 A27C     		ldrb	r2, [r4, #18]	@ zero_extendqisi2
 3098              		.loc 1 839 100 view .LVU786
 3099 0392 43EA8203 		orr	r3, r3, r2, lsl #2
 3100 0396 5BB2     		sxtb	r3, r3
 3101              		.loc 1 839 151 view .LVU787
 3102 0398 E27C     		ldrb	r2, [r4, #19]	@ zero_extendqisi2
 3103              		.loc 1 839 138 view .LVU788
 3104 039a 43EAC203 		orr	r3, r3, r2, lsl #3
 3105 039e 5BB2     		sxtb	r3, r3
 840:Src/user_gpio.c ****                 (g_item_stat[V_FOUR+V_SIXTEEN]<<V_FOUR)|(g_item_stat[V_FIVE+V_SIXTEEN]<<V_FIVE)|(g_
 3106              		.loc 1 840 29 view .LVU789
 3107 03a0 227D     		ldrb	r2, [r4, #20]	@ zero_extendqisi2
 839:Src/user_gpio.c ****     g_all_goods_status[V_TWO] = g_item_stat[V_ZERO+V_SIXTEEN]|(g_item_stat[V_ONE+V_SIXTEEN]<<V_ONE)
 3108              		.loc 1 839 180 view .LVU790
 3109 03a2 43EA0213 		orr	r3, r3, r2, lsl #4
 3110 03a6 5BB2     		sxtb	r3, r3
 3111              		.loc 1 840 69 view .LVU791
 3112 03a8 627D     		ldrb	r2, [r4, #21]	@ zero_extendqisi2
 3113              		.loc 1 840 56 view .LVU792
 3114 03aa 43EA4213 		orr	r3, r3, r2, lsl #5
 3115 03ae 0BE0     		b	.L157
 3116              	.L158:
 3117              		.align	2
 3118              	.L156:
 3119 03b0 00000000 		.word	.LANCHOR8
 3120 03b4 000C0048 		.word	1207962624
 3121 03b8 00000000 		.word	.LANCHOR7
 3122 03bc 00080048 		.word	1207961600
 3123 03c0 00040048 		.word	1207960576
 3124 03c4 00100048 		.word	1207963648
 3125              	.L157:
 3126 03c8 5BB2     		sxtb	r3, r3
 3127              		.loc 1 840 109 view .LVU793
 3128 03ca A27D     		ldrb	r2, [r4, #22]	@ zero_extendqisi2
 3129              		.loc 1 840 96 view .LVU794
 3130 03cc 43EA8213 		orr	r3, r3, r2, lsl #6
 3131 03d0 5BB2     		sxtb	r3, r3
 3132              		.loc 1 840 147 view .LVU795
 3133 03d2 E27D     		ldrb	r2, [r4, #23]	@ zero_extendqisi2
 3134              		.loc 1 840 134 view .LVU796
 3135 03d4 43EAC213 		orr	r3, r3, r2, lsl #7
 839:Src/user_gpio.c ****     g_all_goods_status[V_TWO] = g_item_stat[V_ZERO+V_SIXTEEN]|(g_item_stat[V_ONE+V_SIXTEEN]<<V_ONE)
 3136              		.loc 1 839 31 view .LVU797
 3137 03d8 B370     		strb	r3, [r6, #2]
 841:Src/user_gpio.c **** }
 3138              		.loc 1 841 1 view .LVU798
 3139 03da BDE8F087 		pop	{r4, r5, r6, r7, r8, r9, r10, pc}
 3140              		.cfi_endproc
 3141              	.LFE323:
 3143              		.global	g_rtc_alarm_flag
 3144              		.global	g_ble_connect_count
 3145              		.global	g_ble_connect_flag
 3146              		.global	g_lock_open_flag
 3147              		.global	g_lock_number
 3148              		.global	g_open_luck_time
ARM GAS  C:\Users\123\AppData\Local\Temp\ccWgqIzz.s 			page 77


 3149              		.global	g_all_goods_status
 3150              		.global	g_item_stat
 3151              		.global	g_door_stat
 3152              		.global	g_stdoor_stat
 3153 03de 00BF     		.section	.bss.g_all_goods_status,"aw",%nobits
 3154              		.align	2
 3155              		.set	.LANCHOR8,. + 0
 3158              	g_all_goods_status:
 3159 0000 000000   		.space	3
 3160              		.section	.bss.g_ble_connect_count,"aw",%nobits
 3161              		.align	2
 3164              	g_ble_connect_count:
 3165 0000 00000000 		.space	4
 3166              		.section	.bss.g_ble_connect_flag,"aw",%nobits
 3167              		.set	.LANCHOR0,. + 0
 3170              	g_ble_connect_flag:
 3171 0000 00       		.space	1
 3172              		.section	.bss.g_door_stat,"aw",%nobits
 3173              		.align	2
 3174              		.set	.LANCHOR6,. + 0
 3177              	g_door_stat:
 3178 0000 000000   		.space	3
 3179              		.section	.bss.g_item_stat,"aw",%nobits
 3180              		.align	2
 3181              		.set	.LANCHOR7,. + 0
 3184              	g_item_stat:
 3185 0000 00000000 		.space	24
 3185      00000000 
 3185      00000000 
 3185      00000000 
 3185      00000000 
 3186              		.section	.bss.g_lock_number,"aw",%nobits
 3187              		.set	.LANCHOR3,. + 0
 3190              	g_lock_number:
 3191 0000 00       		.space	1
 3192              		.section	.bss.g_lock_open_flag,"aw",%nobits
 3193              		.set	.LANCHOR4,. + 0
 3196              	g_lock_open_flag:
 3197 0000 00       		.space	1
 3198              		.section	.bss.g_open_luck_time,"aw",%nobits
 3199              		.align	1
 3200              		.set	.LANCHOR2,. + 0
 3203              	g_open_luck_time:
 3204 0000 0000     		.space	2
 3205              		.section	.bss.g_rtc_alarm_flag,"aw",%nobits
 3206              		.set	.LANCHOR1,. + 0
 3209              	g_rtc_alarm_flag:
 3210 0000 00       		.space	1
 3211              		.section	.bss.g_stdoor_stat,"aw",%nobits
 3212              		.align	2
 3213              		.set	.LANCHOR5,. + 0
 3216              	g_stdoor_stat:
 3217 0000 00000000 		.space	24
 3217      00000000 
 3217      00000000 
 3217      00000000 
 3217      00000000 
ARM GAS  C:\Users\123\AppData\Local\Temp\ccWgqIzz.s 			page 78


 3218              		.text
 3219              	.Letext0:
 3220              		.file 2 "c:\\program files (x86)\\gnu tools arm embedded\\9 2019-q4-major\\arm-none-eabi\\include\
 3221              		.file 3 "c:\\program files (x86)\\gnu tools arm embedded\\9 2019-q4-major\\arm-none-eabi\\include\
 3222              		.file 4 "Drivers/CMSIS/Include/core_cm4.h"
 3223              		.file 5 "Drivers/CMSIS/Device/ST/STM32L4xx/Include/system_stm32l4xx.h"
 3224              		.file 6 "Drivers/CMSIS/Device/ST/STM32L4xx/Include/stm32l471xx.h"
 3225              		.file 7 "Drivers/STM32L4xx_HAL_Driver/Inc/stm32l4xx_hal_def.h"
 3226              		.file 8 "Drivers/STM32L4xx_HAL_Driver/Inc/stm32l4xx_hal_gpio.h"
 3227              		.file 9 "Drivers/STM32L4xx_HAL_Driver/Inc/stm32l4xx_hal_flash.h"
 3228              		.file 10 "Drivers/STM32L4xx_HAL_Driver/Inc/stm32l4xx_hal.h"
 3229              		.file 11 "c:\\program files (x86)\\gnu tools arm embedded\\9 2019-q4-major\\arm-none-eabi\\include
 3230              		.file 12 "c:\\program files (x86)\\gnu tools arm embedded\\9 2019-q4-major\\arm-none-eabi\\include
 3231              		.file 13 "c:\\program files (x86)\\gnu tools arm embedded\\9 2019-q4-major\\lib\\gcc\\arm-none-eab
 3232              		.file 14 "c:\\program files (x86)\\gnu tools arm embedded\\9 2019-q4-major\\arm-none-eabi\\include
 3233              		.file 15 "Inc/global.h"
 3234              		.file 16 "Inc/main.h"
 3235              		.file 17 "Inc/user_gpio.h"
 3236              		.file 18 "c:\\program files (x86)\\gnu tools arm embedded\\9 2019-q4-major\\arm-none-eabi\\include
 3237              		.file 19 "<built-in>"
ARM GAS  C:\Users\123\AppData\Local\Temp\ccWgqIzz.s 			page 79

